	.file	"array.c"
	.option nopic
	.attribute arch, "rv64i2p0_m2p0_a2p0_f2p0_d2p0_c2p0"
	.attribute unaligned_access, 0
	.attribute stack_align, 16
	.text
.Ltext0:
	.cfi_sections	.debug_frame
	.section	.rodata.str1.8,"aMS",@progbits,1
	.align	3
.LC0:
	.string	"Array.concat"
	.text
	.align	1
	.type	caml_array_gather, @function
caml_array_gather:
.LFB34:
	.file 1 "array.c"
	.loc 1 452 1
	.cfi_startproc
.LVL0:
	addi	sp,sp,-160
	.cfi_def_cfa_offset 160
	sd	ra,152(sp)
	sd	s0,144(sp)
	sd	s1,136(sp)
	sd	s2,128(sp)
	sd	s3,120(sp)
	sd	s4,112(sp)
	sd	s5,104(sp)
	sd	s6,96(sp)
	sd	s7,88(sp)
	sd	s8,80(sp)
	sd	s9,72(sp)
	.cfi_offset 1, -8
	.cfi_offset 8, -16
	.cfi_offset 9, -24
	.cfi_offset 18, -32
	.cfi_offset 19, -40
	.cfi_offset 20, -48
	.cfi_offset 21, -56
	.cfi_offset 22, -64
	.cfi_offset 23, -72
	.cfi_offset 24, -80
	.cfi_offset 25, -88
	mv	a6,a0
	mv	s4,a1
	mv	s5,a2
	mv	s3,a3
	.loc 1 453 3
	lla	a5,caml_local_roots
	ld	s6,0(a5)
.LVL1:
	.loc 1 453 3
	.loc 1 453 3
	sd	s6,0(sp)
	sd	sp,0(a5)
	sd	a0,16(sp)
	li	a5,1
	sd	a5,8(sp)
	sd	a1,24(sp)
.LVL2:
	.loc 1 454 3
	.loc 1 459 3
	.loc 1 460 3
	.loc 1 463 3
	.loc 1 464 3
	.loc 1 463 8 is_stmt 0
	li	a0,0
.LVL3:
	.loc 1 464 10
	li	a5,0
.LVL4:
.L2:
	.loc 1 464 15 is_stmt 1 discriminator 1
	.loc 1 464 17 is_stmt 0 discriminator 1
	mv	s7,a6
	.loc 1 464 3 discriminator 1
	bleu	a6,a5,.L16
	.loc 1 465 5 is_stmt 1
	.loc 1 465 31 is_stmt 0
	slli	a4,a5,3
	add	a4,s3,a4
	ld	a4,0(a4)
	.loc 1 465 22
	not	a3,a4
	.loc 1 465 8
	bltu	a3,a0,.L17
	.loc 1 466 5 is_stmt 1 discriminator 2
	.loc 1 466 10 is_stmt 0 discriminator 2
	add	a0,a0,a4
.LVL5:
	.loc 1 464 31 is_stmt 1 discriminator 2
	.loc 1 464 32 is_stmt 0 discriminator 2
	addi	a5,a5,1
.LVL6:
	j	.L2
.L17:
	.loc 1 465 43 is_stmt 1 discriminator 1
	lla	a0,.LC0
.LVL7:
	call	caml_invalid_argument
.LVL8:
.L16:
	.loc 1 471 3
	.loc 1 471 6 is_stmt 0
	bne	a0,zero,.L5
	.loc 1 473 5 is_stmt 1
	.loc 1 473 9 is_stmt 0
	lla	s2,caml_atom_table+8
.LVL9:
.L6:
	.loc 1 522 3 is_stmt 1
.LBB2:
	.loc 1 522 3
	.loc 1 522 3
	sd	s6,caml_local_roots,a5
	.loc 1 522 3
.LBE2:
	.loc 1 522 3
	.loc 1 523 1 is_stmt 0
	mv	a0,s2
	ld	ra,152(sp)
	.cfi_remember_state
	.cfi_restore 1
	ld	s0,144(sp)
	.cfi_restore 8
	ld	s1,136(sp)
	.cfi_restore 9
	ld	s2,128(sp)
	.cfi_restore 18
.LVL10:
	ld	s3,120(sp)
	.cfi_restore 19
.LVL11:
	ld	s4,112(sp)
	.cfi_restore 20
.LVL12:
	ld	s5,104(sp)
	.cfi_restore 21
.LVL13:
	ld	s6,96(sp)
	.cfi_restore 22
.LVL14:
	ld	s7,88(sp)
	.cfi_restore 23
.LVL15:
	ld	s8,80(sp)
	.cfi_restore 24
	ld	s9,72(sp)
	.cfi_restore 25
	addi	sp,sp,160
	.cfi_def_cfa_offset 0
	jr	ra
.LVL16:
.L5:
	.cfi_restore_state
	.loc 1 490 8 is_stmt 1
	.loc 1 490 11 is_stmt 0
	li	a5,256
.LVL17:
	bleu	a0,a5,.L18
	.loc 1 502 8 is_stmt 1
	.loc 1 502 11 is_stmt 0
	li	a5,-1
	srli	a5,a5,10
	bgtu	a0,a5,.L19
	.loc 1 508 5 is_stmt 1
	.loc 1 508 11 is_stmt 0
	li	a1,0
.LVL18:
	call	caml_alloc_shr
.LVL19:
	mv	s8,a0
.LVL20:
	.loc 1 509 5 is_stmt 1
	.loc 1 509 21 is_stmt 0
	li	s2,0
	.loc 1 509 12
	li	s9,0
	.loc 1 509 5
	j	.L11
.LVL21:
.L18:
	.loc 1 493 5 is_stmt 1
	.loc 1 493 11 is_stmt 0
	li	a1,0
.LVL22:
	call	caml_alloc_small
.LVL23:
	mv	s2,a0
.LVL24:
	.loc 1 494 5 is_stmt 1
	.loc 1 494 21 is_stmt 0
	li	s8,0
	.loc 1 494 12
	li	s1,0
	.loc 1 494 5
	j	.L8
.LVL25:
.L9:
	.loc 1 495 7 is_stmt 1 discriminator 3
	.loc 1 495 15 is_stmt 0 discriminator 3
	slli	a0,s8,3
	.loc 1 496 15 discriminator 3
	slli	a4,s1,3
	add	a5,s5,a4
	ld	a5,0(a5)
	add	a3,s4,a4
	ld	a1,0(a3)
	slli	a5,a5,3
	.loc 1 497 21 discriminator 3
	add	s0,s3,a4
	ld	a2,0(s0)
	.loc 1 495 7 discriminator 3
	slli	a2,a2,3
	add	a1,a5,a1
	add	a0,a0,s2
	call	memcpy
.LVL26:
	.loc 1 498 7 is_stmt 1 discriminator 3
	.loc 1 498 21 is_stmt 0 discriminator 3
	ld	a5,0(s0)
	.loc 1 498 11 discriminator 3
	add	s8,s8,a5
.LVL27:
	.loc 1 494 42 is_stmt 1 discriminator 3
	.loc 1 494 43 is_stmt 0 discriminator 3
	addi	s1,s1,1
.LVL28:
.L8:
	.loc 1 494 26 is_stmt 1 discriminator 1
	.loc 1 494 5 is_stmt 0 discriminator 1
	bgtu	s7,s1,.L9
	j	.L6
.LVL29:
.L19:
	.loc 1 504 5 is_stmt 1
	lla	a0,.LC0
.LVL30:
	call	caml_invalid_argument
.LVL31:
.L13:
	.loc 1 513 9
	.loc 1 513 26 is_stmt 0
	slli	a0,s2,3
	.loc 1 513 9
	ld	a1,0(s0)
	add	a0,a0,s8
	call	caml_initialize
.LVL32:
	.loc 1 512 12 is_stmt 1
	.loc 1 512 17 is_stmt 0
	addi	s1,s1,-1
.LVL33:
	.loc 1 512 24
	addi	s0,s0,8
.LVL34:
	.loc 1 512 31
	addi	s2,s2,1
.LVL35:
.L12:
	.loc 1 511 12 is_stmt 1 discriminator 1
	.loc 1 510 7 is_stmt 0 discriminator 1
	bne	s1,zero,.L13
	.loc 1 509 42 is_stmt 1 discriminator 2
	.loc 1 509 43 is_stmt 0 discriminator 2
	addi	s9,s9,1
.LVL36:
.L11:
	.loc 1 509 26 is_stmt 1 discriminator 1
	.loc 1 509 5 is_stmt 0 discriminator 1
	bleu	s7,s9,.L20
	.loc 1 510 7 is_stmt 1
	.loc 1 510 19 is_stmt 0
	slli	a5,s9,3
	add	a4,s5,a5
	ld	s0,0(a4)
	add	a4,s4,a5
	ld	a4,0(a4)
	slli	s0,s0,3
	add	s0,s0,a4
.LVL37:
	.loc 1 510 64
	add	a5,s3,a5
	ld	s1,0(a5)
.LVL38:
	.loc 1 510 7
	j	.L12
.LVL39:
.L20:
	.loc 1 516 5 is_stmt 1
	.loc 1 520 5
	.loc 1 520 11 is_stmt 0
	mv	a0,s8
	call	caml_check_urgent_gc
.LVL40:
	mv	s2,a0
.LVL41:
	j	.L6
	.cfi_endproc
.LFE34:
	.size	caml_array_gather, .-caml_array_gather
	.align	1
	.globl	caml_array_length
	.type	caml_array_length, @function
caml_array_length:
.LFB12:
	.loc 1 34 1 is_stmt 1
	.cfi_startproc
.LVL42:
	.loc 1 40 5
	.loc 1 40 12 is_stmt 0
	ld	a0,-8(a0)
.LVL43:
	.loc 1 41 1
	srli	a0,a0,10
	ret
	.cfi_endproc
.LFE12:
	.size	caml_array_length, .-caml_array_length
	.align	1
	.globl	caml_is_double_array
	.type	caml_is_double_array, @function
caml_is_double_array:
.LFB13:
	.loc 1 44 1 is_stmt 1
	.cfi_startproc
.LVL44:
	.loc 1 45 3
	.loc 1 45 26 is_stmt 0
	lbu	a0,-8(a0)
.LVL45:
	addi	a0,a0,-254
	.loc 1 46 1
	seqz	a0,a0
	ret
	.cfi_endproc
.LFE13:
	.size	caml_is_double_array, .-caml_is_double_array
	.align	1
	.globl	caml_array_get_addr
	.type	caml_array_get_addr, @function
caml_array_get_addr:
.LFB14:
	.loc 1 55 1 is_stmt 1
	.cfi_startproc
.LVL46:
	.loc 1 56 3
	.loc 1 57 3
	.loc 1 57 6 is_stmt 0
	blt	a1,zero,.L24
	srai	a5,a1,1
.LVL47:
	.loc 1 57 25 discriminator 2
	ld	a4,-8(a0)
	srli	a4,a4,10
	.loc 1 57 15 discriminator 2
	bleu	a4,a5,.L24
	.loc 1 58 3 is_stmt 1
	.loc 1 58 10 is_stmt 0
	slli	a5,a5,3
.LVL48:
	add	a0,a5,a0
.LVL49:
	.loc 1 59 1
	ld	a0,0(a0)
	ret
.LVL50:
.L24:
	.loc 1 55 1 discriminator 3
	addi	sp,sp,-16
	.cfi_def_cfa_offset 16
	sd	ra,8(sp)
	.cfi_offset 1, -8
	.loc 1 57 44 is_stmt 1 discriminator 3
	call	caml_array_bound_error
.LVL51:
	.cfi_endproc
.LFE14:
	.size	caml_array_get_addr, .-caml_array_get_addr
	.align	1
	.globl	caml_array_get_float
	.type	caml_array_get_float, @function
caml_array_get_float:
.LFB15:
	.loc 1 63 1
	.cfi_startproc
.LVL52:
	.loc 1 64 3
	.loc 1 80 3
	.loc 1 81 3
	.loc 1 81 6 is_stmt 0
	blt	a1,zero,.L29
	srai	a5,a1,1
.LVL53:
	.loc 1 81 25 discriminator 2
	ld	a4,-8(a0)
	srli	a4,a4,10
	.loc 1 81 15 discriminator 2
	bleu	a4,a5,.L29
	.loc 1 82 3 is_stmt 1
	.loc 1 82 10 is_stmt 0
	slli	a5,a5,3
.LVL54:
	add	a0,a5,a0
.LVL55:
	.loc 1 84 1
	ld	a0,0(a0)
	ret
.LVL56:
.L29:
	.loc 1 63 1 discriminator 3
	addi	sp,sp,-16
	.cfi_def_cfa_offset 16
	sd	ra,8(sp)
	.cfi_offset 1, -8
	.loc 1 81 44 is_stmt 1 discriminator 3
	call	caml_array_bound_error
.LVL57:
	.cfi_endproc
.LFE15:
	.size	caml_array_get_float, .-caml_array_get_float
	.align	1
	.globl	caml_array_get
	.type	caml_array_get, @function
caml_array_get:
.LFB16:
	.loc 1 88 1
	.cfi_startproc
.LVL58:
	addi	sp,sp,-16
	.cfi_def_cfa_offset 16
	sd	ra,8(sp)
	.cfi_offset 1, -8
	.loc 1 93 3
	.loc 1 95 3
	.loc 1 95 10 is_stmt 0
	call	caml_array_get_addr
.LVL59:
	.loc 1 96 1
	ld	ra,8(sp)
	.cfi_restore 1
	addi	sp,sp,16
	.cfi_def_cfa_offset 0
	jr	ra
	.cfi_endproc
.LFE16:
	.size	caml_array_get, .-caml_array_get
	.align	1
	.globl	caml_floatarray_get
	.type	caml_floatarray_get, @function
caml_floatarray_get:
.LFB17:
	.loc 1 100 1 is_stmt 1
	.cfi_startproc
.LVL60:
	addi	sp,sp,-32
	.cfi_def_cfa_offset 32
	sd	ra,24(sp)
	sd	s0,16(sp)
	fsd	fs0,8(sp)
	.cfi_offset 1, -8
	.cfi_offset 8, -16
	.cfi_offset 40, -24
	.loc 1 101 3
.LVL61:
	.loc 1 102 3
	.loc 1 103 3
	.loc 1 105 3
	.loc 1 106 3
	.loc 1 106 6 is_stmt 0
	blt	a1,zero,.L36
	srai	a5,a1,1
.LVL62:
	.loc 1 106 25 discriminator 1
	ld	a4,-8(a0)
	srli	a4,a4,10
	.loc 1 106 15 discriminator 1
	bleu	a4,a5,.L36
	.loc 1 108 3 is_stmt 1
	.loc 1 108 7 is_stmt 0
	slli	a5,a5,3
.LVL63:
	add	a0,a5,a0
.LVL64:
	.loc 1 108 5
	fld	fs0,0(a0)
.LVL65:
	.loc 1 111 3 is_stmt 1
	.loc 1 111 3
	.loc 1 111 3
	.loc 1 111 3
	.loc 1 111 3
	lla	a4,caml_young_ptr
	ld	a3,0(a4)
	addi	a5,a3,-16
	sd	a5,0(a4)
	.loc 1 111 3
	ld	a4,caml_young_trigger
	bltu	a5,a4,.L40
.LVL66:
.L38:
	.loc 1 111 3 discriminator 3
	lla	a5,caml_young_ptr
	ld	a4,0(a5)
	li	a3,2045
	sd	a3,0(a4)
	.loc 1 111 3 discriminator 3
	ld	a0,0(a5)
.LVL67:
	.loc 1 111 3 discriminator 3
	.loc 1 111 3 discriminator 3
	.loc 1 114 3 discriminator 3
	fsd	fs0,8(a0)
	.loc 1 115 3 discriminator 3
	.loc 1 116 1 is_stmt 0 discriminator 3
	addi	a0,a0,8
.LVL68:
	ld	ra,24(sp)
	.cfi_remember_state
	.cfi_restore 1
	ld	s0,16(sp)
	.cfi_restore 8
	fld	fs0,8(sp)
	.cfi_restore 40
.LVL69:
	addi	sp,sp,32
	.cfi_def_cfa_offset 0
	jr	ra
.LVL70:
.L36:
	.cfi_restore_state
	.loc 1 107 5 is_stmt 1
	call	caml_array_bound_error
.LVL71:
.L40:
	.loc 1 111 3 discriminator 1
	lla	s0,caml_young_ptr
	sd	a3,0(s0)
	.loc 1 111 3 discriminator 1
	.loc 1 111 3 discriminator 1
	.loc 1 111 3 discriminator 1
	call	caml_gc_dispatch
.LVL72:
	.loc 1 111 3 discriminator 1
	.loc 1 111 3 discriminator 1
	ld	a5,0(s0)
	addi	a5,a5,-16
	sd	a5,0(s0)
	j	.L38
	.cfi_endproc
.LFE17:
	.size	caml_floatarray_get, .-caml_floatarray_get
	.align	1
	.globl	caml_array_set_addr
	.type	caml_array_set_addr, @function
caml_array_set_addr:
.LFB18:
	.loc 1 120 1
	.cfi_startproc
.LVL73:
	addi	sp,sp,-16
	.cfi_def_cfa_offset 16
	sd	ra,8(sp)
	.cfi_offset 1, -8
	.loc 1 121 3
.LVL74:
	.loc 1 122 3
	.loc 1 122 6 is_stmt 0
	blt	a1,zero,.L42
	srai	a5,a1,1
.LVL75:
	.loc 1 122 25 discriminator 2
	ld	a4,-8(a0)
	srli	a4,a4,10
	.loc 1 122 15 discriminator 2
	bleu	a4,a5,.L42
	.loc 1 123 3 is_stmt 1
	slli	a5,a5,3
.LVL76:
	mv	a1,a2
.LVL77:
	add	a0,a5,a0
.LVL78:
	call	caml_modify
.LVL79:
	.loc 1 124 3
	.loc 1 125 1 is_stmt 0
	li	a0,1
	ld	ra,8(sp)
	.cfi_remember_state
	.cfi_restore 1
	addi	sp,sp,16
	.cfi_def_cfa_offset 0
	jr	ra
.LVL80:
.L42:
	.cfi_restore_state
	.loc 1 122 44 is_stmt 1 discriminator 3
	call	caml_array_bound_error
.LVL81:
	.cfi_endproc
.LFE18:
	.size	caml_array_set_addr, .-caml_array_set_addr
	.align	1
	.globl	caml_array_set_float
	.type	caml_array_set_float, @function
caml_array_set_float:
.LFB19:
	.loc 1 129 1
	.cfi_startproc
.LVL82:
	addi	sp,sp,-16
	.cfi_def_cfa_offset 16
	sd	ra,8(sp)
	.cfi_offset 1, -8
	.loc 1 130 3
.LVL83:
	.loc 1 137 3
	.loc 1 138 3
	.loc 1 138 6 is_stmt 0
	blt	a1,zero,.L46
	srai	a5,a1,1
.LVL84:
	.loc 1 138 25 discriminator 2
	ld	a4,-8(a0)
	srli	a4,a4,10
	.loc 1 138 15 discriminator 2
	bleu	a4,a5,.L46
	.loc 1 139 3 is_stmt 1
	slli	a5,a5,3
.LVL85:
	mv	a1,a2
.LVL86:
	add	a0,a5,a0
.LVL87:
	call	caml_modify
.LVL88:
	.loc 1 141 3
	.loc 1 142 1 is_stmt 0
	li	a0,1
	ld	ra,8(sp)
	.cfi_remember_state
	.cfi_restore 1
	addi	sp,sp,16
	.cfi_def_cfa_offset 0
	jr	ra
.LVL89:
.L46:
	.cfi_restore_state
	.loc 1 138 44 is_stmt 1 discriminator 3
	call	caml_array_bound_error
.LVL90:
	.cfi_endproc
.LFE19:
	.size	caml_array_set_float, .-caml_array_set_float
	.align	1
	.globl	caml_array_set
	.type	caml_array_set, @function
caml_array_set:
.LFB20:
	.loc 1 146 1
	.cfi_startproc
.LVL91:
	addi	sp,sp,-16
	.cfi_def_cfa_offset 16
	sd	ra,8(sp)
	.cfi_offset 1, -8
	.loc 1 151 3
	.loc 1 153 3
	.loc 1 153 10 is_stmt 0
	call	caml_array_set_addr
.LVL92:
	.loc 1 154 1
	ld	ra,8(sp)
	.cfi_restore 1
	addi	sp,sp,16
	.cfi_def_cfa_offset 0
	jr	ra
	.cfi_endproc
.LFE20:
	.size	caml_array_set, .-caml_array_set
	.align	1
	.globl	caml_floatarray_set
	.type	caml_floatarray_set, @function
caml_floatarray_set:
.LFB21:
	.loc 1 158 1 is_stmt 1
	.cfi_startproc
.LVL93:
	.loc 1 159 3
	.loc 1 160 3
	.loc 1 160 10 is_stmt 0
	fld	fa5,0(a2)
.LVL94:
	.loc 1 161 3 is_stmt 1
	.loc 1 162 3
	.loc 1 162 6 is_stmt 0
	blt	a1,zero,.L52
	srai	a5,a1,1
.LVL95:
	.loc 1 162 25 discriminator 1
	ld	a4,-8(a0)
	srli	a4,a4,10
	.loc 1 162 15 discriminator 1
	bleu	a4,a5,.L52
	.loc 1 164 3 is_stmt 1
.LBB3:
	.loc 1 164 3
.LVL96:
	.loc 1 164 3
	.loc 1 164 3
	slli	a5,a5,3
.LVL97:
	add	a0,a5,a0
.LVL98:
	fsd	fa5,0(a0)
.LBE3:
	.loc 1 164 3
	.loc 1 165 3
	.loc 1 166 1 is_stmt 0
	li	a0,1
	ret
.LVL99:
.L52:
	.loc 1 158 1
	addi	sp,sp,-16
	.cfi_def_cfa_offset 16
	sd	ra,8(sp)
	.cfi_offset 1, -8
	.loc 1 163 5 is_stmt 1
	call	caml_array_bound_error
.LVL100:
	.cfi_endproc
.LFE21:
	.size	caml_floatarray_set, .-caml_floatarray_set
	.align	1
	.globl	caml_array_unsafe_get_float
	.type	caml_array_unsafe_get_float, @function
caml_array_unsafe_get_float:
.LFB22:
	.loc 1 170 1
	.cfi_startproc
.LVL101:
	.loc 1 171 3
	.loc 1 171 10 is_stmt 0
	srai	a1,a1,1
.LVL102:
	.loc 1 185 3 is_stmt 1
	.loc 1 186 3
	.loc 1 186 10 is_stmt 0
	slli	a1,a1,3
.LVL103:
	add	a1,a1,a0
	.loc 1 188 1
	ld	a0,0(a1)
.LVL104:
	ret
	.cfi_endproc
.LFE22:
	.size	caml_array_unsafe_get_float, .-caml_array_unsafe_get_float
	.align	1
	.globl	caml_array_unsafe_get
	.type	caml_array_unsafe_get, @function
caml_array_unsafe_get:
.LFB23:
	.loc 1 192 1 is_stmt 1
	.cfi_startproc
.LVL105:
	.loc 1 197 3
	.loc 1 199 3
	.loc 1 199 10 is_stmt 0
	srai	a1,a1,1
.LVL106:
	slli	a1,a1,3
	add	a1,a1,a0
	.loc 1 200 1
	ld	a0,0(a1)
.LVL107:
	ret
	.cfi_endproc
.LFE23:
	.size	caml_array_unsafe_get, .-caml_array_unsafe_get
	.align	1
	.globl	caml_floatarray_unsafe_get
	.type	caml_floatarray_unsafe_get, @function
caml_floatarray_unsafe_get:
.LFB24:
	.loc 1 204 1 is_stmt 1
	.cfi_startproc
.LVL108:
	addi	sp,sp,-32
	.cfi_def_cfa_offset 32
	sd	ra,24(sp)
	sd	s0,16(sp)
	fsd	fs0,8(sp)
	.cfi_offset 1, -8
	.cfi_offset 8, -16
	.cfi_offset 40, -24
	.loc 1 205 3
	.loc 1 205 10 is_stmt 0
	srai	a1,a1,1
.LVL109:
	.loc 1 206 3 is_stmt 1
	.loc 1 207 3
	.loc 1 209 3
	.loc 1 210 3
	.loc 1 210 7 is_stmt 0
	slli	a1,a1,3
.LVL110:
	add	a1,a1,a0
	.loc 1 210 5
	fld	fs0,0(a1)
.LVL111:
	.loc 1 213 3 is_stmt 1
	.loc 1 213 3
	.loc 1 213 3
	.loc 1 213 3
	.loc 1 213 3
	lla	a4,caml_young_ptr
	ld	a3,0(a4)
	addi	a5,a3,-16
	sd	a5,0(a4)
	.loc 1 213 3
	ld	a4,caml_young_trigger
	bltu	a5,a4,.L61
.LVL112:
.L59:
	.loc 1 213 3 discriminator 3
	lla	a5,caml_young_ptr
	ld	a4,0(a5)
	li	a3,2045
	sd	a3,0(a4)
	.loc 1 213 3 discriminator 3
	ld	a0,0(a5)
.LVL113:
	.loc 1 213 3 discriminator 3
	.loc 1 213 3 discriminator 3
	.loc 1 216 3 discriminator 3
	fsd	fs0,8(a0)
	.loc 1 217 3 discriminator 3
	.loc 1 218 1 is_stmt 0 discriminator 3
	addi	a0,a0,8
.LVL114:
	ld	ra,24(sp)
	.cfi_remember_state
	.cfi_restore 1
	ld	s0,16(sp)
	.cfi_restore 8
	fld	fs0,8(sp)
	.cfi_restore 40
.LVL115:
	addi	sp,sp,32
	.cfi_def_cfa_offset 0
	jr	ra
.LVL116:
.L61:
	.cfi_restore_state
	.loc 1 213 3 is_stmt 1 discriminator 1
	lla	s0,caml_young_ptr
	sd	a3,0(s0)
	.loc 1 213 3 discriminator 1
	.loc 1 213 3 discriminator 1
	.loc 1 213 3 discriminator 1
	call	caml_gc_dispatch
.LVL117:
	.loc 1 213 3 discriminator 1
	.loc 1 213 3 discriminator 1
	ld	a5,0(s0)
	addi	a5,a5,-16
	sd	a5,0(s0)
	j	.L59
	.cfi_endproc
.LFE24:
	.size	caml_floatarray_unsafe_get, .-caml_floatarray_unsafe_get
	.align	1
	.globl	caml_array_unsafe_set_addr
	.type	caml_array_unsafe_set_addr, @function
caml_array_unsafe_set_addr:
.LFB25:
	.loc 1 222 1
	.cfi_startproc
.LVL118:
	addi	sp,sp,-16
	.cfi_def_cfa_offset 16
	sd	ra,8(sp)
	.cfi_offset 1, -8
	.loc 1 223 3
	.loc 1 223 10 is_stmt 0
	srai	a5,a1,1
.LVL119:
	.loc 1 224 3 is_stmt 1
	slli	a5,a5,3
.LVL120:
	mv	a1,a2
.LVL121:
	add	a0,a5,a0
.LVL122:
	call	caml_modify
.LVL123:
	.loc 1 225 3
	.loc 1 226 1 is_stmt 0
	li	a0,1
	ld	ra,8(sp)
	.cfi_restore 1
	addi	sp,sp,16
	.cfi_def_cfa_offset 0
	jr	ra
	.cfi_endproc
.LFE25:
	.size	caml_array_unsafe_set_addr, .-caml_array_unsafe_set_addr
	.align	1
	.globl	caml_array_unsafe_set_float
	.type	caml_array_unsafe_set_float, @function
caml_array_unsafe_set_float:
.LFB26:
	.loc 1 230 1 is_stmt 1
	.cfi_startproc
.LVL124:
	addi	sp,sp,-16
	.cfi_def_cfa_offset 16
	sd	ra,8(sp)
	.cfi_offset 1, -8
	.loc 1 231 3
	.loc 1 231 10 is_stmt 0
	srai	a5,a1,1
.LVL125:
	.loc 1 236 3 is_stmt 1
	slli	a5,a5,3
.LVL126:
	mv	a1,a2
.LVL127:
	add	a0,a5,a0
.LVL128:
	call	caml_modify
.LVL129:
	.loc 1 238 3
	.loc 1 239 1 is_stmt 0
	li	a0,1
	ld	ra,8(sp)
	.cfi_restore 1
	addi	sp,sp,16
	.cfi_def_cfa_offset 0
	jr	ra
	.cfi_endproc
.LFE26:
	.size	caml_array_unsafe_set_float, .-caml_array_unsafe_set_float
	.align	1
	.globl	caml_array_unsafe_set
	.type	caml_array_unsafe_set, @function
caml_array_unsafe_set:
.LFB27:
	.loc 1 243 1 is_stmt 1
	.cfi_startproc
.LVL130:
	addi	sp,sp,-16
	.cfi_def_cfa_offset 16
	sd	ra,8(sp)
	.cfi_offset 1, -8
	.loc 1 248 3
	.loc 1 250 3
	.loc 1 250 10 is_stmt 0
	call	caml_array_unsafe_set_addr
.LVL131:
	.loc 1 251 1
	ld	ra,8(sp)
	.cfi_restore 1
	addi	sp,sp,16
	.cfi_def_cfa_offset 0
	jr	ra
	.cfi_endproc
.LFE27:
	.size	caml_array_unsafe_set, .-caml_array_unsafe_set
	.align	1
	.globl	caml_floatarray_unsafe_set
	.type	caml_floatarray_unsafe_set, @function
caml_floatarray_unsafe_set:
.LFB28:
	.loc 1 255 1 is_stmt 1
	.cfi_startproc
.LVL132:
	.loc 1 256 3
	.loc 1 256 10 is_stmt 0
	srai	a1,a1,1
.LVL133:
	.loc 1 257 3 is_stmt 1
	.loc 1 257 10 is_stmt 0
	fld	fa5,0(a2)
.LVL134:
	.loc 1 258 3 is_stmt 1
.LBB4:
	.loc 1 258 3
	.loc 1 258 3
	.loc 1 258 3
	slli	a1,a1,3
.LVL135:
	add	a1,a1,a0
	fsd	fa5,0(a1)
.LBE4:
	.loc 1 258 3
	.loc 1 259 3
	.loc 1 260 1 is_stmt 0
	li	a0,1
.LVL136:
	ret
	.cfi_endproc
.LFE28:
	.size	caml_floatarray_unsafe_set, .-caml_floatarray_unsafe_set
	.section	.rodata.str1.8
	.align	3
.LC1:
	.string	"Array.Floatarray.create"
	.text
	.align	1
	.globl	caml_floatarray_create
	.type	caml_floatarray_create, @function
caml_floatarray_create:
.LFB29:
	.loc 1 265 1 is_stmt 1
	.cfi_startproc
.LVL137:
	addi	sp,sp,-32
	.cfi_def_cfa_offset 32
	sd	ra,24(sp)
	sd	s0,16(sp)
	sd	s1,8(sp)
	sd	s2,0(sp)
	.cfi_offset 1, -8
	.cfi_offset 8, -16
	.cfi_offset 9, -24
	.cfi_offset 18, -32
	.loc 1 266 3
	.loc 1 266 21 is_stmt 0
	srai	s0,a0,1
.LVL138:
	.loc 1 267 3 is_stmt 1
	.loc 1 268 3
	.loc 1 268 6 is_stmt 0
	li	a5,256
	bgtu	s0,a5,.L70
	.loc 1 269 5 is_stmt 1
	.loc 1 269 8 is_stmt 0
	beq	s0,zero,.L76
	.loc 1 274 7 is_stmt 1
	.loc 1 274 7
	.loc 1 274 7
	.loc 1 274 7
	.loc 1 274 7
	slli	a5,s0,3
	li	s1,-8
	sub	s1,s1,a5
	lla	a4,caml_young_ptr
	ld	a5,0(a4)
	add	a5,a5,s1
	sd	a5,0(a4)
	.loc 1 274 7
	ld	a4,caml_young_trigger
	bltu	a5,a4,.L77
.LVL139:
.L73:
	.loc 1 274 7 discriminator 3
	slli	s0,s0,10
.LVL140:
	lla	a5,caml_young_ptr
	ld	a4,0(a5)
	addi	s0,s0,1022
	sd	s0,0(a4)
	.loc 1 274 7 discriminator 3
	ld	a0,0(a5)
	addi	a0,a0,8
.LVL141:
	.loc 1 274 7 discriminator 3
	.loc 1 274 7 discriminator 3
	j	.L69
.LVL142:
.L76:
	.loc 1 270 7
	.loc 1 270 14 is_stmt 0
	lla	a0,caml_atom_table+8
.LVL143:
	j	.L69
.LVL144:
.L77:
	.loc 1 274 7 is_stmt 1 discriminator 1
	lla	s2,caml_young_ptr
	addi	a4,s0,1
	slli	a4,a4,3
	add	a5,a5,a4
	sd	a5,0(s2)
	.loc 1 274 7 discriminator 1
	.loc 1 274 7 discriminator 1
	.loc 1 274 7 discriminator 1
	call	caml_gc_dispatch
.LVL145:
	.loc 1 274 7 discriminator 1
	.loc 1 274 7 discriminator 1
	ld	a5,0(s2)
	add	s1,a5,s1
	sd	s1,0(s2)
	j	.L73
.LVL146:
.L70:
	.loc 1 277 9
	.loc 1 277 12 is_stmt 0
	li	a5,-1
	srli	a5,a5,10
	bgtu	s0,a5,.L78
	.loc 1 280 5 is_stmt 1
	.loc 1 280 14 is_stmt 0
	li	a1,254
	mv	a0,s0
.LVL147:
	call	caml_alloc_shr
.LVL148:
	.loc 1 281 5 is_stmt 1
	.loc 1 281 14 is_stmt 0
	call	caml_check_urgent_gc
.LVL149:
.L69:
	.loc 1 284 1
	ld	ra,24(sp)
	.cfi_remember_state
	.cfi_restore 1
	ld	s0,16(sp)
	.cfi_restore 8
	ld	s1,8(sp)
	.cfi_restore 9
	ld	s2,0(sp)
	.cfi_restore 18
	addi	sp,sp,32
	.cfi_def_cfa_offset 0
	jr	ra
.LVL150:
.L78:
	.cfi_restore_state
	.loc 1 278 5 is_stmt 1
	lla	a0,.LC1
.LVL151:
	call	caml_invalid_argument
.LVL152:
	.cfi_endproc
.LFE29:
	.size	caml_floatarray_create, .-caml_floatarray_create
	.align	1
	.globl	caml_make_float_vect
	.type	caml_make_float_vect, @function
caml_make_float_vect:
.LFB30:
	.loc 1 289 1
	.cfi_startproc
.LVL153:
	addi	sp,sp,-16
	.cfi_def_cfa_offset 16
	sd	ra,8(sp)
	.cfi_offset 1, -8
	.loc 1 293 3
	.loc 1 293 10 is_stmt 0
	li	a1,0
	srai	a0,a0,1
.LVL154:
	call	caml_alloc
.LVL155:
	.loc 1 295 1
	ld	ra,8(sp)
	.cfi_restore 1
	addi	sp,sp,16
	.cfi_def_cfa_offset 0
	jr	ra
	.cfi_endproc
.LFE30:
	.size	caml_make_float_vect, .-caml_make_float_vect
	.section	.rodata.str1.8
	.align	3
.LC2:
	.string	"Array.make"
	.text
	.align	1
	.globl	caml_make_vect
	.type	caml_make_vect, @function
caml_make_vect:
.LFB31:
	.loc 1 300 1 is_stmt 1
	.cfi_startproc
.LVL156:
	addi	sp,sp,-192
	.cfi_def_cfa_offset 192
	sd	ra,184(sp)
	sd	s0,176(sp)
	sd	s1,168(sp)
	sd	s2,160(sp)
	.cfi_offset 1, -8
	.cfi_offset 8, -16
	.cfi_offset 9, -24
	.cfi_offset 18, -32
	sd	a0,8(sp)
	sd	a1,0(sp)
	.loc 1 301 3
	lla	a4,caml_local_roots
	ld	s2,0(a4)
.LVL157:
	.loc 1 301 3
	.loc 1 301 3
	sd	s2,96(sp)
	li	a5,1
	sd	a5,112(sp)
	li	a3,2
	sd	a3,104(sp)
	addi	a3,sp,8
	sd	a3,120(sp)
	sd	sp,128(sp)
.LVL158:
	.loc 1 302 3
	sd	a5,88(sp)
	.loc 1 302 3
	.loc 1 302 3
	addi	a3,sp,96
	sd	a3,24(sp)
	addi	a3,sp,24
	sd	a3,0(a4)
	sd	a5,40(sp)
	sd	a5,32(sp)
	addi	a5,sp,88
	sd	a5,48(sp)
.LVL159:
	.loc 1 303 3
	.loc 1 305 3
	.loc 1 305 10 is_stmt 0
	srai	s1,a0,1
.LVL160:
	.loc 1 306 3 is_stmt 1
	.loc 1 306 6 is_stmt 0
	bne	s1,zero,.L82
	.loc 1 307 5 is_stmt 1
	.loc 1 307 11 is_stmt 0
	lla	a5,caml_atom_table+8
	.loc 1 307 9
	sd	a5,88(sp)
.LVL161:
.L83:
	.loc 1 346 3 is_stmt 1
.LBB5:
	.loc 1 346 3
	.loc 1 346 3
	sd	s2,caml_local_roots,a5
	.loc 1 346 3
.LBE5:
	.loc 1 346 3
	.loc 1 347 1 is_stmt 0
	ld	a0,88(sp)
	ld	ra,184(sp)
	.cfi_remember_state
	.cfi_restore 1
	ld	s0,176(sp)
	.cfi_restore 8
	ld	s1,168(sp)
	.cfi_restore 9
.LVL162:
	ld	s2,160(sp)
	.cfi_restore 18
.LVL163:
	addi	sp,sp,192
	.cfi_def_cfa_offset 0
.LVL164:
	jr	ra
.LVL165:
.L82:
	.cfi_restore_state
	.loc 1 323 5 is_stmt 1
	.loc 1 323 8 is_stmt 0
	li	a5,256
	bleu	s1,a5,.L94
	.loc 1 329 10 is_stmt 1
	.loc 1 329 13 is_stmt 0
	li	a5,-1
	srli	a5,a5,10
	bgtu	s1,a5,.L95
	.loc 1 330 10 is_stmt 1
	.loc 1 330 14 is_stmt 0
	ld	a5,0(sp)
	andi	a4,a5,1
	.loc 1 330 13
	bne	a4,zero,.L88
	.loc 1 330 32 discriminator 1
	ld	a4,caml_young_end
	bgeu	a5,a4,.L88
	.loc 1 330 32 discriminator 2
	ld	a4,caml_young_start
	bgtu	a5,a4,.L96
.L88:
	.loc 1 341 7 is_stmt 1
	.loc 1 341 13 is_stmt 0
	li	a1,0
.LVL166:
	mv	a0,s1
.LVL167:
	call	caml_alloc_shr
.LVL168:
	.loc 1 341 11
	sd	a0,88(sp)
	.loc 1 342 7 is_stmt 1
.LVL169:
	.loc 1 342 14 is_stmt 0
	li	s0,0
	.loc 1 342 7
	j	.L91
.LVL170:
.L94:
.LBB6:
	.loc 1 324 7 is_stmt 1
	.loc 1 325 7
	.loc 1 325 60
	.loc 1 326 7
	.loc 1 326 13 is_stmt 0
	li	a2,0
	li	a1,0
.LVL171:
	mv	a0,s1
.LVL172:
	call	caml_alloc_small_with_my_or_given_profinfo
.LVL173:
	.loc 1 326 11
	sd	a0,88(sp)
	.loc 1 327 7 is_stmt 1
.LVL174:
	.loc 1 327 14 is_stmt 0
	li	a5,0
.LVL175:
.L85:
	.loc 1 327 19 is_stmt 1 discriminator 1
	.loc 1 327 7 is_stmt 0 discriminator 1
	bgeu	a5,s1,.L83
	.loc 1 327 34 is_stmt 1 discriminator 3
	slli	a4,a5,3
	ld	a3,88(sp)
	add	a4,a4,a3
	.loc 1 327 48 is_stmt 0 discriminator 3
	ld	a3,0(sp)
	sd	a3,0(a4)
	.loc 1 327 29 is_stmt 1 discriminator 3
	.loc 1 327 30 is_stmt 0 discriminator 3
	addi	a5,a5,1
.LVL176:
	j	.L85
.LVL177:
.L95:
.LBE6:
	.loc 1 329 33 is_stmt 1 discriminator 1
	lla	a0,.LC2
.LVL178:
	call	caml_invalid_argument
.LVL179:
.L96:
	.loc 1 333 51
	.loc 1 334 7
	call	caml_request_minor_gc
.LVL180:
	.loc 1 335 7
	call	caml_gc_dispatch
.LVL181:
	.loc 1 336 7
	.loc 1 336 13 is_stmt 0
	li	a1,0
	mv	a0,s1
	call	caml_alloc_shr
.LVL182:
	.loc 1 336 11
	sd	a0,88(sp)
	.loc 1 337 7 is_stmt 1
.LVL183:
	.loc 1 337 14 is_stmt 0
	li	a5,0
	.loc 1 337 7
	j	.L89
.LVL184:
.L90:
	.loc 1 337 34 is_stmt 1 discriminator 3
	slli	a4,a5,3
	ld	a3,88(sp)
	add	a4,a4,a3
	.loc 1 337 48 is_stmt 0 discriminator 3
	ld	a3,0(sp)
	sd	a3,0(a4)
	.loc 1 337 29 is_stmt 1 discriminator 3
	.loc 1 337 30 is_stmt 0 discriminator 3
	addi	a5,a5,1
.LVL185:
.L89:
	.loc 1 337 19 is_stmt 1 discriminator 1
	.loc 1 337 7 is_stmt 0 discriminator 1
	bltu	a5,s1,.L90
	.loc 1 338 7 is_stmt 1
	.loc 1 338 13 is_stmt 0
	ld	a0,88(sp)
	call	caml_check_urgent_gc
.LVL186:
	.loc 1 338 11
	sd	a0,88(sp)
	j	.L83
.LVL187:
.L92:
	.loc 1 342 34 is_stmt 1 discriminator 3
	.loc 1 342 51 is_stmt 0 discriminator 3
	slli	a0,s0,3
	.loc 1 342 34 discriminator 3
	ld	a1,0(sp)
	ld	a5,88(sp)
	add	a0,a0,a5
	call	caml_initialize
.LVL188:
	.loc 1 342 29 is_stmt 1 discriminator 3
	.loc 1 342 30 is_stmt 0 discriminator 3
	addi	s0,s0,1
.LVL189:
.L91:
	.loc 1 342 19 is_stmt 1 discriminator 1
	.loc 1 342 7 is_stmt 0 discriminator 1
	bltu	s0,s1,.L92
	.loc 1 343 7 is_stmt 1
	.loc 1 343 13 is_stmt 0
	ld	a0,88(sp)
	call	caml_check_urgent_gc
.LVL190:
	.loc 1 343 11
	sd	a0,88(sp)
	j	.L83
	.cfi_endproc
.LFE31:
	.size	caml_make_vect, .-caml_make_vect
	.align	1
	.globl	caml_make_array
	.type	caml_make_array, @function
caml_make_array:
.LFB32:
	.loc 1 356 1 is_stmt 1
	.cfi_startproc
.LVL191:
	.loc 1 387 3
	.loc 1 389 1 is_stmt 0
	ret
	.cfi_endproc
.LFE32:
	.size	caml_make_array, .-caml_make_array
	.align	1
	.globl	caml_array_blit
	.type	caml_array_blit, @function
caml_array_blit:
.LFB33:
	.loc 1 395 1 is_stmt 1
	.cfi_startproc
.LVL192:
	addi	sp,sp,-32
	.cfi_def_cfa_offset 32
	sd	ra,24(sp)
	sd	s0,16(sp)
	sd	s1,8(sp)
	sd	s2,0(sp)
	.cfi_offset 1, -8
	.cfi_offset 8, -16
	.cfi_offset 9, -24
	.cfi_offset 18, -32
	mv	a6,a2
	.loc 1 396 3
	.loc 1 397 3
	.loc 1 410 3
	.loc 1 411 3
	.loc 1 411 7 is_stmt 0
	ld	a5,caml_young_end
	bgeu	a2,a5,.L99
	.loc 1 411 7 discriminator 1
	ld	a5,caml_young_start
	bgtu	a2,a5,.L108
.L99:
	.loc 1 423 3 is_stmt 1
	.loc 1 423 9 is_stmt 0
	srai	s0,a4,1
.LVL193:
	.loc 1 424 3 is_stmt 1
	.loc 1 424 6 is_stmt 0
	beq	a6,a0,.L109
.LVL194:
.L101:
	.loc 1 434 5 is_stmt 1
	.loc 1 434 17 is_stmt 0
	srai	s1,a3,1
	slli	s1,s1,3
	add	s1,s1,a6
.LVL195:
	.loc 1 434 51
	srai	s2,a1,1
	slli	s2,s2,3
	add	s2,s2,a0
.LVL196:
.L105:
	.loc 1 435 10 is_stmt 1 discriminator 1
	.loc 1 434 5 is_stmt 0 discriminator 1
	ble	s0,zero,.L104
	.loc 1 437 7 is_stmt 1
	ld	a1,0(s2)
	mv	a0,s1
	call	caml_modify
.LVL197:
	.loc 1 436 10
	.loc 1 436 15 is_stmt 0
	addi	s0,s0,-1
.LVL198:
	.loc 1 436 22
	addi	s2,s2,8
.LVL199:
	.loc 1 436 29
	addi	s1,s1,8
.LVL200:
	j	.L105
.LVL201:
.L108:
	.loc 1 416 5 is_stmt 1
	.loc 1 416 14 is_stmt 0
	srai	a5,a3,1
	slli	a5,a5,3
	.loc 1 417 14
	srai	a1,a1,1
.LVL202:
	slli	a1,a1,3
	.loc 1 418 13
	srai	a4,a4,1
.LVL203:
	.loc 1 416 5
	slli	a2,a4,3
.LVL204:
	add	a1,a1,a0
	add	a0,a5,a6
.LVL205:
	call	memmove
.LVL206:
	.loc 1 419 5 is_stmt 1
	.loc 1 419 12 is_stmt 0
	j	.L100
.LVL207:
.L109:
	.loc 1 424 19 discriminator 1
	srai	a5,a1,1
	.loc 1 424 36 discriminator 1
	srai	a4,a3,1
.LVL208:
	.loc 1 424 16 discriminator 1
	bge	a5,a4,.L101
	.loc 1 426 5 is_stmt 1
	.loc 1 426 17 is_stmt 0
	add	a4,a4,s0
	slli	s1,a4,3
	add	s1,s1,a6
	addi	s1,s1,-8
.LVL209:
	.loc 1 427 19
	add	a5,a5,s0
	slli	a5,a5,3
	add	s2,a5,a0
	addi	s2,s2,-8
.LVL210:
	.loc 1 426 5
	j	.L102
.LVL211:
.L103:
	.loc 1 430 7 is_stmt 1
	ld	a1,0(s2)
	mv	a0,s1
	call	caml_modify
.LVL212:
	.loc 1 429 10
	.loc 1 429 15 is_stmt 0
	addi	s0,s0,-1
.LVL213:
	.loc 1 429 22
	addi	s2,s2,-8
.LVL214:
	.loc 1 429 29
	addi	s1,s1,-8
.LVL215:
.L102:
	.loc 1 428 10 is_stmt 1
	.loc 1 426 5 is_stmt 0
	bgt	s0,zero,.L103
.L104:
	.loc 1 442 3 is_stmt 1
	li	a0,1
	call	caml_check_urgent_gc
.LVL216:
	.loc 1 443 3
.L100:
	.loc 1 444 1 is_stmt 0
	li	a0,1
	ld	ra,24(sp)
	.cfi_restore 1
	ld	s0,16(sp)
	.cfi_restore 8
	ld	s1,8(sp)
	.cfi_restore 9
	ld	s2,0(sp)
	.cfi_restore 18
	addi	sp,sp,32
	.cfi_def_cfa_offset 0
	jr	ra
	.cfi_endproc
.LFE33:
	.size	caml_array_blit, .-caml_array_blit
	.align	1
	.globl	caml_array_sub
	.type	caml_array_sub, @function
caml_array_sub:
.LFB35:
	.loc 1 526 1 is_stmt 1
	.cfi_startproc
.LVL217:
	addi	sp,sp,-48
	.cfi_def_cfa_offset 48
	sd	ra,40(sp)
	.cfi_offset 1, -8
	.loc 1 527 3
	.loc 1 527 9 is_stmt 0
	sd	a0,24(sp)
	.loc 1 528 3 is_stmt 1
	.loc 1 528 25 is_stmt 0
	srai	a1,a1,1
.LVL218:
	.loc 1 528 10
	sd	a1,16(sp)
	.loc 1 529 3 is_stmt 1
	.loc 1 529 25 is_stmt 0
	srai	a2,a2,1
.LVL219:
	.loc 1 529 10
	sd	a2,8(sp)
	.loc 1 530 3 is_stmt 1
	.loc 1 530 10 is_stmt 0
	addi	a3,sp,8
	addi	a2,sp,16
	addi	a1,sp,24
	li	a0,1
.LVL220:
	call	caml_array_gather
.LVL221:
	.loc 1 531 1
	ld	ra,40(sp)
	.cfi_restore 1
	addi	sp,sp,48
	.cfi_def_cfa_offset 0
	jr	ra
	.cfi_endproc
.LFE35:
	.size	caml_array_sub, .-caml_array_sub
	.align	1
	.globl	caml_array_append
	.type	caml_array_append, @function
caml_array_append:
.LFB36:
	.loc 1 534 1 is_stmt 1
	.cfi_startproc
.LVL222:
	addi	sp,sp,-64
	.cfi_def_cfa_offset 64
	sd	ra,56(sp)
	sd	s0,48(sp)
	.cfi_offset 1, -8
	.cfi_offset 8, -16
	mv	s0,a1
	.loc 1 535 3
	.loc 1 535 9 is_stmt 0
	sd	a0,32(sp)
	sd	a1,40(sp)
	.loc 1 536 3 is_stmt 1
	.loc 1 536 10 is_stmt 0
	sd	zero,16(sp)
	sd	zero,24(sp)
	.loc 1 537 3 is_stmt 1
	.loc 1 537 25 is_stmt 0
	call	caml_array_length
.LVL223:
	.loc 1 537 10
	sd	a0,0(sp)
	.loc 1 537 48
	mv	a0,s0
	call	caml_array_length
.LVL224:
	.loc 1 537 10
	sd	a0,8(sp)
	.loc 1 538 3 is_stmt 1
	.loc 1 538 10 is_stmt 0
	mv	a3,sp
	addi	a2,sp,16
	addi	a1,sp,32
	li	a0,2
	call	caml_array_gather
.LVL225:
	.loc 1 539 1
	ld	ra,56(sp)
	.cfi_restore 1
	ld	s0,48(sp)
	.cfi_restore 8
.LVL226:
	addi	sp,sp,64
	.cfi_def_cfa_offset 0
	jr	ra
	.cfi_endproc
.LFE36:
	.size	caml_array_append, .-caml_array_append
	.align	1
	.globl	caml_array_concat
	.type	caml_array_concat, @function
caml_array_concat:
.LFB37:
	.loc 1 542 1 is_stmt 1
	.cfi_startproc
.LVL227:
	addi	sp,sp,-448
	.cfi_def_cfa_offset 448
	sd	ra,440(sp)
	sd	s0,432(sp)
	sd	s1,424(sp)
	sd	s2,416(sp)
	sd	s3,408(sp)
	sd	s4,400(sp)
	sd	s5,392(sp)
	sd	s6,384(sp)
	.cfi_offset 1, -8
	.cfi_offset 8, -16
	.cfi_offset 9, -24
	.cfi_offset 18, -32
	.cfi_offset 19, -40
	.cfi_offset 20, -48
	.cfi_offset 21, -56
	.cfi_offset 22, -64
	mv	s1,a0
	.loc 1 544 3
	.loc 1 545 3
	.loc 1 546 3
	.loc 1 547 3
	.loc 1 548 3
	.loc 1 551 3
.LVL228:
	.loc 1 551 17 is_stmt 0
	mv	a5,a0
	.loc 1 551 10
	li	s3,0
.LVL229:
.L115:
	.loc 1 551 23 is_stmt 1 discriminator 1
	.loc 1 551 3 is_stmt 0 discriminator 1
	li	a4,1
	beq	a5,a4,.L124
	.loc 1 551 57 is_stmt 1 discriminator 3
	.loc 1 551 58 is_stmt 0 discriminator 3
	addi	s3,s3,1
.LVL230:
	.loc 1 551 40 is_stmt 1 discriminator 3
	.loc 1 551 42 is_stmt 0 discriminator 3
	ld	a5,8(a5)
.LVL231:
	j	.L115
.L124:
	.loc 1 553 3 is_stmt 1
	.loc 1 553 6 is_stmt 0
	li	a5,16
.LVL232:
	bgt	s3,a5,.L125
	.loc 1 556 13
	mv	s5,sp
	.loc 1 555 13
	addi	s4,sp,128
	.loc 1 554 12
	addi	s6,sp,256
.L117:
.LVL233:
	.loc 1 572 3 is_stmt 1
	.loc 1 572 10 is_stmt 0
	li	s2,0
.LVL234:
.L119:
	.loc 1 572 23 is_stmt 1 discriminator 1
	.loc 1 572 3 is_stmt 0 discriminator 1
	li	a5,1
	beq	s1,a5,.L126
	.loc 1 573 5 is_stmt 1 discriminator 3
	.loc 1 573 11 is_stmt 0 discriminator 3
	slli	s0,s2,3
	add	a5,s6,s0
	.loc 1 573 17 discriminator 3
	ld	a4,0(s1)
	.loc 1 573 15 discriminator 3
	sd	a4,0(a5)
	.loc 1 574 5 is_stmt 1 discriminator 3
	.loc 1 574 12 is_stmt 0 discriminator 3
	add	a5,s4,s0
	.loc 1 574 16 discriminator 3
	sd	zero,0(a5)
	.loc 1 575 5 is_stmt 1 discriminator 3
	.loc 1 575 18 is_stmt 0 discriminator 3
	ld	a0,0(s1)
	call	caml_array_length
.LVL235:
	.loc 1 575 12 discriminator 3
	add	s0,s5,s0
	.loc 1 575 16 discriminator 3
	sd	a0,0(s0)
	.loc 1 572 40 is_stmt 1 discriminator 3
	.loc 1 572 42 is_stmt 0 discriminator 3
	ld	s1,8(s1)
.LVL236:
	.loc 1 572 58 discriminator 3
	addi	s2,s2,1
.LVL237:
	j	.L119
.LVL238:
.L125:
	.loc 1 558 5 is_stmt 1
	.loc 1 558 14 is_stmt 0
	slli	s0,s3,3
	mv	a0,s0
	call	caml_stat_alloc
.LVL239:
	mv	s6,a0
.LVL240:
	.loc 1 559 5 is_stmt 1
	.loc 1 559 15 is_stmt 0
	mv	a0,s0
.LVL241:
	call	caml_stat_alloc_noexc
.LVL242:
	mv	s4,a0
.LVL243:
	.loc 1 560 5 is_stmt 1
	.loc 1 560 8 is_stmt 0
	beq	a0,zero,.L127
	.loc 1 564 5 is_stmt 1
	.loc 1 564 15 is_stmt 0
	mv	a0,s0
.LVL244:
	call	caml_stat_alloc_noexc
.LVL245:
	mv	s5,a0
.LVL246:
	.loc 1 565 5 is_stmt 1
	.loc 1 565 8 is_stmt 0
	bne	a0,zero,.L117
	.loc 1 566 7 is_stmt 1
	mv	a0,s4
.LVL247:
	call	caml_stat_free
.LVL248:
	.loc 1 567 7
	mv	a0,s6
	call	caml_stat_free
.LVL249:
	.loc 1 568 7
	call	caml_raise_out_of_memory
.LVL250:
.L127:
	.loc 1 561 7
	mv	a0,s6
.LVL251:
	call	caml_stat_free
.LVL252:
	.loc 1 562 7
	call	caml_raise_out_of_memory
.LVL253:
.L126:
	.loc 1 578 3
	.loc 1 578 9 is_stmt 0
	mv	a3,s5
	mv	a2,s4
	mv	a1,s6
	mv	a0,s3
	call	caml_array_gather
.LVL254:
	mv	s0,a0
.LVL255:
	.loc 1 580 3 is_stmt 1
	.loc 1 580 6 is_stmt 0
	li	a5,16
	bgt	s3,a5,.L128
.L114:
	.loc 1 586 1
	mv	a0,s0
	ld	ra,440(sp)
	.cfi_remember_state
	.cfi_restore 1
	ld	s0,432(sp)
	.cfi_restore 8
.LVL256:
	ld	s1,424(sp)
	.cfi_restore 9
.LVL257:
	ld	s2,416(sp)
	.cfi_restore 18
.LVL258:
	ld	s3,408(sp)
	.cfi_restore 19
.LVL259:
	ld	s4,400(sp)
	.cfi_restore 20
.LVL260:
	ld	s5,392(sp)
	.cfi_restore 21
.LVL261:
	ld	s6,384(sp)
	.cfi_restore 22
.LVL262:
	addi	sp,sp,448
	.cfi_def_cfa_offset 0
	jr	ra
.LVL263:
.L128:
	.cfi_restore_state
	.loc 1 581 5 is_stmt 1
	mv	a0,s6
	call	caml_stat_free
.LVL264:
	.loc 1 582 5
	mv	a0,s4
	call	caml_stat_free
.LVL265:
	.loc 1 583 5
	mv	a0,s5
	call	caml_stat_free
.LVL266:
	.loc 1 585 3
	.loc 1 585 10 is_stmt 0
	j	.L114
	.cfi_endproc
.LFE37:
	.size	caml_array_concat, .-caml_array_concat
	.comm	caml_major_work_credit,8,8
	.comm	caml_major_ring_index,4,4
	.comm	caml_major_ring,400,8
.Letext0:
	.file 2 "/home/sai/Shakti-TEE-Build/riscv/lib/gcc/riscv64-unknown-elf/9.2.0/include/stddef.h"
	.file 3 "caml/config.h"
	.file 4 "caml/misc.h"
	.file 5 "caml/mlvalues.h"
	.file 6 "/home/sai/ocaml-freestanding-riscv/nolibc/include/signal.h"
	.file 7 "caml/fail.h"
	.file 8 "caml/freelist.h"
	.file 9 "caml/major_gc.h"
	.file 10 "caml/address_class.h"
	.file 11 "caml/minor_gc.h"
	.file 12 "caml/memory.h"
	.file 13 "caml/signals.h"
	.file 14 "caml/io.h"
	.file 15 "caml/stack.h"
	.file 16 "caml/spacetime.h"
	.file 17 "caml/alloc.h"
	.file 18 "/home/sai/ocaml-freestanding-riscv/nolibc/include/string.h"
	.file 19 "<built-in>"