	.file	"callback.c"
	.option nopic
	.attribute arch, "rv64i2p0_m2p0_a2p0_f2p0_d2p0_c2p0"
	.attribute unaligned_access, 0
	.attribute stack_align, 16
	.text
.Ltext0:
	.cfi_sections	.debug_frame
	.align	1
	.type	hash_value_name, @function
hash_value_name:
.LFB13:
	.file 1 "callback.c"
	.loc 1 213 1
	.cfi_startproc
.LVL0:
	.loc 1 214 3
	.loc 1 215 3
	.loc 1 215 10 is_stmt 0
	li	a5,0
.LVL1:
.L2:
	.loc 1 215 15 is_stmt 1 discriminator 1
	lbu	a3,0(a0)
	.loc 1 215 3 is_stmt 0 discriminator 1
	beq	a3,zero,.L4
	.loc 1 215 35 is_stmt 1 discriminator 3
	.loc 1 215 41 is_stmt 0 discriminator 3
	slliw	a4,a5,2
	addw	a4,a4,a5
	slliw	a4,a4,2
	subw	a5,a4,a5
.LVL2:
	.loc 1 215 37 discriminator 3
	addw	a5,a5,a3
	.loc 1 215 27 is_stmt 1 discriminator 3
	.loc 1 215 31 is_stmt 0 discriminator 3
	addi	a0,a0,1
.LVL3:
	j	.L2
.LVL4:
.L4:
	.loc 1 216 3 is_stmt 1
	.loc 1 217 1 is_stmt 0
	li	a0,13
.LVL5:
	remuw	a0,a5,a0
	ret
	.cfi_endproc
.LFE13:
	.size	hash_value_name, .-hash_value_name
	.align	1
	.globl	caml_callbackN_exn
	.type	caml_callbackN_exn, @function
caml_callbackN_exn:
.LFB8:
	.loc 1 137 1 is_stmt 1
	.cfi_startproc
.LVL6:
	addi	sp,sp,-272
	.cfi_def_cfa_offset 272
	sd	ra,264(sp)
	sd	s0,256(sp)
	sd	s1,248(sp)
	sd	s2,240(sp)
	sd	s3,232(sp)
	.cfi_offset 1, -8
	.cfi_offset 8, -16
	.cfi_offset 9, -24
	.cfi_offset 18, -32
	.cfi_offset 19, -40
	sd	a0,8(sp)
	mv	s1,a1
	mv	s2,a2
	.loc 1 138 3
	lla	a4,caml_local_roots
	ld	s3,0(a4)
.LVL7:
	.loc 1 138 3
	.loc 1 138 3
	sd	s3,160(sp)
	li	a5,1
	sd	a5,176(sp)
	sd	a5,168(sp)
	addi	a3,sp,8
	sd	a3,184(sp)
.LVL8:
	.loc 1 139 3
	.loc 1 139 3
	addi	a3,sp,160
	sd	a3,96(sp)
	sd	a1,112(sp)
	sd	a5,104(sp)
	sd	a2,120(sp)
.LVL9:
	.loc 1 140 3
	.loc 1 140 3
	.loc 1 140 3
	addi	a3,sp,96
	sd	a3,24(sp)
	addi	a3,sp,24
	sd	a3,0(a4)
	sd	a5,40(sp)
	sd	a5,32(sp)
	addi	a5,sp,88
	sd	a5,48(sp)
.LVL10:
	.loc 1 141 3
	.loc 1 143 3
	.loc 1 143 7 is_stmt 0
	sd	a0,88(sp)
	.loc 1 144 3 is_stmt 1
.LVL11:
	.loc 1 144 10 is_stmt 0
	li	s0,0
	.loc 1 144 3
	j	.L6
.LVL12:
.L7:
	.loc 1 148 7 is_stmt 1
	.loc 1 148 40 is_stmt 0
	slli	a5,s0,3
	add	a5,s2,a5
	.loc 1 148 13
	ld	a1,0(a5)
	ld	a0,88(sp)
	call	caml_callback_exn
.LVL13:
	.loc 1 148 11
	sd	a0,88(sp)
	.loc 1 149 7 is_stmt 1
	.loc 1 149 11 is_stmt 0
	andi	a4,a0,3
	.loc 1 149 10
	li	a5,2
	beq	a4,a5,.L18
	.loc 1 149 37 is_stmt 1 discriminator 2
	.loc 1 150 7 discriminator 2
	.loc 1 150 9 is_stmt 0 discriminator 2
	addiw	s0,s0,1
.LVL14:
	.loc 1 151 7 is_stmt 1 discriminator 2
.L6:
	.loc 1 144 15 discriminator 1
	.loc 1 144 3 is_stmt 0 discriminator 1
	bge	s0,s1,.L19
	.loc 1 146 5 is_stmt 1
	.loc 1 146 18 is_stmt 0
	subw	a5,s1,s0
	.loc 1 146 5
	li	a4,1
	beq	a5,a4,.L7
	li	a4,2
	beq	a5,a4,.L8
	.loc 1 158 7 is_stmt 1
	.loc 1 158 41 is_stmt 0
	slli	a1,s0,3
	add	a1,s2,a1
	.loc 1 158 50
	addi	a5,s0,1
	slli	a5,a5,3
	add	a5,s2,a5
	.loc 1 158 63
	addi	a4,s0,2
	slli	a4,a4,3
	add	a4,s2,a4
	.loc 1 158 13
	ld	a3,0(a4)
	ld	a2,0(a5)
	ld	a1,0(a1)
	ld	a0,88(sp)
	call	caml_callback3_exn
.LVL15:
	.loc 1 158 11
	sd	a0,88(sp)
	.loc 1 159 7 is_stmt 1
	.loc 1 159 11 is_stmt 0
	andi	a4,a0,3
	.loc 1 159 10
	li	a5,2
	beq	a4,a5,.L20
	.loc 1 159 37 is_stmt 1 discriminator 2
	.loc 1 160 7 discriminator 2
	.loc 1 160 9 is_stmt 0 discriminator 2
	addiw	s0,s0,3
.LVL16:
	.loc 1 161 7 is_stmt 1 discriminator 2
	j	.L6
.LVL17:
.L18:
	.loc 1 149 37 discriminator 1
.LBB2:
	.loc 1 149 37 discriminator 1
	.loc 1 149 37 discriminator 1
	sd	s3,caml_local_roots,a5
	.loc 1 149 37 discriminator 1
	j	.L5
.LVL18:
.L8:
.LBE2:
	.loc 1 153 7
	.loc 1 153 41 is_stmt 0
	slli	a4,s0,3
	add	a4,s2,a4
	.loc 1 153 50
	addi	a5,s0,1
	slli	a5,a5,3
	add	a5,s2,a5
	.loc 1 153 13
	ld	a2,0(a5)
	ld	a1,0(a4)
	ld	a0,88(sp)
	call	caml_callback2_exn
.LVL19:
	.loc 1 153 11
	sd	a0,88(sp)
	.loc 1 154 7 is_stmt 1
	.loc 1 154 11 is_stmt 0
	andi	a4,a0,3
	.loc 1 154 10
	li	a5,2
	beq	a4,a5,.L21
	.loc 1 154 37 is_stmt 1 discriminator 2
	.loc 1 155 7 discriminator 2
	.loc 1 155 9 is_stmt 0 discriminator 2
	addiw	s0,s0,2
.LVL20:
	.loc 1 156 7 is_stmt 1 discriminator 2
	j	.L6
.LVL21:
.L21:
	.loc 1 154 37 discriminator 1
.LBB3:
	.loc 1 154 37 discriminator 1
	.loc 1 154 37 discriminator 1
	sd	s3,caml_local_roots,a5
	.loc 1 154 37 discriminator 1
	j	.L5
.LVL22:
.L20:
.LBE3:
	.loc 1 159 37 discriminator 1
.LBB4:
	.loc 1 159 37 discriminator 1
	.loc 1 159 37 discriminator 1
	sd	s3,caml_local_roots,a5
	.loc 1 159 37 discriminator 1
	j	.L5
.LVL23:
.L19:
.LBE4:
	.loc 1 164 3
.LBB5:
	.loc 1 164 3
	ld	a0,88(sp)
.LVL24:
	.loc 1 164 3
	sd	s3,caml_local_roots,a5
	.loc 1 164 3
.LBE5:
	.loc 1 164 3
.LVL25:
.L5:
	.loc 1 165 1 is_stmt 0
	ld	ra,264(sp)
	.cfi_restore 1
	ld	s0,256(sp)
	.cfi_restore 8
.LVL26:
	ld	s1,248(sp)
	.cfi_restore 9
	ld	s2,240(sp)
	.cfi_restore 18
.LVL27:
	ld	s3,232(sp)
	.cfi_restore 19
.LVL28:
	addi	sp,sp,272
	.cfi_def_cfa_offset 0
	jr	ra
	.cfi_endproc
.LFE8:
	.size	caml_callbackN_exn, .-caml_callbackN_exn
	.align	1
	.globl	caml_callback
	.type	caml_callback, @function
caml_callback:
.LFB9:
	.loc 1 172 1 is_stmt 1
	.cfi_startproc
.LVL29:
	addi	sp,sp,-16
	.cfi_def_cfa_offset 16
	sd	ra,8(sp)
	.cfi_offset 1, -8
	.loc 1 173 3
	.loc 1 173 15 is_stmt 0
	call	caml_callback_exn
.LVL30:
	.loc 1 174 3 is_stmt 1
	.loc 1 174 7 is_stmt 0
	andi	a4,a0,3
	.loc 1 174 6
	li	a5,2
	beq	a4,a5,.L25
	.loc 1 176 1
	ld	ra,8(sp)
	.cfi_remember_state
	.cfi_restore 1
	addi	sp,sp,16
	.cfi_def_cfa_offset 0
	jr	ra
.L25:
	.cfi_restore_state
	.loc 1 174 33 is_stmt 1 discriminator 1
	andi	a0,a0,-4
.LVL31:
	call	caml_raise
.LVL32:
	.cfi_endproc
.LFE9:
	.size	caml_callback, .-caml_callback
	.align	1
	.globl	caml_callback2
	.type	caml_callback2, @function
caml_callback2:
.LFB10:
	.loc 1 179 1
	.cfi_startproc
.LVL33:
	addi	sp,sp,-16
	.cfi_def_cfa_offset 16
	sd	ra,8(sp)
	.cfi_offset 1, -8
	.loc 1 180 3
	.loc 1 180 15 is_stmt 0
	call	caml_callback2_exn
.LVL34:
	.loc 1 181 3 is_stmt 1
	.loc 1 181 7 is_stmt 0
	andi	a4,a0,3
	.loc 1 181 6
	li	a5,2
	beq	a4,a5,.L29
	.loc 1 183 1
	ld	ra,8(sp)
	.cfi_remember_state
	.cfi_restore 1
	addi	sp,sp,16
	.cfi_def_cfa_offset 0
	jr	ra
.L29:
	.cfi_restore_state
	.loc 1 181 33 is_stmt 1 discriminator 1
	andi	a0,a0,-4
.LVL35:
	call	caml_raise
.LVL36:
	.cfi_endproc
.LFE10:
	.size	caml_callback2, .-caml_callback2
	.align	1
	.globl	caml_callback3
	.type	caml_callback3, @function
caml_callback3:
.LFB11:
	.loc 1 187 1
	.cfi_startproc
.LVL37:
	addi	sp,sp,-16
	.cfi_def_cfa_offset 16
	sd	ra,8(sp)
	.cfi_offset 1, -8
	.loc 1 188 3
	.loc 1 188 15 is_stmt 0
	call	caml_callback3_exn
.LVL38:
	.loc 1 189 3 is_stmt 1
	.loc 1 189 7 is_stmt 0
	andi	a4,a0,3
	.loc 1 189 6
	li	a5,2
	beq	a4,a5,.L33
	.loc 1 191 1
	ld	ra,8(sp)
	.cfi_remember_state
	.cfi_restore 1
	addi	sp,sp,16
	.cfi_def_cfa_offset 0
	jr	ra
.L33:
	.cfi_restore_state
	.loc 1 189 33 is_stmt 1 discriminator 1
	andi	a0,a0,-4
.LVL39:
	call	caml_raise
.LVL40:
	.cfi_endproc
.LFE11:
	.size	caml_callback3, .-caml_callback3
	.align	1
	.globl	caml_callbackN
	.type	caml_callbackN, @function
caml_callbackN:
.LFB12:
	.loc 1 194 1
	.cfi_startproc
.LVL41:
	addi	sp,sp,-16
	.cfi_def_cfa_offset 16
	sd	ra,8(sp)
	.cfi_offset 1, -8
	.loc 1 195 3
	.loc 1 195 15 is_stmt 0
	call	caml_callbackN_exn
.LVL42:
	.loc 1 196 3 is_stmt 1
	.loc 1 196 7 is_stmt 0
	andi	a4,a0,3
	.loc 1 196 6
	li	a5,2
	beq	a4,a5,.L37
	.loc 1 198 1
	ld	ra,8(sp)
	.cfi_remember_state
	.cfi_restore 1
	addi	sp,sp,16
	.cfi_def_cfa_offset 0
	jr	ra
.L37:
	.cfi_restore_state
	.loc 1 196 33 is_stmt 1 discriminator 1
	andi	a0,a0,-4
.LVL43:
	call	caml_raise
.LVL44:
	.cfi_endproc
.LFE12:
	.size	caml_callbackN, .-caml_callbackN
	.align	1
	.globl	caml_register_named_value
	.type	caml_register_named_value, @function
caml_register_named_value:
.LFB14:
	.loc 1 220 1
	.cfi_startproc
.LVL45:
	addi	sp,sp,-64
	.cfi_def_cfa_offset 64
	sd	ra,56(sp)
	sd	s0,48(sp)
	sd	s1,40(sp)
	sd	s2,32(sp)
	sd	s3,24(sp)
	sd	s4,16(sp)
	sd	s5,8(sp)
	.cfi_offset 1, -8
	.cfi_offset 8, -16
	.cfi_offset 9, -24
	.cfi_offset 18, -32
	.cfi_offset 19, -40
	.cfi_offset 20, -48
	.cfi_offset 21, -56
	mv	s2,a0
	mv	s4,a1
	.loc 1 221 3
	.loc 1 222 3
	.loc 1 222 16 is_stmt 0
	mv	s1,a0
.LVL46:
	.loc 1 223 3 is_stmt 1
	.loc 1 223 20 is_stmt 0
	call	strlen
.LVL47:
	mv	s3,a0
.LVL48:
	.loc 1 224 3 is_stmt 1
	.loc 1 224 20 is_stmt 0
	mv	a0,s2
.LVL49:
	call	hash_value_name
.LVL50:
	sext.w	s5,a0
.LVL51:
	.loc 1 226 3 is_stmt 1
	.loc 1 226 11 is_stmt 0
	slli	a5,a0,32
	srli	a5,a5,32
	slli	a5,a5,3
	lla	a0,.LANCHOR0
	add	a5,a0,a5
	ld	s0,0(a5)
.LVL52:
.L39:
	.loc 1 226 35 is_stmt 1 discriminator 1
	.loc 1 226 3 is_stmt 0 discriminator 1
	beq	s0,zero,.L44
	.loc 1 227 5 is_stmt 1
	.loc 1 227 9 is_stmt 0
	addi	a1,s0,16
	mv	a0,s1
	call	strcmp
.LVL53:
	.loc 1 227 8
	beq	a0,zero,.L45
	.loc 1 226 47 is_stmt 1 discriminator 2
	.loc 1 226 50 is_stmt 0 discriminator 2
	ld	s0,8(s0)
.LVL54:
	j	.L39
.L45:
	.loc 1 228 7 is_stmt 1
	.loc 1 228 15 is_stmt 0
	sd	s4,0(s0)
	.loc 1 229 7 is_stmt 1
	.loc 1 229 14 is_stmt 0
	j	.L41
.L44:
	.loc 1 232 3 is_stmt 1
	.loc 1 233 11 is_stmt 0
	addi	a0,s3,24
	call	caml_stat_alloc
.LVL55:
	mv	s0,a0
.LVL56:
	.loc 1 234 3 is_stmt 1
	addi	a2,s3,1
	mv	a1,s2
	addi	a0,a0,16
	call	memcpy
.LVL57:
	.loc 1 235 3
	.loc 1 235 11 is_stmt 0
	sd	s4,0(s0)
	.loc 1 236 3 is_stmt 1
	.loc 1 236 31 is_stmt 0
	slli	s5,s5,32
.LVL58:
	srli	s5,s5,32
	slli	s5,s5,3
	lla	a5,.LANCHOR0
	add	s5,a5,s5
	ld	a5,0(s5)
	.loc 1 236 12
	sd	a5,8(s0)
	.loc 1 237 3 is_stmt 1
	.loc 1 237 24 is_stmt 0
	sd	s0,0(s5)
	.loc 1 238 3 is_stmt 1
	mv	a0,s0
	call	caml_register_global_root
.LVL59:
	.loc 1 239 3
.L41:
	.loc 1 240 1 is_stmt 0
	li	a0,1
	ld	ra,56(sp)
	.cfi_restore 1
	ld	s0,48(sp)
	.cfi_restore 8
.LVL60:
	ld	s1,40(sp)
	.cfi_restore 9
.LVL61:
	ld	s2,32(sp)
	.cfi_restore 18
.LVL62:
	ld	s3,24(sp)
	.cfi_restore 19
.LVL63:
	ld	s4,16(sp)
	.cfi_restore 20
.LVL64:
	ld	s5,8(sp)
	.cfi_restore 21
	addi	sp,sp,64
	.cfi_def_cfa_offset 0
	jr	ra
	.cfi_endproc
.LFE14:
	.size	caml_register_named_value, .-caml_register_named_value
	.align	1
	.globl	caml_named_value
	.type	caml_named_value, @function
caml_named_value:
.LFB15:
	.loc 1 243 1 is_stmt 1
	.cfi_startproc
.LVL65:
	addi	sp,sp,-32
	.cfi_def_cfa_offset 32
	sd	ra,24(sp)
	sd	s0,16(sp)
	sd	s1,8(sp)
	.cfi_offset 1, -8
	.cfi_offset 8, -16
	.cfi_offset 9, -24
	mv	s1,a0
	.loc 1 244 3
	.loc 1 245 3
	.loc 1 245 31 is_stmt 0
	call	hash_value_name
.LVL66:
	.loc 1 245 11
	slli	a0,a0,32
	srli	a0,a0,32
	slli	a0,a0,3
	lla	a5,.LANCHOR0
	add	a0,a5,a0
	ld	s0,0(a0)
.LVL67:
.L47:
	.loc 1 246 8 is_stmt 1 discriminator 1
	.loc 1 245 3 is_stmt 0 discriminator 1
	beq	s0,zero,.L46
	.loc 1 248 5 is_stmt 1
	.loc 1 248 9 is_stmt 0
	addi	a1,s0,16
	mv	a0,s1
	call	strcmp
.LVL68:
	.loc 1 248 8
	beq	a0,zero,.L46
	.loc 1 247 8 is_stmt 1
	.loc 1 247 11 is_stmt 0
	ld	s0,8(s0)
.LVL69:
	j	.L47
.L46:
	.loc 1 251 1
	mv	a0,s0
	ld	ra,24(sp)
	.cfi_restore 1
	ld	s0,16(sp)
	.cfi_restore 8
.LVL70:
	ld	s1,8(sp)
	.cfi_restore 9
.LVL71:
	addi	sp,sp,32
	.cfi_def_cfa_offset 0
	jr	ra
	.cfi_endproc
.LFE15:
	.size	caml_named_value, .-caml_named_value
	.align	1
	.globl	caml_iterate_named_values
	.type	caml_iterate_named_values, @function
caml_iterate_named_values:
.LFB16:
	.loc 1 254 1 is_stmt 1
	.cfi_startproc
.LVL72:
	addi	sp,sp,-32
	.cfi_def_cfa_offset 32
	sd	ra,24(sp)
	sd	s0,16(sp)
	sd	s1,8(sp)
	sd	s2,0(sp)
	.cfi_offset 1, -8
	.cfi_offset 8, -16
	.cfi_offset 9, -24
	.cfi_offset 18, -32
	mv	s1,a0
	.loc 1 255 3
	.loc 1 256 3
.LVL73:
	.loc 1 256 9 is_stmt 0
	li	s2,0
	.loc 1 256 3
	j	.L53
.LVL74:
.L59:
	.loc 1 256 36 is_stmt 1 discriminator 2
	.loc 1 256 37 is_stmt 0 discriminator 2
	addiw	s2,s2,1
.LVL75:
.L53:
	.loc 1 256 14 is_stmt 1 discriminator 1
	.loc 1 256 3 is_stmt 0 discriminator 1
	li	a5,12
	bgt	s2,a5,.L58
.LBB6:
	.loc 1 257 5 is_stmt 1
	.loc 1 258 5
	.loc 1 258 13 is_stmt 0
	slli	a4,s2,3
	lla	a5,.LANCHOR0
	add	a5,a5,a4
	ld	s0,0(a5)
.LVL76:
.L54:
	.loc 1 258 37 is_stmt 1 discriminator 1
	.loc 1 258 5 is_stmt 0 discriminator 1
	beq	s0,zero,.L59
	.loc 1 259 7 is_stmt 1 discriminator 3
	addi	a1,s0,16
	mv	a0,s0
	jalr	s1
.LVL77:
	.loc 1 258 49 discriminator 3
	.loc 1 258 52 is_stmt 0 discriminator 3
	ld	s0,8(s0)
.LVL78:
	j	.L54
.LVL79:
.L58:
.LBE6:
	.loc 1 262 1
	ld	ra,24(sp)
	.cfi_restore 1
	ld	s0,16(sp)
	.cfi_restore 8
	ld	s1,8(sp)
	.cfi_restore 9
.LVL80:
	ld	s2,0(sp)
	.cfi_restore 18
.LVL81:
	addi	sp,sp,32
	.cfi_def_cfa_offset 0
	jr	ra
	.cfi_endproc
.LFE16:
	.size	caml_iterate_named_values, .-caml_iterate_named_values
	.comm	caml_major_work_credit,8,8
	.comm	caml_major_ring_index,4,4
	.comm	caml_major_ring,400,8
	.bss
	.align	3
	.set	.LANCHOR0,. + 0
	.type	named_value_table, @object
	.size	named_value_table, 104
named_value_table:
	.zero	104
	.text
.Letext0:
	.file 2 "/home/sai/Shakti-TEE-Build/riscv/lib/gcc/riscv64-unknown-elf/9.2.0/include/stddef.h"
	.file 3 "caml/config.h"
	.file 4 "caml/misc.h"
	.file 5 "caml/mlvalues.h"
	.file 6 "caml/callback.h"
	.file 7 "/home/sai/ocaml-freestanding-riscv/nolibc/include/signal.h"
	.file 8 "caml/fail.h"
	.file 9 "caml/freelist.h"
	.file 10 "caml/major_gc.h"
	.file 11 "caml/address_class.h"
	.file 12 "caml/minor_gc.h"
	.file 13 "caml/memory.h"
	.file 14 "/home/sai/ocaml-freestanding-riscv/nolibc/include/string.h"
	.file 15 "<built-in>"