	.file	"gc_ctrl.c"
	.option nopic
	.attribute arch, "rv64i2p0_m2p0_a2p0_f2p0_d2p0_c2p0"
	.attribute unaligned_access, 0
	.attribute stack_align, 16
	.text
.Ltext0:
	.cfi_sections	.debug_frame
	.align	1
	.type	norm_pfree, @function
norm_pfree:
.LFB20:
	.file 1 "gc_ctrl.c"
	.loc 1 378 1
	.cfi_startproc
.LVL0:
	.loc 1 379 3
	.loc 1 379 10 is_stmt 0
	bne	a0,zero,.L1
	li	a0,1
.LVL1:
.L1:
	.loc 1 380 1
	ret
	.cfi_endproc
.LFE20:
	.size	norm_pfree, .-norm_pfree
	.align	1
	.type	norm_pmax, @function
norm_pmax:
.LFB21:
	.loc 1 383 1 is_stmt 1
	.cfi_startproc
.LVL2:
	.loc 1 384 3
	.loc 1 385 1 is_stmt 0
	ret
	.cfi_endproc
.LFE21:
	.size	norm_pmax, .-norm_pmax
	.align	1
	.type	norm_minsize, @function
norm_minsize:
.LFB22:
	.loc 1 388 1 is_stmt 1
	.cfi_startproc
.LVL3:
	.loc 1 389 3
	.loc 1 389 6 is_stmt 0
	li	a5,4096
	blt	a0,a5,.L7
	.loc 1 390 3 is_stmt 1
	.loc 1 390 6 is_stmt 0
	li	a5,268435456
	bgt	a0,a5,.L8
	ret
.L7:
	.loc 1 389 29
	li	a0,4096
.LVL4:
	ret
.LVL5:
.L8:
	.loc 1 390 29
	li	a0,268435456
.LVL6:
	.loc 1 391 3 is_stmt 1
	.loc 1 392 1 is_stmt 0
	ret
	.cfi_endproc
.LFE22:
	.size	norm_minsize, .-norm_minsize
	.align	1
	.type	norm_window, @function
norm_window:
.LFB23:
	.loc 1 395 1 is_stmt 1
	.cfi_startproc
.LVL7:
	.loc 1 396 3
	.loc 1 396 6 is_stmt 0
	ble	a0,zero,.L11
	.loc 1 397 3 is_stmt 1
	.loc 1 397 6 is_stmt 0
	li	a5,50
	bgt	a0,a5,.L12
	ret
.L11:
	.loc 1 396 16
	li	a0,1
.LVL8:
	ret
.LVL9:
.L12:
	.loc 1 397 31
	li	a0,50
.LVL10:
	.loc 1 398 3 is_stmt 1
	.loc 1 399 1 is_stmt 0
	ret
	.cfi_endproc
.LFE23:
	.size	norm_window, .-norm_window
	.align	1
	.type	heap_stats, @function
heap_stats:
.LFB12:
	.loc 1 133 1 is_stmt 1
	.cfi_startproc
.LVL11:
	addi	sp,sp,-240
	.cfi_def_cfa_offset 240
	sd	ra,232(sp)
	sd	s0,224(sp)
	sd	s1,216(sp)
	sd	s2,208(sp)
	sd	s3,200(sp)
	sd	s4,192(sp)
	sd	s5,184(sp)
	sd	s6,176(sp)
	sd	s7,168(sp)
	sd	s8,160(sp)
	sd	s9,152(sp)
	sd	s10,144(sp)
	sd	s11,136(sp)
	fsd	fs0,120(sp)
	fsd	fs1,112(sp)
	fsd	fs2,104(sp)
	.cfi_offset 1, -8
	.cfi_offset 8, -16
	.cfi_offset 9, -24
	.cfi_offset 18, -32
	.cfi_offset 19, -40
	.cfi_offset 20, -48
	.cfi_offset 21, -56
	.cfi_offset 22, -64
	.cfi_offset 23, -72
	.cfi_offset 24, -80
	.cfi_offset 25, -88
	.cfi_offset 26, -96
	.cfi_offset 27, -104
	.cfi_offset 40, -120
	.cfi_offset 41, -128
	.cfi_offset 50, -136
	.loc 1 134 3
	ld	s7,caml_local_roots
.LVL12:
	.loc 1 135 3
	.loc 1 138 3
	.loc 1 138 9 is_stmt 0
	ld	a6,caml_heap_start
.LVL13:
	.loc 1 139 3 is_stmt 1
	.loc 1 143 3
	.loc 1 149 3
	.loc 1 137 25 is_stmt 0
	li	s6,0
	.loc 1 137 10
	li	s5,0
	.loc 1 136 43
	li	s4,0
	.loc 1 136 26
	li	s3,0
	.loc 1 136 10
	li	s0,0
	.loc 1 135 26
	li	s1,0
	.loc 1 135 10
	li	s2,0
	.loc 1 149 9
	j	.L14
.LVL14:
.L17:
	.loc 1 159 7
	li	a2,768
	beq	a4,a2,.L19
.LVL15:
.L20:
	.loc 1 215 7 is_stmt 1
	.loc 1 215 16 is_stmt 0
	srli	a5,a5,10
.LVL16:
	addi	a5,a5,1
	slli	a5,a5,3
	.loc 1 215 14
	add	a3,a3,a5
.LVL17:
.L15:
	.loc 1 156 11 is_stmt 1
	bgeu	a3,a1,.L28
	.loc 1 157 7
	.loc 1 157 14 is_stmt 0
	ld	a5,0(a3)
.LVL18:
	.loc 1 158 7 is_stmt 1
	.loc 1 159 7
	.loc 1 159 15 is_stmt 0
	andi	a4,a5,768
	.loc 1 159 7
	li	a2,512
	beq	a4,a2,.L16
	bgtu	a4,a2,.L17
	beq	a4,zero,.L18
	li	a2,256
	bne	a4,a2,.L20
.L19:
	.loc 1 184 9 is_stmt 1
	.loc 1 185 9
	addi	s1,s1,1
.LVL19:
	.loc 1 186 9
	.loc 1 186 23 is_stmt 0
	srli	a4,a5,10
	.loc 1 186 20
	add	s2,s2,a4
.LVL20:
	addi	s2,s2,1
.LVL21:
	.loc 1 190 9 is_stmt 1
	j	.L20
.L18:
	.loc 1 161 9
	.loc 1 161 13 is_stmt 0
	srli	a4,a5,10
	.loc 1 161 12
	bne	a4,zero,.L21
	.loc 1 162 11 is_stmt 1
	addi	s5,s5,1
.LVL22:
	.loc 1 163 11
	j	.L20
.L21:
	.loc 1 167 11
	.loc 1 167 29 is_stmt 0
	lw	a7,caml_gc_phase
	.loc 1 167 14
	li	a2,2
	beq	a7,a2,.L29
.L22:
	.loc 1 175 13 is_stmt 1
	addi	s1,s1,1
.LVL23:
	.loc 1 176 13
	.loc 1 176 24 is_stmt 0
	add	s2,s2,a4
.LVL24:
	addi	s2,s2,1
.LVL25:
	j	.L20
.L29:
	.loc 1 168 28
	ld	a2,caml_gc_sweep_hp
	.loc 1 168 15
	bgtu	a2,a3,.L22
	.loc 1 169 13 is_stmt 1
	addi	s3,s3,1
.LVL26:
	.loc 1 170 13
	.loc 1 170 24 is_stmt 0
	add	s0,s0,a4
.LVL27:
	addi	s0,s0,1
.LVL28:
	.loc 1 171 13 is_stmt 1
	.loc 1 171 17 is_stmt 0
	addi	a4,a4,1
	.loc 1 171 16
	bleu	a4,s4,.L20
	.loc 1 172 15 is_stmt 1
	.loc 1 172 28 is_stmt 0
	mv	s4,a4
.LVL29:
	j	.L20
.LVL30:
.L16:
	.loc 1 192 9 is_stmt 1
	.loc 1 193 9
	addi	s3,s3,1
.LVL31:
	.loc 1 194 9
	.loc 1 194 23 is_stmt 0
	srli	a4,a5,10
	.loc 1 194 20
	add	s0,s0,a4
.LVL32:
	addi	s0,s0,1
.LVL33:
	.loc 1 195 9 is_stmt 1
	.loc 1 195 13 is_stmt 0
	addi	a4,a4,1
	.loc 1 195 12
	bleu	a4,s4,.L20
	.loc 1 196 11 is_stmt 1
	.loc 1 196 24 is_stmt 0
	mv	s4,a4
.LVL34:
	j	.L20
.LVL35:
.L28:
	.loc 1 217 5 is_stmt 1
	.loc 1 218 5
	.loc 1 218 11 is_stmt 0
	ld	a6,-8(a6)
.LVL36:
.L14:
	.loc 1 149 9 is_stmt 1
	beq	a6,zero,.L30
	.loc 1 150 5
	addi	s6,s6,1
.LVL37:
	.loc 1 151 5
	.loc 1 151 25 is_stmt 0
	ld	a1,-16(a6)
	.loc 1 151 15
	add	a1,a6,a1
.LVL38:
	.loc 1 155 5 is_stmt 1
	.loc 1 156 5
	.loc 1 155 12 is_stmt 0
	mv	a3,a6
	.loc 1 156 11
	j	.L15
.LVL39:
.L30:
	.loc 1 225 3 is_stmt 1
	.loc 1 226 3
	.loc 1 228 3
	.loc 1 228 6 is_stmt 0
	bne	a0,zero,.L31
.LBB2:
	.loc 1 261 5
	li	a0,1
.LVL40:
.LBE2:
	.loc 1 261 5 is_stmt 1
.L13:
	.loc 1 263 1 is_stmt 0
	ld	ra,232(sp)
	.cfi_remember_state
	.cfi_restore 1
	ld	s0,224(sp)
	.cfi_restore 8
.LVL41:
	ld	s1,216(sp)
	.cfi_restore 9
.LVL42:
	ld	s2,208(sp)
	.cfi_restore 18
.LVL43:
	ld	s3,200(sp)
	.cfi_restore 19
.LVL44:
	ld	s4,192(sp)
	.cfi_restore 20
.LVL45:
	ld	s5,184(sp)
	.cfi_restore 21
.LVL46:
	ld	s6,176(sp)
	.cfi_restore 22
.LVL47:
	ld	s7,168(sp)
	.cfi_restore 23
.LVL48:
	ld	s8,160(sp)
	.cfi_restore 24
	ld	s9,152(sp)
	.cfi_restore 25
	ld	s10,144(sp)
	.cfi_restore 26
	ld	s11,136(sp)
	.cfi_restore 27
	fld	fs0,120(sp)
	.cfi_restore 40
	fld	fs1,112(sp)
	.cfi_restore 41
	fld	fs2,104(sp)
	.cfi_restore 50
	addi	sp,sp,240
	.cfi_def_cfa_offset 0
	jr	ra
.LVL49:
.L31:
	.cfi_restore_state
.LBB3:
	.loc 1 229 5 is_stmt 1
	li	a5,1
	sd	a5,24(sp)
	.loc 1 229 5
	.loc 1 229 5
	sd	s7,32(sp)
	lla	s11,caml_local_roots
	addi	a4,sp,32
	sd	a4,0(s11)
	sd	a5,48(sp)
	sd	a5,40(sp)
	addi	a5,sp,24
	sd	a5,56(sp)
.LVL50:
	.loc 1 232 5
	.loc 1 233 56 is_stmt 0
	ld	a5,caml_young_alloc_end
	ld	a4,caml_young_ptr
	sub	a5,a5,a4
	srai	a5,a5,3
	.loc 1 233 25
	fcvt.d.l	fa5,a5
	.loc 1 233 23
	fld	fs0,caml_stat_minor_words,a5
	.loc 1 232 12
	fadd.d	fs0,fa5,fs0
.LVL51:
	.loc 1 234 5 is_stmt 1
	.loc 1 234 12 is_stmt 0
	fld	fs2,caml_stat_promoted_words,a5
.LVL52:
	.loc 1 235 5 is_stmt 1
	.loc 1 235 47 is_stmt 0
	ld	a5,caml_allocated_words
	fcvt.d.lu	fa5,a5
	.loc 1 235 45
	fld	fs1,caml_stat_major_words,a5
	.loc 1 235 12
	fadd.d	fs1,fa5,fs1
.LVL53:
	.loc 1 236 5 is_stmt 1
	.loc 1 236 12 is_stmt 0
	ld	s10,caml_stat_minor_collections
.LVL54:
	.loc 1 237 5 is_stmt 1
	.loc 1 237 12 is_stmt 0
	ld	s9,caml_stat_major_collections
.LVL55:
	.loc 1 238 5 is_stmt 1
	.loc 1 238 12 is_stmt 0
	ld	s8,caml_stat_heap_wsz
.LVL56:
	.loc 1 239 5 is_stmt 1
	.loc 1 239 12 is_stmt 0
	ld	a5,caml_stat_compactions
	sd	a5,0(sp)
.LVL57:
	.loc 1 240 5 is_stmt 1
	.loc 1 240 12 is_stmt 0
	ld	a4,caml_stat_top_heap_wsz
	sd	a4,8(sp)
.LVL58:
	.loc 1 242 5 is_stmt 1
	.loc 1 242 11 is_stmt 0
	li	a0,16
.LVL59:
	call	caml_alloc_tuple
.LVL60:
	.loc 1 242 9
	sd	a0,24(sp)
	.loc 1 243 5 is_stmt 1
.LBB4:
	.loc 1 243 5
.LVL61:
	.loc 1 243 5
	fmv.d	fa0,fs0
	call	caml_copy_double
.LVL62:
	mv	a1,a0
.LVL63:
	.loc 1 243 5
	ld	a0,24(sp)
.LVL64:
	call	caml_modify
.LVL65:
.LBE4:
	.loc 1 243 5
	.loc 1 244 5
.LBB5:
	.loc 1 244 5
	.loc 1 244 5
	fmv.d	fa0,fs2
	call	caml_copy_double
.LVL66:
	mv	a1,a0
.LVL67:
	.loc 1 244 5
	ld	a0,24(sp)
.LVL68:
	addi	a0,a0,8
	call	caml_modify
.LVL69:
.LBE5:
	.loc 1 244 5
	.loc 1 245 5
.LBB6:
	.loc 1 245 5
	.loc 1 245 5
	fmv.d	fa0,fs1
	call	caml_copy_double
.LVL70:
	mv	a1,a0
.LVL71:
	.loc 1 245 5
	ld	a0,24(sp)
.LVL72:
	addi	a0,a0,16
	call	caml_modify
.LVL73:
.LBE6:
	.loc 1 245 5
	.loc 1 246 5
.LBB7:
	.loc 1 246 5
	.loc 1 246 5
	slli	a1,s10,1
.LVL74:
	.loc 1 246 5
	addi	a1,a1,1
.LVL75:
	ld	a0,24(sp)
	addi	a0,a0,24
	call	caml_modify
.LVL76:
.LBE7:
	.loc 1 246 5
	.loc 1 247 5
.LBB8:
	.loc 1 247 5
	.loc 1 247 5
	slli	a1,s9,1
.LVL77:
	.loc 1 247 5
	addi	a1,a1,1
.LVL78:
	ld	a0,24(sp)
	addi	a0,a0,32
	call	caml_modify
.LVL79:
.LBE8:
	.loc 1 247 5
	.loc 1 248 5
.LBB9:
	.loc 1 248 5
	.loc 1 248 5
	slli	a1,s8,1
.LVL80:
	.loc 1 248 5
	addi	a1,a1,1
.LVL81:
	ld	a0,24(sp)
	addi	a0,a0,40
	call	caml_modify
.LVL82:
.LBE9:
	.loc 1 248 5
	.loc 1 249 5
.LBB10:
	.loc 1 249 5
	.loc 1 249 5
	slli	a1,s6,1
.LVL83:
	.loc 1 249 5
	addi	a1,a1,1
.LVL84:
	ld	a0,24(sp)
	addi	a0,a0,48
	call	caml_modify
.LVL85:
.LBE10:
	.loc 1 249 5
	.loc 1 250 5
.LBB11:
	.loc 1 250 5
	.loc 1 250 5
	slli	a1,s2,1
.LVL86:
	.loc 1 250 5
	addi	a1,a1,1
.LVL87:
	ld	a0,24(sp)
	addi	a0,a0,56
	call	caml_modify
.LVL88:
.LBE11:
	.loc 1 250 5
	.loc 1 251 5
.LBB12:
	.loc 1 251 5
	.loc 1 251 5
	slli	a1,s1,1
.LVL89:
	.loc 1 251 5
	addi	a1,a1,1
.LVL90:
	ld	a0,24(sp)
	addi	a0,a0,64
	call	caml_modify
.LVL91:
.LBE12:
	.loc 1 251 5
	.loc 1 252 5
.LBB13:
	.loc 1 252 5
	.loc 1 252 5
	slli	a1,s0,1
.LVL92:
	.loc 1 252 5
	addi	a1,a1,1
.LVL93:
	ld	a0,24(sp)
	addi	a0,a0,72
	call	caml_modify
.LVL94:
.LBE13:
	.loc 1 252 5
	.loc 1 253 5
.LBB14:
	.loc 1 253 5
	.loc 1 253 5
	slli	a1,s3,1
.LVL95:
	.loc 1 253 5
	addi	a1,a1,1
.LVL96:
	ld	a0,24(sp)
	addi	a0,a0,80
	call	caml_modify
.LVL97:
.LBE14:
	.loc 1 253 5
	.loc 1 254 5
.LBB15:
	.loc 1 254 5
	.loc 1 254 5
	slli	a1,s4,1
.LVL98:
	.loc 1 254 5
	addi	a1,a1,1
.LVL99:
	ld	a0,24(sp)
	addi	a0,a0,88
	call	caml_modify
.LVL100:
.LBE15:
	.loc 1 254 5
	.loc 1 255 5
.LBB16:
	.loc 1 255 5
	.loc 1 255 5
	slli	a1,s5,1
.LVL101:
	.loc 1 255 5
	addi	a1,a1,1
.LVL102:
	ld	a0,24(sp)
	addi	a0,a0,96
	call	caml_modify
.LVL103:
.LBE16:
	.loc 1 255 5
	.loc 1 256 5
.LBB17:
	.loc 1 256 5
	.loc 1 256 5
	ld	a5,0(sp)
	slli	a1,a5,1
.LVL104:
	.loc 1 256 5
	addi	a1,a1,1
.LVL105:
	ld	a0,24(sp)
	addi	a0,a0,104
	call	caml_modify
.LVL106:
.LBE17:
	.loc 1 256 5
	.loc 1 257 5
.LBB18:
	.loc 1 257 5
	.loc 1 257 5
	ld	a4,8(sp)
	slli	a1,a4,1
.LVL107:
	.loc 1 257 5
	addi	a1,a1,1
.LVL108:
	ld	a0,24(sp)
	addi	a0,a0,112
	call	caml_modify
.LVL109:
.LBE18:
	.loc 1 257 5
	.loc 1 258 5
.LBB19:
	.loc 1 258 5
	.loc 1 258 5
	call	caml_stack_usage
.LVL110:
	slli	a1,a0,1
.LVL111:
	.loc 1 258 5
	addi	a1,a1,1
.LVL112:
	ld	a0,24(sp)
	addi	a0,a0,120
	call	caml_modify
.LVL113:
.LBE19:
	.loc 1 258 5
	.loc 1 259 5
.LBB20:
	.loc 1 259 5
	ld	a0,24(sp)
.LVL114:
	.loc 1 259 5
	sd	s7,0(s11)
	.loc 1 259 5
.LBE20:
	.loc 1 259 5
	j	.L13
.LBE3:
	.cfi_endproc
.LFE12:
	.size	heap_stats, .-heap_stats
	.section	.rodata.str1.8,"aMS",@progbits,1
	.align	3
.LC2:
	.string	"Estimated overhead (lower bound) = %lu%%\n"
	.align	3
.LC3:
	.string	"Automatic compaction triggered.\n"
	.text
	.align	1
	.type	test_and_compact, @function
test_and_compact:
.LFB26:
	.loc 1 482 1
	.cfi_startproc
	addi	sp,sp,-32
	.cfi_def_cfa_offset 32
	sd	ra,24(sp)
	fsd	fs0,8(sp)
	.cfi_offset 1, -8
	.cfi_offset 40, -24
	.loc 1 483 3
	.loc 1 485 3
	.loc 1 485 14 is_stmt 0
	ld	a4,caml_fl_cur_wsz
	fcvt.d.lu	fs0,a4
	fld	fa5,.LC1,a5
	fmul.d	fs0,fs0,fa5
	.loc 1 485 54
	ld	a5,caml_stat_heap_wsz
	sub	a5,a5,a4
	.loc 1 485 32
	fcvt.d.lu	fa5,a5
	fdiv.d	fs0,fs0,fa5
	.loc 1 485 6
	fcvt.s.d	fs0,fs0
.LVL115:
	.loc 1 486 3 is_stmt 1
	.loc 1 486 6 is_stmt 0
	flw	fa5,.LC0,a5
	fgt.s	a5,fs0,fa5
	beq	a5,zero,.L33
	.loc 1 486 25
	fmv.s	fs0,fa5
.LVL116:
.L33:
	.loc 1 487 3 is_stmt 1
	fcvt.lu.s a2,fs0,rtz
	lla	a1,.LC2
	li	a0,512
	call	caml_gc_message
.LVL117:
	.loc 1 490 3
	.loc 1 490 10 is_stmt 0
	ld	a5,caml_percent_max
	fcvt.s.lu	fa5,a5
	.loc 1 490 6
	fle.s	a5,fa5,fs0
	bne	a5,zero,.L39
.L32:
	.loc 1 494 1
	ld	ra,24(sp)
	.cfi_remember_state
	.cfi_restore 1
	fld	fs0,8(sp)
	.cfi_restore 40
.LVL118:
	addi	sp,sp,32
	.cfi_def_cfa_offset 0
	jr	ra
.LVL119:
.L39:
	.cfi_restore_state
	.loc 1 491 5 is_stmt 1
	lla	a1,.LC3
	li	a0,512
	call	caml_gc_message
.LVL120:
	.loc 1 492 5
	call	caml_compact_heap
.LVL121:
	.loc 1 494 1 is_stmt 0
	j	.L32
	.cfi_endproc
.LFE26:
	.size	test_and_compact, .-test_and_compact
	.align	1
	.globl	caml_gc_stat
	.type	caml_gc_stat, @function
caml_gc_stat:
.LFB13:
	.loc 1 273 1 is_stmt 1
	.cfi_startproc
.LVL122:
	addi	sp,sp,-16
	.cfi_def_cfa_offset 16
	sd	ra,8(sp)
	.cfi_offset 1, -8
	.loc 1 274 3
	.loc 1 275 29
	.loc 1 276 3
	.loc 1 277 3
	.loc 1 277 12 is_stmt 0
	li	a0,1
.LVL123:
	call	heap_stats
.LVL124:
	.loc 1 278 44 is_stmt 1
	.loc 1 279 3
	.loc 1 280 1 is_stmt 0
	ld	ra,8(sp)
	.cfi_restore 1
	addi	sp,sp,16
	.cfi_def_cfa_offset 0
	jr	ra
	.cfi_endproc
.LFE13:
	.size	caml_gc_stat, .-caml_gc_stat
	.align	1
	.globl	caml_gc_quick_stat
	.type	caml_gc_quick_stat, @function
caml_gc_quick_stat:
.LFB14:
	.loc 1 283 1 is_stmt 1
	.cfi_startproc
.LVL125:
	addi	sp,sp,-192
	.cfi_def_cfa_offset 192
	sd	ra,184(sp)
	sd	s0,176(sp)
	sd	s1,168(sp)
	sd	s2,160(sp)
	sd	s3,152(sp)
	sd	s4,144(sp)
	sd	s5,136(sp)
	sd	s6,128(sp)
	sd	s7,120(sp)
	fsd	fs0,104(sp)
	fsd	fs1,96(sp)
	fsd	fs2,88(sp)
	.cfi_offset 1, -8
	.cfi_offset 8, -16
	.cfi_offset 9, -24
	.cfi_offset 18, -32
	.cfi_offset 19, -40
	.cfi_offset 20, -48
	.cfi_offset 21, -56
	.cfi_offset 22, -64
	.cfi_offset 23, -72
	.cfi_offset 40, -88
	.cfi_offset 41, -96
	.cfi_offset 50, -104
	.loc 1 284 3
	lla	s0,caml_local_roots
	ld	s1,0(s0)
.LVL126:
	.loc 1 285 3
	li	a5,1
	sd	a5,72(sp)
	.loc 1 285 3
	.loc 1 285 3
	sd	s1,8(sp)
	addi	a4,sp,8
	sd	a4,0(s0)
	sd	a5,24(sp)
	sd	a5,16(sp)
	addi	a5,sp,72
	sd	a5,32(sp)
.LVL127:
	.loc 1 288 3
	.loc 1 289 54 is_stmt 0
	ld	a5,caml_young_alloc_end
	ld	a4,caml_young_ptr
	sub	a5,a5,a4
	srai	a5,a5,3
	.loc 1 289 23
	fcvt.d.l	fs0,a5
	.loc 1 289 21
	fld	fa5,caml_stat_minor_words,a5
	.loc 1 288 10
	fadd.d	fs0,fs0,fa5
.LVL128:
	.loc 1 290 3 is_stmt 1
	.loc 1 290 10 is_stmt 0
	fld	fs2,caml_stat_promoted_words,a5
.LVL129:
	.loc 1 291 3 is_stmt 1
	.loc 1 291 45 is_stmt 0
	ld	a5,caml_allocated_words
	fcvt.d.lu	fs1,a5
	.loc 1 291 43
	fld	fa5,caml_stat_major_words,a5
	.loc 1 291 10
	fadd.d	fs1,fs1,fa5
.LVL130:
	.loc 1 292 3 is_stmt 1
	.loc 1 292 10 is_stmt 0
	ld	s7,caml_stat_minor_collections
.LVL131:
	.loc 1 293 3 is_stmt 1
	.loc 1 293 10 is_stmt 0
	ld	s6,caml_stat_major_collections
.LVL132:
	.loc 1 294 3 is_stmt 1
	.loc 1 294 10 is_stmt 0
	ld	s5,caml_stat_heap_wsz
.LVL133:
	.loc 1 295 3 is_stmt 1
	.loc 1 295 10 is_stmt 0
	ld	s2,caml_stat_top_heap_wsz
.LVL134:
	.loc 1 296 3 is_stmt 1
	.loc 1 296 10 is_stmt 0
	ld	s3,caml_stat_compactions
.LVL135:
	.loc 1 297 3 is_stmt 1
	.loc 1 297 10 is_stmt 0
	ld	s4,caml_stat_heap_chunks
.LVL136:
	.loc 1 299 3 is_stmt 1
	.loc 1 299 9 is_stmt 0
	li	a0,16
.LVL137:
	call	caml_alloc_tuple
.LVL138:
	.loc 1 299 7
	sd	a0,72(sp)
	.loc 1 300 3 is_stmt 1
.LBB21:
	.loc 1 300 3
.LVL139:
	.loc 1 300 3
	fmv.d	fa0,fs0
	call	caml_copy_double
.LVL140:
	mv	a1,a0
.LVL141:
	.loc 1 300 3
	ld	a0,72(sp)
.LVL142:
	call	caml_modify
.LVL143:
.LBE21:
	.loc 1 300 3
	.loc 1 301 3
.LBB22:
	.loc 1 301 3
	.loc 1 301 3
	fmv.d	fa0,fs2
	call	caml_copy_double
.LVL144:
	mv	a1,a0
.LVL145:
	.loc 1 301 3
	ld	a0,72(sp)
.LVL146:
	addi	a0,a0,8
	call	caml_modify
.LVL147:
.LBE22:
	.loc 1 301 3
	.loc 1 302 3
.LBB23:
	.loc 1 302 3
	.loc 1 302 3
	fmv.d	fa0,fs1
	call	caml_copy_double
.LVL148:
	mv	a1,a0
.LVL149:
	.loc 1 302 3
	ld	a0,72(sp)
.LVL150:
	addi	a0,a0,16
	call	caml_modify
.LVL151:
.LBE23:
	.loc 1 302 3
	.loc 1 303 3
.LBB24:
	.loc 1 303 3
	.loc 1 303 3
	slli	a1,s7,1
.LVL152:
	.loc 1 303 3
	addi	a1,a1,1
.LVL153:
	ld	a0,72(sp)
	addi	a0,a0,24
	call	caml_modify
.LVL154:
.LBE24:
	.loc 1 303 3
	.loc 1 304 3
.LBB25:
	.loc 1 304 3
	.loc 1 304 3
	slli	a1,s6,1
.LVL155:
	.loc 1 304 3
	addi	a1,a1,1
.LVL156:
	ld	a0,72(sp)
	addi	a0,a0,32
	call	caml_modify
.LVL157:
.LBE25:
	.loc 1 304 3
	.loc 1 305 3
.LBB26:
	.loc 1 305 3
	.loc 1 305 3
	slli	a1,s5,1
.LVL158:
	.loc 1 305 3
	addi	a1,a1,1
.LVL159:
	ld	a0,72(sp)
	addi	a0,a0,40
	call	caml_modify
.LVL160:
.LBE26:
	.loc 1 305 3
	.loc 1 306 3
.LBB27:
	.loc 1 306 3
	.loc 1 306 3
	slli	a1,s4,1
.LVL161:
	.loc 1 306 3
	addi	a1,a1,1
.LVL162:
	ld	a0,72(sp)
	addi	a0,a0,48
	call	caml_modify
.LVL163:
.LBE27:
	.loc 1 306 3
	.loc 1 307 3
.LBB28:
	.loc 1 307 3
	.loc 1 307 3
	.loc 1 307 3
	li	a1,1
	ld	a0,72(sp)
	addi	a0,a0,56
	call	caml_modify
.LVL164:
.LBE28:
	.loc 1 307 3
	.loc 1 308 3
.LBB29:
	.loc 1 308 3
	.loc 1 308 3
	.loc 1 308 3
	li	a1,1
	ld	a0,72(sp)
	addi	a0,a0,64
	call	caml_modify
.LVL165:
.LBE29:
	.loc 1 308 3
	.loc 1 309 3
.LBB30:
	.loc 1 309 3
	.loc 1 309 3
	.loc 1 309 3
	li	a1,1
	ld	a0,72(sp)
	addi	a0,a0,72
	call	caml_modify
.LVL166:
.LBE30:
	.loc 1 309 3
	.loc 1 310 3
.LBB31:
	.loc 1 310 3
	.loc 1 310 3
	.loc 1 310 3
	li	a1,1
	ld	a0,72(sp)
	addi	a0,a0,80
	call	caml_modify
.LVL167:
.LBE31:
	.loc 1 310 3
	.loc 1 311 3
.LBB32:
	.loc 1 311 3
	.loc 1 311 3
	.loc 1 311 3
	li	a1,1
	ld	a0,72(sp)
	addi	a0,a0,88
	call	caml_modify
.LVL168:
.LBE32:
	.loc 1 311 3
	.loc 1 312 3
.LBB33:
	.loc 1 312 3
	.loc 1 312 3
	.loc 1 312 3
	li	a1,1
	ld	a0,72(sp)
	addi	a0,a0,96
	call	caml_modify
.LVL169:
.LBE33:
	.loc 1 312 3
	.loc 1 313 3
.LBB34:
	.loc 1 313 3
	.loc 1 313 3
	slli	a1,s3,1
.LVL170:
	.loc 1 313 3
	addi	a1,a1,1
.LVL171:
	ld	a0,72(sp)
	addi	a0,a0,104
	call	caml_modify
.LVL172:
.LBE34:
	.loc 1 313 3
	.loc 1 314 3
.LBB35:
	.loc 1 314 3
	.loc 1 314 3
	slli	a1,s2,1
.LVL173:
	.loc 1 314 3
	addi	a1,a1,1
.LVL174:
	ld	a0,72(sp)
	addi	a0,a0,112
	call	caml_modify
.LVL175:
.LBE35:
	.loc 1 314 3
	.loc 1 315 3
.LBB36:
	.loc 1 315 3
	.loc 1 315 3
	call	caml_stack_usage
.LVL176:
	slli	a1,a0,1
.LVL177:
	.loc 1 315 3
	addi	a1,a1,1
.LVL178:
	ld	a0,72(sp)
	addi	a0,a0,120
	call	caml_modify
.LVL179:
.LBE36:
	.loc 1 315 3
	.loc 1 316 3
.LBB37:
	.loc 1 316 3
	.loc 1 316 3
	sd	s1,0(s0)
	.loc 1 316 3
.LBE37:
	.loc 1 316 3
	.loc 1 317 1 is_stmt 0
	ld	a0,72(sp)
	ld	ra,184(sp)
	.cfi_restore 1
	ld	s0,176(sp)
	.cfi_restore 8
	ld	s1,168(sp)
	.cfi_restore 9
.LVL180:
	ld	s2,160(sp)
	.cfi_restore 18
.LVL181:
	ld	s3,152(sp)
	.cfi_restore 19
.LVL182:
	ld	s4,144(sp)
	.cfi_restore 20
.LVL183:
	ld	s5,136(sp)
	.cfi_restore 21
.LVL184:
	ld	s6,128(sp)
	.cfi_restore 22
.LVL185:
	ld	s7,120(sp)
	.cfi_restore 23
.LVL186:
	fld	fs0,104(sp)
	.cfi_restore 40
.LVL187:
	fld	fs1,96(sp)
	.cfi_restore 41
.LVL188:
	fld	fs2,88(sp)
	.cfi_restore 50
.LVL189:
	addi	sp,sp,192
	.cfi_def_cfa_offset 0
.LVL190:
	jr	ra
	.cfi_endproc
.LFE14:
	.size	caml_gc_quick_stat, .-caml_gc_quick_stat
	.align	1
	.globl	caml_gc_minor_words_unboxed
	.type	caml_gc_minor_words_unboxed, @function
caml_gc_minor_words_unboxed:
.LFB15:
	.loc 1 320 1 is_stmt 1
	.cfi_startproc
	.loc 1 321 3
	.loc 1 322 44 is_stmt 0
	ld	a5,caml_young_alloc_end
	ld	a4,caml_young_ptr
	sub	a5,a5,a4
	srai	a5,a5,3
	.loc 1 322 13
	fcvt.d.l	fa5,a5
	.loc 1 322 11
	fld	fa0,caml_stat_minor_words,a5
	.loc 1 323 1
	fadd.d	fa0,fa5,fa0
	ret
	.cfi_endproc
.LFE15:
	.size	caml_gc_minor_words_unboxed, .-caml_gc_minor_words_unboxed
	.align	1
	.globl	caml_gc_minor_words
	.type	caml_gc_minor_words, @function
caml_gc_minor_words:
.LFB16:
	.loc 1 326 1 is_stmt 1
	.cfi_startproc
.LVL191:
	addi	sp,sp,-32
	.cfi_def_cfa_offset 32
	sd	ra,24(sp)
	sd	s0,16(sp)
	sd	s1,8(sp)
	.cfi_offset 1, -8
	.cfi_offset 8, -16
	.cfi_offset 9, -24
	.loc 1 327 3
	lla	s0,caml_local_roots
	ld	s1,0(s0)
.LVL192:
	.loc 1 328 3
.LBB38:
	.loc 1 328 3
	call	caml_gc_minor_words_unboxed
.LVL193:
	call	caml_copy_double
.LVL194:
	.loc 1 328 3
	sd	s1,0(s0)
	.loc 1 328 3
.LBE38:
	.loc 1 328 3
	.loc 1 329 1 is_stmt 0
	ld	ra,24(sp)
	.cfi_restore 1
	ld	s0,16(sp)
	.cfi_restore 8
	ld	s1,8(sp)
	.cfi_restore 9
.LVL195:
	addi	sp,sp,32
	.cfi_def_cfa_offset 0
	jr	ra
	.cfi_endproc
.LFE16:
	.size	caml_gc_minor_words, .-caml_gc_minor_words
	.align	1
	.globl	caml_gc_counters
	.type	caml_gc_counters, @function
caml_gc_counters:
.LFB17:
	.loc 1 332 1 is_stmt 1
	.cfi_startproc
.LVL196:
	addi	sp,sp,-144
	.cfi_def_cfa_offset 144
	sd	ra,136(sp)
	sd	s0,128(sp)
	sd	s1,120(sp)
	fsd	fs0,104(sp)
	fsd	fs1,96(sp)
	fsd	fs2,88(sp)
	.cfi_offset 1, -8
	.cfi_offset 8, -16
	.cfi_offset 9, -24
	.cfi_offset 40, -40
	.cfi_offset 41, -48
	.cfi_offset 50, -56
	.loc 1 333 3
	lla	s0,caml_local_roots
	ld	s1,0(s0)
.LVL197:
	.loc 1 334 3
	li	a5,1
	sd	a5,72(sp)
	.loc 1 334 3
	.loc 1 334 3
	sd	s1,8(sp)
	addi	a4,sp,8
	sd	a4,0(s0)
	sd	a5,24(sp)
	sd	a5,16(sp)
	addi	a5,sp,72
	sd	a5,32(sp)
.LVL198:
	.loc 1 337 3
	.loc 1 338 54 is_stmt 0
	ld	a5,caml_young_alloc_end
	ld	a4,caml_young_ptr
	sub	a5,a5,a4
	srai	a5,a5,3
	.loc 1 338 23
	fcvt.d.l	fs0,a5
	.loc 1 338 21
	fld	fa5,caml_stat_minor_words,a5
	.loc 1 337 10
	fadd.d	fs0,fs0,fa5
.LVL199:
	.loc 1 339 3 is_stmt 1
	.loc 1 339 10 is_stmt 0
	fld	fs2,caml_stat_promoted_words,a5
.LVL200:
	.loc 1 340 3 is_stmt 1
	.loc 1 340 45 is_stmt 0
	ld	a5,caml_allocated_words
	fcvt.d.lu	fs1,a5
	.loc 1 340 43
	fld	fa5,caml_stat_major_words,a5
	.loc 1 340 10
	fadd.d	fs1,fs1,fa5
.LVL201:
	.loc 1 342 3 is_stmt 1
	.loc 1 342 9 is_stmt 0
	li	a0,3
.LVL202:
	call	caml_alloc_tuple
.LVL203:
	.loc 1 342 7
	sd	a0,72(sp)
	.loc 1 343 3 is_stmt 1
.LBB39:
	.loc 1 343 3
.LVL204:
	.loc 1 343 3
	fmv.d	fa0,fs0
	call	caml_copy_double
.LVL205:
	mv	a1,a0
.LVL206:
	.loc 1 343 3
	ld	a0,72(sp)
.LVL207:
	call	caml_modify
.LVL208:
.LBE39:
	.loc 1 343 3
	.loc 1 344 3
.LBB40:
	.loc 1 344 3
	.loc 1 344 3
	fmv.d	fa0,fs2
	call	caml_copy_double
.LVL209:
	mv	a1,a0
.LVL210:
	.loc 1 344 3
	ld	a0,72(sp)
.LVL211:
	addi	a0,a0,8
	call	caml_modify
.LVL212:
.LBE40:
	.loc 1 344 3
	.loc 1 345 3
.LBB41:
	.loc 1 345 3
	.loc 1 345 3
	fmv.d	fa0,fs1
	call	caml_copy_double
.LVL213:
	mv	a1,a0
.LVL214:
	.loc 1 345 3
	ld	a0,72(sp)
.LVL215:
	addi	a0,a0,16
	call	caml_modify
.LVL216:
.LBE41:
	.loc 1 345 3
	.loc 1 346 3
.LBB42:
	.loc 1 346 3
	.loc 1 346 3
	sd	s1,0(s0)
	.loc 1 346 3
.LBE42:
	.loc 1 346 3
	.loc 1 347 1 is_stmt 0
	ld	a0,72(sp)
	ld	ra,136(sp)
	.cfi_restore 1
	ld	s0,128(sp)
	.cfi_restore 8
	ld	s1,120(sp)
	.cfi_restore 9
.LVL217:
	fld	fs0,104(sp)
	.cfi_restore 40
.LVL218:
	fld	fs1,96(sp)
	.cfi_restore 41
.LVL219:
	fld	fs2,88(sp)
	.cfi_restore 50
.LVL220:
	addi	sp,sp,144
	.cfi_def_cfa_offset 0
.LVL221:
	jr	ra
	.cfi_endproc
.LFE17:
	.size	caml_gc_counters, .-caml_gc_counters
	.align	1
	.globl	caml_gc_huge_fallback_count
	.type	caml_gc_huge_fallback_count, @function
caml_gc_huge_fallback_count:
.LFB18:
	.loc 1 350 1 is_stmt 1
	.cfi_startproc
.LVL222:
	.loc 1 351 3
	.loc 1 351 10 is_stmt 0
	lw	a0,caml_huge_fallback_count
.LVL223:
	slli	a0,a0,1
	.loc 1 352 1
	addi	a0,a0,1
	ret
	.cfi_endproc
.LFE18:
	.size	caml_gc_huge_fallback_count, .-caml_gc_huge_fallback_count
	.align	1
	.globl	caml_gc_get
	.type	caml_gc_get, @function
caml_gc_get:
.LFB19:
	.loc 1 355 1 is_stmt 1
	.cfi_startproc
.LVL224:
	addi	sp,sp,-112
	.cfi_def_cfa_offset 112
	sd	ra,104(sp)
	sd	s0,96(sp)
	sd	s1,88(sp)
	.cfi_offset 1, -8
	.cfi_offset 8, -16
	.cfi_offset 9, -24
	.loc 1 356 3
	lla	s0,caml_local_roots
	ld	s1,0(s0)
.LVL225:
	.loc 1 357 3
	li	a5,1
	sd	a5,72(sp)
	.loc 1 357 3
	.loc 1 357 3
	sd	s1,8(sp)
	addi	a4,sp,8
	sd	a4,0(s0)
	sd	a5,24(sp)
	sd	a5,16(sp)
	addi	a5,sp,72
	sd	a5,32(sp)
.LVL226:
	.loc 1 359 3
	.loc 1 359 9 is_stmt 0
	li	a0,8
.LVL227:
	call	caml_alloc_tuple
.LVL228:
	.loc 1 359 7
	sd	a0,72(sp)
	.loc 1 360 3 is_stmt 1
.LBB43:
	.loc 1 360 3
.LVL229:
	.loc 1 360 3
	ld	a1,caml_minor_heap_wsz
	slli	a1,a1,1
.LVL230:
	.loc 1 360 3
	addi	a1,a1,1
.LVL231:
	call	caml_modify
.LVL232:
.LBE43:
	.loc 1 360 3
	.loc 1 361 3
.LBB44:
	.loc 1 361 3
	.loc 1 361 3
	ld	a1,caml_major_heap_increment
	slli	a1,a1,1
.LVL233:
	.loc 1 361 3
	addi	a1,a1,1
.LVL234:
	ld	a0,72(sp)
	addi	a0,a0,8
	call	caml_modify
.LVL235:
.LBE44:
	.loc 1 361 3
	.loc 1 362 3
.LBB45:
	.loc 1 362 3
	.loc 1 362 3
	ld	a1,caml_percent_free
	slli	a1,a1,1
.LVL236:
	.loc 1 362 3
	addi	a1,a1,1
.LVL237:
	ld	a0,72(sp)
	addi	a0,a0,16
	call	caml_modify
.LVL238:
.LBE45:
	.loc 1 362 3
	.loc 1 363 3
.LBB46:
	.loc 1 363 3
	.loc 1 363 3
	ld	a1,caml_verb_gc
	slli	a1,a1,1
.LVL239:
	.loc 1 363 3
	addi	a1,a1,1
.LVL240:
	ld	a0,72(sp)
	addi	a0,a0,24
	call	caml_modify
.LVL241:
.LBE46:
	.loc 1 363 3
	.loc 1 364 3
.LBB47:
	.loc 1 364 3
	.loc 1 364 3
	ld	a1,caml_percent_max
	slli	a1,a1,1
.LVL242:
	.loc 1 364 3
	addi	a1,a1,1
.LVL243:
	ld	a0,72(sp)
	addi	a0,a0,32
	call	caml_modify
.LVL244:
.LBE47:
	.loc 1 364 3
	.loc 1 368 3
.LBB48:
	.loc 1 368 3
	.loc 1 368 3
	.loc 1 368 3
	li	a1,1
	ld	a0,72(sp)
	addi	a0,a0,40
	call	caml_modify
.LVL245:
.LBE48:
	.loc 1 368 3
	.loc 1 370 3
.LBB49:
	.loc 1 370 3
	.loc 1 370 3
	ld	a1,caml_allocation_policy
	slli	a1,a1,1
.LVL246:
	.loc 1 370 3
	addi	a1,a1,1
.LVL247:
	ld	a0,72(sp)
	addi	a0,a0,48
	call	caml_modify
.LVL248:
.LBE49:
	.loc 1 370 3
	.loc 1 371 3
.LBB50:
	.loc 1 371 3
	.loc 1 371 3
	lw	a1,caml_major_window
	slli	a1,a1,1
.LVL249:
	.loc 1 371 3
	addi	a1,a1,1
.LVL250:
	ld	a0,72(sp)
	addi	a0,a0,56
	call	caml_modify
.LVL251:
.LBE50:
	.loc 1 371 3
	.loc 1 372 3
.LBB51:
	.loc 1 372 3
	.loc 1 372 3
	sd	s1,0(s0)
	.loc 1 372 3
.LBE51:
	.loc 1 372 3
	.loc 1 373 1 is_stmt 0
	ld	a0,72(sp)
	ld	ra,104(sp)
	.cfi_restore 1
	ld	s0,96(sp)
	.cfi_restore 8
	ld	s1,88(sp)
	.cfi_restore 9
.LVL252:
	addi	sp,sp,112
	.cfi_def_cfa_offset 0
.LVL253:
	jr	ra
	.cfi_endproc
.LFE19:
	.size	caml_gc_get, .-caml_gc_get
	.section	.rodata.str1.8
	.align	3
.LC4:
	.string	"New space overhead: %lu%%\n"
	.align	3
.LC5:
	.string	"New max overhead: %lu%%\n"
	.align	3
.LC6:
	.string	"New heap increment size: %luk words\n"
	.align	3
.LC7:
	.string	"New heap increment size: %lu%%\n"
	.align	3
.LC8:
	.string	"New allocation policy: %lu\n"
	.align	3
.LC9:
	.string	"New smoothing window size: %d\n"
	.align	3
.LC10:
	.string	"New minor heap size: %zuk words\n"
	.text
	.align	1
	.globl	caml_gc_set
	.type	caml_gc_set, @function
caml_gc_set:
.LFB24:
	.loc 1 402 1 is_stmt 1
	.cfi_startproc
.LVL254:
	addi	sp,sp,-32
	.cfi_def_cfa_offset 32
	sd	ra,24(sp)
	sd	s0,16(sp)
	sd	s1,8(sp)
	sd	s2,0(sp)
	.cfi_offset 1, -8
	.cfi_offset 8, -16
	.cfi_offset 9, -24
	.cfi_offset 18, -32
	mv	s0,a0
	.loc 1 403 3
	.loc 1 404 3
	.loc 1 405 3
	.loc 1 406 3
	.loc 1 407 29
	.loc 1 409 3
	.loc 1 409 18 is_stmt 0
	ld	a5,24(a0)
	srai	a5,a5,1
	.loc 1 409 16
	sd	a5,caml_verb_gc,a4
	.loc 1 415 3 is_stmt 1
	.loc 1 415 23 is_stmt 0
	ld	a0,16(a0)
.LVL255:
	.loc 1 415 11
	srai	a0,a0,1
	call	norm_pfree
.LVL256:
	.loc 1 416 3 is_stmt 1
	.loc 1 416 13 is_stmt 0
	ld	a5,caml_percent_free
	.loc 1 416 6
	bne	a5,a0,.L61
.LVL257:
.L53:
	.loc 1 422 3 is_stmt 1
	.loc 1 422 22 is_stmt 0
	ld	a0,32(s0)
	.loc 1 422 11
	srai	a0,a0,1
	call	norm_pmax
.LVL258:
	.loc 1 423 3 is_stmt 1
	.loc 1 423 13 is_stmt 0
	ld	a5,caml_percent_max
	.loc 1 423 6
	bne	a5,a0,.L62
.LVL259:
.L54:
	.loc 1 429 3 is_stmt 1
	.loc 1 429 17 is_stmt 0
	ld	a2,8(s0)
	srai	a2,a2,1
.LVL260:
	.loc 1 430 3 is_stmt 1
	.loc 1 430 19 is_stmt 0
	ld	a5,caml_major_heap_increment
	.loc 1 430 6
	beq	a5,a2,.L55
	.loc 1 431 5 is_stmt 1
	.loc 1 431 31 is_stmt 0
	sd	a2,caml_major_heap_increment,a5
	.loc 1 432 5 is_stmt 1
	.loc 1 432 8 is_stmt 0
	li	a5,1000
	bleu	a2,a5,.L56
	.loc 1 433 7 is_stmt 1
	srli	a2,a2,10
.LVL261:
	lla	a1,.LC6
	li	a0,32
	call	caml_gc_message
.LVL262:
.L55:
	.loc 1 442 3
	.loc 1 442 13 is_stmt 0
	lla	s1,caml_allocation_policy
	ld	s2,0(s1)
.LVL263:
	.loc 1 443 3 is_stmt 1
	.loc 1 443 31 is_stmt 0
	ld	a0,48(s0)
	.loc 1 443 3
	srai	a0,a0,1
	call	caml_set_allocation_policy
.LVL264:
	.loc 1 444 3 is_stmt 1
	.loc 1 444 17 is_stmt 0
	ld	a2,0(s1)
	.loc 1 444 6
	bne	a2,s2,.L63
.L57:
	.loc 1 450 3 is_stmt 1
	.loc 1 450 7 is_stmt 0
	ld	a5,-8(s0)
	srli	a5,a5,10
	.loc 1 450 6
	li	a4,7
	bgtu	a5,a4,.L64
.LVL265:
.L58:
	.loc 1 461 3 is_stmt 1
	.loc 1 461 29 is_stmt 0
	ld	a0,0(s0)
	.loc 1 461 15
	srai	a0,a0,1
	call	norm_minsize
.LVL266:
	mv	s0,a0
.LVL267:
	.loc 1 462 3 is_stmt 1
	.loc 1 462 17 is_stmt 0
	ld	a5,caml_minor_heap_wsz
	.loc 1 462 6
	bne	a5,a0,.L65
.L59:
	.loc 1 467 43 is_stmt 1
	.loc 1 468 3
	.loc 1 469 1 is_stmt 0
	li	a0,1
	ld	ra,24(sp)
	.cfi_remember_state
	.cfi_restore 1
	ld	s0,16(sp)
	.cfi_restore 8
.LVL268:
	ld	s1,8(sp)
	.cfi_restore 9
	ld	s2,0(sp)
	.cfi_restore 18
	addi	sp,sp,32
	.cfi_def_cfa_offset 0
	jr	ra
.LVL269:
.L61:
	.cfi_restore_state
	.loc 1 417 5 is_stmt 1
	.loc 1 417 23 is_stmt 0
	sd	a0,caml_percent_free,a5
	.loc 1 418 5 is_stmt 1
	mv	a2,a0
	lla	a1,.LC4
	li	a0,32
.LVL270:
	call	caml_gc_message
.LVL271:
	j	.L53
.LVL272:
.L62:
	.loc 1 424 5
	.loc 1 424 22 is_stmt 0
	sd	a0,caml_percent_max,a5
	.loc 1 425 5 is_stmt 1
	mv	a2,a0
	lla	a1,.LC5
	li	a0,32
.LVL273:
	call	caml_gc_message
.LVL274:
	j	.L54
.LVL275:
.L56:
	.loc 1 437 7
	lla	a1,.LC7
	li	a0,32
	call	caml_gc_message
.LVL276:
	j	.L55
.LVL277:
.L63:
	.loc 1 445 5
	lla	a1,.LC8
	li	a0,32
	call	caml_gc_message
.LVL278:
	j	.L57
.L64:
.LBB52:
	.loc 1 451 5
	.loc 1 451 9 is_stmt 0
	lla	s1,caml_major_window
	lw	s2,0(s1)
.LVL279:
	.loc 1 452 5 is_stmt 1
	.loc 1 452 41 is_stmt 0
	ld	a0,56(s0)
	.loc 1 452 28
	srai	a0,a0,1
	call	norm_window
.LVL280:
	.loc 1 452 5
	sext.w	a0,a0
	call	caml_set_major_window
.LVL281:
	.loc 1 453 5 is_stmt 1
	.loc 1 453 20 is_stmt 0
	lw	a2,0(s1)
	.loc 1 453 8
	beq	a2,s2,.L58
	.loc 1 454 7 is_stmt 1
	lla	a1,.LC9
	li	a0,32
	call	caml_gc_message
.LVL282:
	j	.L58
.LVL283:
.L65:
.LBE52:
	.loc 1 463 5
	srli	a2,a0,10
	lla	a1,.LC10
	li	a0,32
	call	caml_gc_message
.LVL284:
	.loc 1 465 5
	slli	a0,s0,3
	call	caml_set_minor_heap_size
.LVL285:
	j	.L59
	.cfi_endproc
.LFE24:
	.size	caml_gc_set, .-caml_gc_set
	.align	1
	.globl	caml_gc_minor
	.type	caml_gc_minor, @function
caml_gc_minor:
.LFB25:
	.loc 1 472 1
	.cfi_startproc
.LVL286:
	addi	sp,sp,-16
	.cfi_def_cfa_offset 16
	sd	ra,8(sp)
	.cfi_offset 1, -8
	.loc 1 473 29
	.loc 1 474 3
	.loc 1 475 3
	call	caml_request_minor_gc
.LVL287:
	.loc 1 476 3
	call	caml_gc_dispatch
.LVL288:
	.loc 1 477 45
	.loc 1 478 3
	.loc 1 479 1 is_stmt 0
	li	a0,1
	ld	ra,8(sp)
	.cfi_restore 1
	addi	sp,sp,16
	.cfi_def_cfa_offset 0
	jr	ra
	.cfi_endproc
.LFE25:
	.size	caml_gc_minor, .-caml_gc_minor
	.section	.rodata.str1.8
	.align	3
.LC11:
	.string	"Major GC cycle requested\n"
	.text
	.align	1
	.globl	caml_gc_major
	.type	caml_gc_major, @function
caml_gc_major:
.LFB27:
	.loc 1 497 1 is_stmt 1
	.cfi_startproc
.LVL289:
	addi	sp,sp,-16
	.cfi_def_cfa_offset 16
	sd	ra,8(sp)
	.cfi_offset 1, -8
	.loc 1 498 29
	.loc 1 499 3
	.loc 1 500 3
	lla	a1,.LC11
	li	a0,1
.LVL290:
	call	caml_gc_message
.LVL291:
	.loc 1 501 3
	call	caml_empty_minor_heap
.LVL292:
	.loc 1 502 3
	call	caml_finish_major_cycle
.LVL293:
	.loc 1 503 3
	call	test_and_compact
.LVL294:
	.loc 1 504 3
	call	caml_final_do_calls
.LVL295:
	.loc 1 505 45
	.loc 1 506 3
	.loc 1 507 1 is_stmt 0
	li	a0,1
	ld	ra,8(sp)
	.cfi_restore 1
	addi	sp,sp,16
	.cfi_def_cfa_offset 0
	jr	ra
	.cfi_endproc
.LFE27:
	.size	caml_gc_major, .-caml_gc_major
	.section	.rodata.str1.8
	.align	3
.LC12:
	.string	"Full major GC cycle requested\n"
	.text
	.align	1
	.globl	caml_gc_full_major
	.type	caml_gc_full_major, @function
caml_gc_full_major:
.LFB28:
	.loc 1 510 1 is_stmt 1
	.cfi_startproc
.LVL296:
	addi	sp,sp,-16
	.cfi_def_cfa_offset 16
	sd	ra,8(sp)
	.cfi_offset 1, -8
	.loc 1 511 29
	.loc 1 512 3
	.loc 1 513 3
	lla	a1,.LC12
	li	a0,1
.LVL297:
	call	caml_gc_message
.LVL298:
	.loc 1 514 3
	call	caml_empty_minor_heap
.LVL299:
	.loc 1 515 3
	call	caml_finish_major_cycle
.LVL300:
	.loc 1 516 3
	call	caml_final_do_calls
.LVL301:
	.loc 1 517 3
	call	caml_empty_minor_heap
.LVL302:
	.loc 1 518 3
	call	caml_finish_major_cycle
.LVL303:
	.loc 1 519 3
	call	test_and_compact
.LVL304:
	.loc 1 520 3
	call	caml_final_do_calls
.LVL305:
	.loc 1 521 50
	.loc 1 522 3
	.loc 1 523 1 is_stmt 0
	li	a0,1
	ld	ra,8(sp)
	.cfi_restore 1
	addi	sp,sp,16
	.cfi_def_cfa_offset 0
	jr	ra
	.cfi_endproc
.LFE28:
	.size	caml_gc_full_major, .-caml_gc_full_major
	.align	1
	.globl	caml_gc_major_slice
	.type	caml_gc_major_slice, @function
caml_gc_major_slice:
.LFB29:
	.loc 1 526 1 is_stmt 1
	.cfi_startproc
.LVL306:
	addi	sp,sp,-16
	.cfi_def_cfa_offset 16
	sd	ra,8(sp)
	.cfi_offset 1, -8
	.loc 1 527 29
	.loc 1 528 3
	.loc 1 529 3
	srai	a0,a0,1
.LVL307:
	call	caml_major_collection_slice
.LVL308:
	.loc 1 530 51
	.loc 1 531 3
	.loc 1 532 1 is_stmt 0
	li	a0,1
	ld	ra,8(sp)
	.cfi_restore 1
	addi	sp,sp,16
	.cfi_def_cfa_offset 0
	jr	ra
	.cfi_endproc
.LFE29:
	.size	caml_gc_major_slice, .-caml_gc_major_slice
	.section	.rodata.str1.8
	.align	3
.LC13:
	.string	"Heap compaction requested\n"
	.text
	.align	1
	.globl	caml_gc_compaction
	.type	caml_gc_compaction, @function
caml_gc_compaction:
.LFB30:
	.loc 1 535 1 is_stmt 1
	.cfi_startproc
.LVL309:
	addi	sp,sp,-16
	.cfi_def_cfa_offset 16
	sd	ra,8(sp)
	.cfi_offset 1, -8
	.loc 1 536 29
	.loc 1 537 3
	.loc 1 538 3
	lla	a1,.LC13
	li	a0,16
.LVL310:
	call	caml_gc_message
.LVL311:
	.loc 1 539 3
	call	caml_empty_minor_heap
.LVL312:
	.loc 1 540 3
	call	caml_finish_major_cycle
.LVL313:
	.loc 1 541 3
	call	caml_final_do_calls
.LVL314:
	.loc 1 542 3
	call	caml_empty_minor_heap
.LVL315:
	.loc 1 543 3
	call	caml_finish_major_cycle
.LVL316:
	.loc 1 544 3
	call	caml_compact_heap
.LVL317:
	.loc 1 545 3
	call	caml_final_do_calls
.LVL318:
	.loc 1 546 47
	.loc 1 547 3
	.loc 1 548 1 is_stmt 0
	li	a0,1
	ld	ra,8(sp)
	.cfi_restore 1
	addi	sp,sp,16
	.cfi_def_cfa_offset 0
	jr	ra
	.cfi_endproc
.LFE30:
	.size	caml_gc_compaction, .-caml_gc_compaction
	.align	1
	.globl	caml_get_minor_free
	.type	caml_get_minor_free, @function
caml_get_minor_free:
.LFB31:
	.loc 1 551 1 is_stmt 1
	.cfi_startproc
.LVL319:
	.loc 1 552 3
	.loc 1 552 10 is_stmt 0
	ld	a0,caml_young_ptr
.LVL320:
	ld	a5,caml_young_alloc_start
	sub	a0,a0,a5
	srai	a0,a0,3
	slli	a0,a0,1
	.loc 1 553 1
	addi	a0,a0,1
	ret
	.cfi_endproc
.LFE31:
	.size	caml_get_minor_free, .-caml_get_minor_free
	.section	.rodata.str1.8
	.align	3
.LC14:
	.string	"Gc.get_bucket"
	.text
	.align	1
	.globl	caml_get_major_bucket
	.type	caml_get_major_bucket, @function
caml_get_major_bucket:
.LFB32:
	.loc 1 556 1 is_stmt 1
	.cfi_startproc
.LVL321:
	.loc 1 557 3
	.loc 1 558 3
	.loc 1 558 6 is_stmt 0
	blt	a0,zero,.L85
	srai	a3,a0,1
.LVL322:
	.loc 1 559 3 is_stmt 1
	.loc 1 559 9 is_stmt 0
	lw	a4,caml_major_window
	.loc 1 559 6
	ble	a4,a3,.L81
	.loc 1 560 5 is_stmt 1
	.loc 1 560 7 is_stmt 0
	lw	a5,caml_major_ring_index
	add	a5,a5,a3
.LVL323:
	.loc 1 561 5 is_stmt 1
	.loc 1 561 8 is_stmt 0
	bgt	a4,a5,.L80
	.loc 1 561 33 is_stmt 1 discriminator 1
	.loc 1 561 35 is_stmt 0 discriminator 1
	sub	a5,a5,a4
.LVL324:
.L80:
	.loc 1 562 5 is_stmt 1
	.loc 1 563 5
	.loc 1 563 12 is_stmt 0
	slli	a5,a5,3
.LVL325:
	lla	a4,caml_major_ring
	add	a5,a4,a5
	fld	fa5,0(a5)
	fld	fa4,.LC15,a5
	fmul.d	fa5,fa5,fa4
	fcvt.l.d a0,fa5,rtz
.LVL326:
	slli	a0,a0,1
	addi	a0,a0,1
	ret
.LVL327:
.L85:
	.loc 1 556 1 discriminator 1
	addi	sp,sp,-16
	.cfi_def_cfa_offset 16
	sd	ra,8(sp)
	.cfi_offset 1, -8
	.loc 1 558 14 is_stmt 1 discriminator 1
	lla	a0,.LC14
.LVL328:
	call	caml_invalid_argument
.LVL329:
.L81:
	.cfi_def_cfa_offset 0
	.cfi_restore 1
	.loc 1 565 12 is_stmt 0
	li	a0,1
.LVL330:
	.loc 1 567 1
	ret
	.cfi_endproc
.LFE32:
	.size	caml_get_major_bucket, .-caml_get_major_bucket
	.align	1
	.globl	caml_get_major_credit
	.type	caml_get_major_credit, @function
caml_get_major_credit:
.LFB33:
	.loc 1 570 1 is_stmt 1
	.cfi_startproc
.LVL331:
	.loc 1 571 3
	.loc 1 572 3
	.loc 1 572 10 is_stmt 0
	fld	fa5,caml_major_work_credit,a5
	fld	fa4,.LC15,a5
	fmul.d	fa5,fa5,fa4
	fcvt.l.d a0,fa5,rtz
.LVL332:
	slli	a0,a0,1
	.loc 1 573 1
	addi	a0,a0,1
	ret
	.cfi_endproc
.LFE33:
	.size	caml_get_major_credit, .-caml_get_major_credit
	.align	1
	.globl	caml_normalize_heap_increment
	.type	caml_normalize_heap_increment, @function
caml_normalize_heap_increment:
.LFB34:
	.loc 1 576 1 is_stmt 1
	.cfi_startproc
.LVL333:
	.loc 1 577 3
	.loc 1 577 6 is_stmt 0
	li	a5,491520
	bgeu	a0,a5,.L88
	.loc 1 578 7
	li	a0,491520
.LVL334:
.L88:
	.loc 1 580 3 is_stmt 1
	.loc 1 580 26 is_stmt 0
	li	a5,4096
	addi	a5,a5,-1
	add	a0,a0,a5
.LVL335:
	.loc 1 581 1
	li	a5,-4096
	and	a0,a0,a5
.LVL336:
	ret
	.cfi_endproc
.LFE34:
	.size	caml_normalize_heap_increment, .-caml_normalize_heap_increment
	.section	.rodata.str1.8
	.align	3
.LC16:
	.string	"cannot initialize heap: mmap failed\n"
	.align	3
.LC17:
	.string	"OCaml runtime error: cannot initialize page table\n"
	.align	3
.LC18:
	.string	"Initial minor heap size: %zuk words\n"
	.align	3
.LC19:
	.string	"Initial major heap size: %luk bytes\n"
	.align	3
.LC20:
	.string	"Initial space overhead: %lu%%\n"
	.align	3
.LC21:
	.string	"Initial max overhead: %lu%%\n"
	.align	3
.LC22:
	.string	"Initial heap increment: %luk words\n"
	.align	3
.LC23:
	.string	"Initial heap increment: %lu%%\n"
	.align	3
.LC24:
	.string	"Initial allocation policy: %lu\n"
	.align	3
.LC25:
	.string	"Initial smoothing window: %d\n"
	.text
	.align	1
	.globl	caml_init_gc
	.type	caml_init_gc, @function
caml_init_gc:
.LFB35:
	.loc 1 588 1 is_stmt 1
	.cfi_startproc
.LVL337:
	addi	sp,sp,-64
	.cfi_def_cfa_offset 64
	sd	ra,56(sp)
	sd	s0,48(sp)
	sd	s1,40(sp)
	sd	s2,32(sp)
	sd	s3,24(sp)
	sd	s4,16(sp)
	sd	s5,8(sp)
	.cfi_offset 1, -8
	.cfi_offset 8, -16
	.cfi_offset 9, -24
	.cfi_offset 18, -32
	.cfi_offset 19, -40
	.cfi_offset 20, -48
	.cfi_offset 21, -56
	mv	s1,a0
	mv	s3,a2
	mv	s5,a3
	mv	s2,a4
	mv	s4,a5
	.loc 1 589 3
	.loc 1 590 5 is_stmt 0
	mv	a0,a1
.LVL338:
	call	caml_normalize_heap_increment
.LVL339:
	.loc 1 589 11
	slli	s0,a0,3
.LVL340:
	.loc 1 592 21 is_stmt 1
	.loc 1 593 3
	.loc 1 593 7 is_stmt 0
	call	caml_init_alloc_for_heap
.LVL341:
	.loc 1 593 6
	bne	a0,zero,.L96
	.loc 1 596 3 is_stmt 1
	.loc 1 596 34 is_stmt 0
	slli	a0,s1,3
	.loc 1 596 7
	add	a0,a0,s0
	call	caml_page_table_initialize
.LVL342:
	.loc 1 596 6
	bne	a0,zero,.L97
	.loc 1 599 3 is_stmt 1
	.loc 1 599 29 is_stmt 0
	mv	a0,s1
	call	norm_minsize
.LVL343:
	.loc 1 599 3
	slli	a0,a0,3
	call	caml_set_minor_heap_size
.LVL344:
	.loc 1 600 3 is_stmt 1
	.loc 1 600 29 is_stmt 0
	lla	s1,caml_major_heap_increment
.LVL345:
	sd	s3,0(s1)
	.loc 1 601 3 is_stmt 1
	.loc 1 601 23 is_stmt 0
	mv	a0,s5
	call	norm_pfree
.LVL346:
	.loc 1 601 21
	lla	s3,caml_percent_free
.LVL347:
	sd	a0,0(s3)
	.loc 1 602 3 is_stmt 1
	.loc 1 602 22 is_stmt 0
	mv	a0,s2
	call	norm_pmax
.LVL348:
	.loc 1 602 20
	lla	s2,caml_percent_max
.LVL349:
	sd	a0,0(s2)
	.loc 1 603 3 is_stmt 1
	mv	a0,s0
	call	caml_init_major_heap
.LVL350:
	.loc 1 604 3
	.loc 1 604 23 is_stmt 0
	mv	a0,s4
	call	norm_window
.LVL351:
	.loc 1 604 21
	sw	a0,caml_major_window,a5
	.loc 1 605 3 is_stmt 1
	ld	a2,caml_minor_heap_wsz
	srli	a2,a2,10
	lla	a1,.LC18
	li	a0,32
	call	caml_gc_message
.LVL352:
	.loc 1 608 3
	srli	a2,s0,10
	lla	a1,.LC19
	li	a0,32
	call	caml_gc_message
.LVL353:
	.loc 1 611 3
	ld	a2,0(s3)
	lla	a1,.LC20
	li	a0,32
	call	caml_gc_message
.LVL354:
	.loc 1 613 3
	ld	a2,0(s2)
	lla	a1,.LC21
	li	a0,32
	call	caml_gc_message
.LVL355:
	.loc 1 615 3
	.loc 1 615 33 is_stmt 0
	ld	a2,0(s1)
	.loc 1 615 6
	li	a5,1000
	bleu	a2,a5,.L93
	.loc 1 616 5 is_stmt 1
	srli	a2,a2,10
	lla	a1,.LC22
	li	a0,32
	call	caml_gc_message
.LVL356:
.L94:
	.loc 1 624 3
	ld	a2,caml_allocation_policy
	lla	a1,.LC24
	li	a0,32
	call	caml_gc_message
.LVL357:
	.loc 1 626 3
	lw	a2,caml_major_window
	lla	a1,.LC25
	li	a0,32
	call	caml_gc_message
.LVL358:
	.loc 1 628 1 is_stmt 0
	ld	ra,56(sp)
	.cfi_remember_state
	.cfi_restore 1
	ld	s0,48(sp)
	.cfi_restore 8
.LVL359:
	ld	s1,40(sp)
	.cfi_restore 9
	ld	s2,32(sp)
	.cfi_restore 18
	ld	s3,24(sp)
	.cfi_restore 19
	ld	s4,16(sp)
	.cfi_restore 20
.LVL360:
	ld	s5,8(sp)
	.cfi_restore 21
.LVL361:
	addi	sp,sp,64
	.cfi_def_cfa_offset 0
	jr	ra
.LVL362:
.L96:
	.cfi_restore_state
	.loc 1 594 5 is_stmt 1
	lla	a0,.LC16
	call	caml_fatal_error
.LVL363:
.L97:
	.loc 1 597 5
	lla	a0,.LC17
	call	caml_fatal_error
.LVL364:
.L93:
	.loc 1 620 5
	lla	a1,.LC23
	li	a0,32
	call	caml_gc_message
.LVL365:
	j	.L94
	.cfi_endproc
.LFE35:
	.size	caml_init_gc, .-caml_init_gc
	.section	.rodata.str1.8
	.align	3
.LC26:
	.string	""
	.text
	.align	1
	.globl	caml_runtime_variant
	.type	caml_runtime_variant, @function
caml_runtime_variant:
.LFB36:
	.loc 1 634 1
	.cfi_startproc
.LVL366:
	addi	sp,sp,-16
	.cfi_def_cfa_offset 16
	sd	ra,8(sp)
	.cfi_offset 1, -8
	.loc 1 635 3
	.loc 1 641 3
	.loc 1 641 10 is_stmt 0
	lla	a0,.LC26
.LVL367:
	call	caml_copy_string
.LVL368:
	.loc 1 643 1
	ld	ra,8(sp)
	.cfi_restore 1
	addi	sp,sp,16
	.cfi_def_cfa_offset 0
	jr	ra
	.cfi_endproc
.LFE36:
	.size	caml_runtime_variant, .-caml_runtime_variant
	.section	.rodata.str1.8
	.align	3
.LC27:
	.string	"a=%d,b=%d,H=%lu,i=%lu,l=%lu,o=%lu,O=%lu,p=%d,s=%zu,t=%lu,v=%lu,w=%d,W=%lu"
	.text
	.align	1
	.globl	caml_runtime_parameters
	.type	caml_runtime_parameters, @function
caml_runtime_parameters:
.LFB37:
	.loc 1 648 1 is_stmt 1
	.cfi_startproc
.LVL369:
	addi	sp,sp,-64
	.cfi_def_cfa_offset 64
	sd	ra,56(sp)
	.cfi_offset 1, -8
	.loc 1 652 3
	.loc 1 653 3
	.loc 1 653 10 is_stmt 0
	ld	a5,caml_runtime_warnings
	sd	a5,40(sp)
	lw	a5,caml_major_window
	sd	a5,32(sp)
	ld	a5,caml_verb_gc
	sd	a5,24(sp)
	ld	a5,caml_trace_level
	sd	a5,16(sp)
	ld	a5,caml_minor_heap_wsz
	sd	a5,8(sp)
	lw	a5,caml_parser_trace
	sd	a5,0(sp)
	ld	a7,caml_percent_max
	ld	a6,caml_percent_free
	li	a5,0
	ld	a4,caml_major_heap_increment
	ld	a3,caml_use_huge_pages
	lw	a2,caml_backtrace_active
	lw	a1,caml_allocation_policy
	lla	a0,.LC27
.LVL370:
	call	caml_alloc_sprintf
.LVL371:
	.loc 1 677 1
	ld	ra,56(sp)
	.cfi_restore 1
	addi	sp,sp,64
	.cfi_def_cfa_offset 0
	jr	ra
	.cfi_endproc
.LFE37:
	.size	caml_runtime_parameters, .-caml_runtime_parameters
	.align	1
	.globl	caml_ml_enable_runtime_warnings
	.type	caml_ml_enable_runtime_warnings, @function
caml_ml_enable_runtime_warnings:
.LFB38:
	.loc 1 682 1 is_stmt 1
	.cfi_startproc
.LVL372:
	.loc 1 683 3
	.loc 1 683 27 is_stmt 0
	srai	a0,a0,1
.LVL373:
	sext.w	a0,a0
	.loc 1 683 25
	sd	a0,caml_runtime_warnings,a5
	.loc 1 684 3 is_stmt 1
	.loc 1 685 1 is_stmt 0
	li	a0,1
	ret
	.cfi_endproc
.LFE38:
	.size	caml_ml_enable_runtime_warnings, .-caml_ml_enable_runtime_warnings
	.align	1
	.globl	caml_ml_runtime_warnings_enabled
	.type	caml_ml_runtime_warnings_enabled, @function
caml_ml_runtime_warnings_enabled:
.LFB39:
	.loc 1 688 1 is_stmt 1
	.cfi_startproc
.LVL374:
	.loc 1 689 3
	.loc 1 690 3
	.loc 1 690 10 is_stmt 0
	ld	a5,caml_runtime_warnings
	bne	a5,zero,.L106
	li	a0,1
.LVL375:
	.loc 1 691 1
	ret
.LVL376:
.L106:
	.loc 1 690 10
	li	a0,3
.LVL377:
	ret
	.cfi_endproc
.LFE39:
	.size	caml_ml_runtime_warnings_enabled, .-caml_ml_runtime_warnings_enabled
	.globl	caml_stat_heap_chunks
	.globl	caml_stat_compactions
	.globl	caml_stat_top_heap_wsz
	.globl	caml_stat_heap_wsz
	.globl	caml_stat_major_collections
	.globl	caml_stat_minor_collections
	.globl	caml_stat_major_words
	.globl	caml_stat_promoted_words
	.globl	caml_stat_minor_words
	.comm	caml_major_work_credit,8,8
	.comm	caml_major_ring_index,4,4
	.comm	caml_major_ring,400,8
	.section	.srodata.cst4,"aM",@progbits,4
	.align	2
.LC0:
	.word	1232348144
	.section	.srodata.cst8,"aM",@progbits,8
	.align	3
.LC1:
	.word	0
	.word	1079574528
	.align	3
.LC15:
	.word	0
	.word	1093567616
	.section	.sbss,"aw",@nobits
	.align	3
	.type	caml_stat_heap_chunks, @object
	.size	caml_stat_heap_chunks, 8
caml_stat_heap_chunks:
	.zero	8
	.type	caml_stat_compactions, @object
	.size	caml_stat_compactions, 8
caml_stat_compactions:
	.zero	8
	.type	caml_stat_top_heap_wsz, @object
	.size	caml_stat_top_heap_wsz, 8
caml_stat_top_heap_wsz:
	.zero	8
	.type	caml_stat_heap_wsz, @object
	.size	caml_stat_heap_wsz, 8
caml_stat_heap_wsz:
	.zero	8
	.type	caml_stat_major_collections, @object
	.size	caml_stat_major_collections, 8
caml_stat_major_collections:
	.zero	8
	.type	caml_stat_minor_collections, @object
	.size	caml_stat_minor_collections, 8
caml_stat_minor_collections:
	.zero	8
	.type	caml_stat_major_words, @object
	.size	caml_stat_major_words, 8
caml_stat_major_words:
	.zero	8
	.type	caml_stat_promoted_words, @object
	.size	caml_stat_promoted_words, 8
caml_stat_promoted_words:
	.zero	8
	.type	caml_stat_minor_words, @object
	.size	caml_stat_minor_words, 8
caml_stat_minor_words:
	.zero	8
	.text
.Letext0:
	.file 2 "caml/config.h"
	.file 3 "/home/sai/Shakti-TEE-Build/riscv/lib/gcc/riscv64-unknown-elf/9.2.0/include/stddef.h"
	.file 4 "caml/misc.h"
	.file 5 "caml/mlvalues.h"
	.file 6 "caml/backtrace.h"
	.file 7 "caml/custom.h"
	.file 8 "/home/sai/ocaml-freestanding-riscv/nolibc/include/signal.h"
	.file 9 "caml/fail.h"
	.file 10 "caml/freelist.h"
	.file 11 "caml/major_gc.h"
	.file 12 "caml/address_class.h"
	.file 13 "caml/minor_gc.h"
	.file 14 "caml/memory.h"
	.file 15 "caml/roots.h"
	.file 16 "caml/gc_ctrl.h"
	.file 17 "caml/signals.h"
	.file 18 "caml/stack.h"
	.file 19 "caml/startup_aux.h"
	.file 20 "caml/alloc.h"
	.file 21 "caml/finalise.h"
	.file 22 "caml/compact.h"