	.file	"intern.c"
	.option nopic
	.attribute arch, "rv64i2p0_m2p0_a2p0_f2p0_d2p0_c2p0"
	.attribute unaligned_access, 0
	.attribute stack_align, 16
	.text
.Ltext0:
	.cfi_sections	.debug_frame
	.align	1
	.type	read64u, @function
read64u:
.LFB18:
	.file 1 "intern.c"
	.loc 1 117 1
	.cfi_startproc
	.loc 1 118 3
	.loc 1 119 27 is_stmt 0
	lla	a2,intern_src
	ld	a4,0(a2)
	lbu	a5,0(a4)
	.loc 1 119 32
	slli	a5,a5,56
	.loc 1 120 29
	lbu	a3,1(a4)
	.loc 1 120 34
	slli	a3,a3,48
	.loc 1 120 5
	add	a5,a5,a3
	.loc 1 121 29
	lbu	a3,2(a4)
	.loc 1 121 34
	slli	a3,a3,40
	.loc 1 121 5
	add	a5,a5,a3
	.loc 1 122 29
	lbu	a0,3(a4)
	.loc 1 122 34
	slli	a0,a0,32
	.loc 1 122 5
	add	a5,a5,a0
	.loc 1 123 29
	lbu	a0,4(a4)
	.loc 1 123 34
	slli	a0,a0,24
	.loc 1 123 5
	add	a5,a5,a0
	.loc 1 124 29
	lbu	a0,5(a4)
	.loc 1 124 34
	slli	a0,a0,16
	.loc 1 124 5
	add	a5,a5,a0
	.loc 1 125 29
	lbu	a0,6(a4)
	.loc 1 125 34
	slli	a0,a0,8
	.loc 1 125 5
	add	a5,a5,a0
	.loc 1 126 28
	lbu	a0,7(a4)
.LVL0:
	.loc 1 127 3 is_stmt 1
	.loc 1 127 14 is_stmt 0
	addi	a4,a4,8
	sd	a4,0(a2)
	.loc 1 128 3 is_stmt 1
	.loc 1 129 1 is_stmt 0
	add	a0,a5,a0
.LVL1:
	ret
	.cfi_endproc
.LFE18:
	.size	read64u, .-read64u
	.align	1
	.type	intern_init, @function
intern_init:
.LFB20:
	.loc 1 139 1 is_stmt 1
	.cfi_startproc
.LVL2:
	.loc 1 143 3
	.loc 1 145 3
	.loc 1 145 14 is_stmt 0
	sd	a0,intern_src,a5
	.loc 1 146 3 is_stmt 1
	.loc 1 146 16 is_stmt 0
	sd	a1,intern_input,a5
	.loc 1 147 1
	ret
	.cfi_endproc
.LFE20:
	.size	intern_init, .-intern_init
	.align	1
	.type	intern_free_stack, @function
intern_free_stack:
.LFB24:
	.loc 1 257 1 is_stmt 1
	.cfi_startproc
	.loc 1 258 3
	.loc 1 258 20 is_stmt 0
	ld	a0,intern_stack
	.loc 1 258 6
	lla	a5,intern_stack_init
	beq	a0,a5,.L6
	.loc 1 257 1
	addi	sp,sp,-16
	.cfi_def_cfa_offset 16
	sd	ra,8(sp)
	.cfi_offset 1, -8
	.loc 1 259 5 is_stmt 1
	call	caml_stat_free
.LVL3:
	.loc 1 261 5
	.loc 1 261 18 is_stmt 0
	lla	a5,intern_stack_init
	sd	a5,intern_stack,a4
	.loc 1 262 5 is_stmt 1
	.loc 1 262 24 is_stmt 0
	lla	a5,intern_stack_init+6144
	sd	a5,intern_stack_limit,a4
	.loc 1 264 1
	ld	ra,8(sp)
	.cfi_restore 1
	addi	sp,sp,16
	.cfi_def_cfa_offset 0
	jr	ra
.L6:
	ret
	.cfi_endproc
.LFE24:
	.size	intern_free_stack, .-intern_free_stack
	.section	.rodata.str1.8,"aMS",@progbits,1
	.align	3
.LC0:
	.string	"%s: bad object"
	.text
	.align	1
	.type	caml_parse_header, @function
caml_parse_header:
.LFB30:
	.loc 1 655 1 is_stmt 1
	.cfi_startproc
.LVL4:
	addi	sp,sp,-128
	.cfi_def_cfa_offset 128
	sd	ra,120(sp)
	sd	s0,112(sp)
	.cfi_offset 1, -8
	.cfi_offset 8, -16
	mv	s0,a1
	.loc 1 656 3
	.loc 1 658 3
.LBB75:
.LBB76:
	.loc 1 99 3
	.loc 1 100 27 is_stmt 0
	lla	a1,intern_src
.LVL5:
	ld	a2,0(a1)
	.loc 1 100 6
	lbu	a5,0(a2)
	.loc 1 100 32
	slliw	a5,a5,24
	.loc 1 100 52
	lbu	a4,1(a2)
	.loc 1 100 56
	slliw	a4,a4,16
	.loc 1 100 39
	addw	a5,a5,a4
	.loc 1 101 18
	lbu	a4,2(a2)
	.loc 1 101 22
	slliw	a4,a4,8
	.loc 1 101 5
	addw	a5,a5,a4
	.loc 1 101 40
	lbu	a4,3(a2)
	.loc 1 99 12
	addw	a5,a5,a4
	sext.w	a3,a5
.LVL6:
	.loc 1 102 3 is_stmt 1
	.loc 1 102 14 is_stmt 0
	addi	a4,a2,4
	sd	a4,0(a1)
	.loc 1 103 3 is_stmt 1
.LVL7:
.LBE76:
.LBE75:
	.loc 1 658 12 is_stmt 0
	sw	a5,0(s0)
	.loc 1 659 3 is_stmt 1
	li	a5,-2070568960
	addi	a5,a5,1726
	beq	a3,a5,.L10
	li	a5,-2070568960
	addi	a5,a5,1727
	bne	a3,a5,.L16
	.loc 1 674 5
	.loc 1 674 19 is_stmt 0
	li	a5,32
	sw	a5,4(s0)
	.loc 1 675 5 is_stmt 1
.LBB77:
.LBB78:
	.loc 1 99 3
.LVL8:
	.loc 1 102 3
	.loc 1 102 14 is_stmt 0
	addi	a4,a4,4
	sd	a4,intern_src,a5
	.loc 1 103 3 is_stmt 1
.LBE78:
.LBE77:
	.loc 1 676 5
	.loc 1 676 19 is_stmt 0
	call	read64u
.LVL9:
	.loc 1 676 17
	sd	a0,8(s0)
	.loc 1 677 5 is_stmt 1
	.loc 1 677 22 is_stmt 0
	call	read64u
.LVL10:
	.loc 1 677 20
	sd	a0,16(s0)
	.loc 1 678 5 is_stmt 1
	.loc 1 678 17 is_stmt 0
	call	read64u
.LVL11:
	.loc 1 678 15
	sd	a0,24(s0)
	.loc 1 686 5 is_stmt 1
	j	.L9
.LVL12:
.L10:
	.loc 1 661 5
	.loc 1 661 19 is_stmt 0
	li	a5,20
	sw	a5,4(s0)
	.loc 1 662 5 is_stmt 1
.LBB79:
.LBB80:
	.loc 1 99 3
	.loc 1 100 6 is_stmt 0
	lbu	a5,4(a2)
	.loc 1 100 32
	slliw	a5,a5,24
	.loc 1 100 52
	lbu	a3,1(a4)
	.loc 1 100 56
	slliw	a3,a3,16
	.loc 1 100 39
	addw	a5,a5,a3
	.loc 1 101 18
	lbu	a3,2(a4)
	.loc 1 101 22
	slliw	a3,a3,8
	.loc 1 101 5
	addw	a5,a5,a3
	.loc 1 101 40
	lbu	a3,3(a4)
	.loc 1 99 12
	addw	a5,a5,a3
.LVL13:
	.loc 1 102 3 is_stmt 1
	.loc 1 103 3
.LBE80:
.LBE79:
	.loc 1 662 19 is_stmt 0
	slli	a5,a5,32
	srli	a5,a5,32
	.loc 1 662 17
	sd	a5,8(s0)
	.loc 1 663 5 is_stmt 1
.LBB81:
.LBB82:
	.loc 1 99 3
	.loc 1 100 6 is_stmt 0
	lbu	a5,4(a4)
	.loc 1 100 32
	slliw	a5,a5,24
	.loc 1 100 52
	lbu	a3,5(a4)
	.loc 1 100 56
	slliw	a3,a3,16
	.loc 1 100 39
	addw	a5,a5,a3
	.loc 1 101 18
	lbu	a3,6(a4)
	.loc 1 101 22
	slliw	a3,a3,8
	.loc 1 101 5
	addw	a5,a5,a3
	.loc 1 101 40
	lbu	a3,7(a4)
	.loc 1 99 12
	addw	a5,a5,a3
.LVL14:
	.loc 1 102 3 is_stmt 1
	.loc 1 103 3
.LBE82:
.LBE81:
	.loc 1 663 22 is_stmt 0
	slli	a5,a5,32
	srli	a5,a5,32
	.loc 1 663 20
	sd	a5,16(s0)
	.loc 1 665 5 is_stmt 1
.LBB83:
.LBB84:
	.loc 1 99 3
.LVL15:
	.loc 1 102 3
	.loc 1 103 3
.LBE84:
.LBE83:
	.loc 1 666 5
.LBB85:
.LBB86:
	.loc 1 99 3
	.loc 1 100 6 is_stmt 0
	lbu	a5,12(a4)
	.loc 1 100 32
	slliw	a5,a5,24
	.loc 1 100 52
	lbu	a3,13(a4)
	.loc 1 100 56
	slliw	a3,a3,16
	.loc 1 100 39
	addw	a5,a5,a3
	.loc 1 101 18
	lbu	a3,14(a4)
	.loc 1 101 22
	slliw	a3,a3,8
	.loc 1 101 5
	addw	a5,a5,a3
	.loc 1 101 40
	lbu	a3,15(a4)
	.loc 1 99 12
	addw	a5,a5,a3
.LVL16:
	.loc 1 102 3 is_stmt 1
	.loc 1 102 14 is_stmt 0
	addi	a4,a4,16
	sd	a4,intern_src,a3
	.loc 1 103 3 is_stmt 1
.LVL17:
.LBE86:
.LBE85:
	.loc 1 666 17 is_stmt 0
	slli	a5,a5,32
	srli	a5,a5,32
	.loc 1 666 15
	sd	a5,24(s0)
	.loc 1 671 5 is_stmt 1
.LVL18:
.L9:
	.loc 1 694 1 is_stmt 0
	ld	ra,120(sp)
	.cfi_remember_state
	.cfi_restore 1
	ld	s0,112(sp)
	.cfi_restore 8
.LVL19:
	addi	sp,sp,128
	.cfi_def_cfa_offset 0
	jr	ra
.LVL20:
.L16:
	.cfi_restore_state
	.loc 1 688 5 is_stmt 1
	.loc 1 688 32 is_stmt 0
	sb	zero,107(sp)
	.loc 1 689 5 is_stmt 1
	mv	a3,a0
	lla	a2,.LC0
	li	a1,99
	addi	a0,sp,8
.LVL21:
	call	snprintf
.LVL22:
	.loc 1 692 5
	addi	a0,sp,8
	call	caml_failwith
.LVL23:
	.cfi_endproc
.LFE30:
	.size	caml_parse_header, .-caml_parse_header
	.section	.rodata.str1.8
	.align	3
.LC1:
	.string	"input_value: unknown code module %02X%02X%02X%02X%02X%02X%02X%02X%02X%02X%02X%02X%02X%02X%02X%02X"
	.text
	.align	1
	.type	intern_bad_code_pointer, @function
intern_bad_code_pointer:
.LFB43:
	.loc 1 908 1
	.cfi_startproc
.LVL24:
	addi	sp,sp,-368
	.cfi_def_cfa_offset 368
	sd	ra,360(sp)
	.cfi_offset 1, -8
	.loc 1 909 3
	.loc 1 910 3
	lbu	a5,15(a0)
	sd	a5,80(sp)
	lbu	a5,14(a0)
	sd	a5,72(sp)
	lbu	a5,13(a0)
	sd	a5,64(sp)
	lbu	a5,12(a0)
	sd	a5,56(sp)
	lbu	a5,11(a0)
	sd	a5,48(sp)
	lbu	a5,10(a0)
	sd	a5,40(sp)
	lbu	a5,9(a0)
	sd	a5,32(sp)
	lbu	a5,8(a0)
	sd	a5,24(sp)
	lbu	a5,7(a0)
	sd	a5,16(sp)
	lbu	a5,6(a0)
	sd	a5,8(sp)
	lbu	a5,5(a0)
	sd	a5,0(sp)
	lbu	a7,4(a0)
	lbu	a6,3(a0)
	lbu	a5,2(a0)
	lbu	a4,1(a0)
	lbu	a3,0(a0)
	lla	a2,.LC1
	li	a1,256
	addi	a0,sp,96
.LVL25:
	call	snprintf
.LVL26:
	.loc 1 918 3
	addi	a0,sp,96
	call	caml_failwith
.LVL27:
	.cfi_endproc
.LFE43:
	.size	intern_bad_code_pointer, .-intern_bad_code_pointer
	.align	1
	.type	readfloat, @function
readfloat:
.LFB22:
	.loc 1 173 1
	.cfi_startproc
.LVL28:
	.loc 1 174 3
	.loc 1 178 3
.LBB87:
.LBB88:
	.loc 1 134 3
	lla	a4,intern_src
	ld	a5,0(a4)
	lbu	t5,0(a5)
	lbu	t4,1(a5)
	lbu	t3,2(a5)
	lbu	t1,3(a5)
	lbu	a7,4(a5)
	lbu	a6,5(a5)
	lbu	a2,6(a5)
	lbu	a3,7(a5)
	sb	t5,0(a0)
	sb	t4,1(a0)
	sb	t3,2(a0)
	sb	t1,3(a0)
	sb	a7,4(a0)
	sb	a6,5(a0)
	sb	a2,6(a0)
	sb	a3,7(a0)
	.loc 1 135 3
	.loc 1 135 14 is_stmt 0
	addi	a5,a5,8
	sd	a5,0(a4)
.LVL29:
.LBE88:
.LBE87:
	.loc 1 185 3 is_stmt 1
	.loc 1 185 6 is_stmt 0
	li	a5,12
	beq	a1,a5,.L19
.LBB89:
	.loc 1 185 35 is_stmt 1 discriminator 1
	.loc 1 185 35 discriminator 1
	.loc 1 185 35 discriminator 1
.LVL30:
	.loc 1 185 35 discriminator 1
	.loc 1 185 35 discriminator 1
	andi	a4,t5,0xff
.LVL31:
	.loc 1 185 35 discriminator 1
	andi	a5,t4,0xff
.LVL32:
	.loc 1 185 35 discriminator 1
	andi	a3,a3,0xff
	sb	a3,0(a0)
	.loc 1 185 35 discriminator 1
	andi	a3,a2,0xff
	sb	a3,1(a0)
	.loc 1 185 35 discriminator 1
	sb	a4,7(a0)
	.loc 1 185 35 discriminator 1
	sb	a5,6(a0)
	.loc 1 185 35 discriminator 1
	andi	a4,t3,0xff
.LVL33:
	.loc 1 185 35 discriminator 1
	andi	a5,t1,0xff
.LVL34:
	.loc 1 185 35 discriminator 1
	andi	a3,a6,0xff
	sb	a3,2(a0)
	.loc 1 185 35 discriminator 1
	andi	a3,a7,0xff
	sb	a3,3(a0)
	.loc 1 185 35 discriminator 1
	sb	a4,5(a0)
	.loc 1 185 35 discriminator 1
	sb	a5,4(a0)
.LBE89:
	.loc 1 185 57 discriminator 1
.LVL35:
.L19:
	.loc 1 193 1 is_stmt 0
	ret
	.cfi_endproc
.LFE22:
	.size	readfloat, .-readfloat
	.align	1
	.type	readfloats, @function
readfloats:
.LFB23:
	.loc 1 197 1 is_stmt 1
	.cfi_startproc
.LVL36:
	addi	sp,sp,-64
	.cfi_def_cfa_offset 64
	sd	ra,56(sp)
	sd	s0,48(sp)
	sd	s1,40(sp)
	sd	s2,32(sp)
	sd	s3,24(sp)
	sd	s4,16(sp)
	sd	s5,8(sp)
	.cfi_offset 1, -8
	.cfi_offset 8, -16
	.cfi_offset 9, -24
	.cfi_offset 18, -32
	.cfi_offset 19, -40
	.cfi_offset 20, -48
	.cfi_offset 21, -56
	mv	s1,a0
	mv	s0,a1
	mv	s3,a2
	.loc 1 198 3
	.loc 1 199 3
	.loc 1 203 3
	.loc 1 203 32 is_stmt 0
	slli	s5,a1,3
.LVL37:
.LBB90:
.LBB91:
	.loc 1 134 3 is_stmt 1
	lla	s4,intern_src
	ld	s2,0(s4)
	mv	a2,s5
.LVL38:
	mv	a1,s2
.LVL39:
	call	memcpy
.LVL40:
	.loc 1 135 3
	.loc 1 135 14 is_stmt 0
	add	s2,s2,s5
	sd	s2,0(s4)
.LVL41:
.LBE91:
.LBE90:
	.loc 1 213 3 is_stmt 1
	.loc 1 213 6 is_stmt 0
	li	a5,14
	beq	s3,a5,.L21
	.loc 1 213 41 discriminator 1
	li	a5,7
	beq	s3,a5,.L21
	.loc 1 215 12
	li	a4,0
	j	.L23
.LVL42:
.L24:
.LBB92:
	.loc 1 215 31 is_stmt 1 discriminator 3
	.loc 1 215 31 discriminator 3
	.loc 1 215 31 discriminator 3
	slli	a5,a4,3
	add	a5,s1,a5
.LVL43:
	.loc 1 215 31 discriminator 3
	.loc 1 215 31 discriminator 3
	lbu	a2,0(a5)
.LVL44:
	.loc 1 215 31 discriminator 3
	lbu	a3,1(a5)
.LVL45:
	.loc 1 215 31 discriminator 3
	lbu	a1,7(a5)
	sb	a1,0(a5)
	.loc 1 215 31 discriminator 3
	lbu	a1,6(a5)
	sb	a1,1(a5)
	.loc 1 215 31 discriminator 3
	sb	a2,7(a5)
	.loc 1 215 31 discriminator 3
	sb	a3,6(a5)
	.loc 1 215 31 discriminator 3
	lbu	a2,2(a5)
.LVL46:
	.loc 1 215 31 discriminator 3
	lbu	a3,3(a5)
.LVL47:
	.loc 1 215 31 discriminator 3
	lbu	a1,5(a5)
	sb	a1,2(a5)
	.loc 1 215 31 discriminator 3
	lbu	a1,4(a5)
	sb	a1,3(a5)
	.loc 1 215 31 discriminator 3
	sb	a2,5(a5)
	.loc 1 215 31 discriminator 3
	sb	a3,4(a5)
.LBE92:
	.loc 1 215 26 discriminator 3
	.loc 1 215 27 is_stmt 0 discriminator 3
	addi	a4,a4,1
.LVL48:
.L23:
	.loc 1 215 17 is_stmt 1 discriminator 1
	.loc 1 215 5 is_stmt 0 discriminator 1
	bltu	a4,s0,.L24
.LVL49:
.L21:
	.loc 1 228 1
	ld	ra,56(sp)
	.cfi_restore 1
	ld	s0,48(sp)
	.cfi_restore 8
.LVL50:
	ld	s1,40(sp)
	.cfi_restore 9
.LVL51:
	ld	s2,32(sp)
	.cfi_restore 18
	ld	s3,24(sp)
	.cfi_restore 19
	ld	s4,16(sp)
	.cfi_restore 20
	ld	s5,8(sp)
	.cfi_restore 21
	addi	sp,sp,64
	.cfi_def_cfa_offset 0
	jr	ra
	.cfi_endproc
.LFE23:
	.size	readfloats, .-readfloats
	.align	1
	.type	intern_resolve_code_pointer, @function
intern_resolve_code_pointer:
.LFB42:
	.loc 1 889 1 is_stmt 1
	.cfi_startproc
.LVL52:
	addi	sp,sp,-48
	.cfi_def_cfa_offset 48
	sd	ra,40(sp)
	sd	s0,32(sp)
	sd	s1,24(sp)
	sd	s2,16(sp)
	sd	s3,8(sp)
	.cfi_offset 1, -8
	.cfi_offset 8, -16
	.cfi_offset 9, -24
	.cfi_offset 18, -32
	.cfi_offset 19, -40
	mv	s2,a0
	mv	s3,a1
	.loc 1 890 3
	.loc 1 891 3
	.loc 1 891 37 is_stmt 0
	lw	s1,caml_code_fragments_table
	.loc 1 891 10
	addiw	s1,s1,-1
.LVL53:
	.loc 1 891 3
	j	.L28
.LVL54:
.L37:
.LBB93:
	.loc 1 894 7 is_stmt 1
	.loc 1 894 36 is_stmt 0
	ld	a1,0(s0)
	.loc 1 894 52
	ld	a2,8(s0)
	.loc 1 894 7
	sub	a2,a2,a1
	addi	a0,s0,16
	call	caml_md5_block
.LVL55:
	.loc 1 895 7 is_stmt 1
	.loc 1 895 27 is_stmt 0
	li	a5,1
	sb	a5,32(s0)
.L29:
	.loc 1 897 5 is_stmt 1
	.loc 1 897 9 is_stmt 0
	li	a2,16
	addi	a1,s0,16
	mv	a0,s2
	call	memcmp
.LVL56:
	.loc 1 897 8
	beq	a0,zero,.L35
.LBE93:
	.loc 1 891 56 is_stmt 1 discriminator 2
	.loc 1 891 57 is_stmt 0 discriminator 2
	addiw	s1,s1,-1
.LVL57:
.L28:
	.loc 1 891 48 is_stmt 1 discriminator 1
	.loc 1 891 3 is_stmt 0 discriminator 1
	blt	s1,zero,.L36
.LBB94:
	.loc 1 892 5 is_stmt 1
	.loc 1 892 67 is_stmt 0
	slli	a5,s1,3
	ld	a4,caml_code_fragments_table+8
	add	a5,a4,a5
	.loc 1 892 28
	ld	s0,0(a5)
.LVL58:
	.loc 1 893 5 is_stmt 1
	.loc 1 893 13 is_stmt 0
	lbu	a5,32(s0)
	.loc 1 893 8
	bne	a5,zero,.L29
	j	.L37
.L35:
	.loc 1 898 7 is_stmt 1
	.loc 1 898 13 is_stmt 0
	ld	a0,0(s0)
	.loc 1 898 26
	add	a0,a0,s3
	.loc 1 898 39
	ld	a5,8(s0)
	.loc 1 898 10
	bltu	a0,a5,.L27
	.loc 1 901 16
	li	a0,0
	j	.L27
.LVL59:
.L36:
.LBE94:
	.loc 1 904 10
	li	a0,0
.L27:
	.loc 1 905 1
	ld	ra,40(sp)
	.cfi_restore 1
	ld	s0,32(sp)
	.cfi_restore 8
	ld	s1,24(sp)
	.cfi_restore 9
.LVL60:
	ld	s2,16(sp)
	.cfi_restore 18
.LVL61:
	ld	s3,8(sp)
	.cfi_restore 19
.LVL62:
	addi	sp,sp,48
	.cfi_def_cfa_offset 0
	jr	ra
	.cfi_endproc
.LFE42:
	.size	intern_resolve_code_pointer, .-intern_resolve_code_pointer
	.section	.rodata.str1.8
	.align	3
.LC2:
	.string	"Stack overflow in un-marshaling value\n"
	.text
	.align	1
	.type	intern_stack_overflow, @function
intern_stack_overflow:
.LFB25:
	.loc 1 268 1 is_stmt 1
	.cfi_startproc
	addi	sp,sp,-16
	.cfi_def_cfa_offset 16
	sd	ra,8(sp)
	.cfi_offset 1, -8
	.loc 1 269 3
	lla	a1,.LC2
	li	a0,4
	call	caml_gc_message
.LVL63:
	.loc 1 270 3
	call	intern_free_stack
.LVL64:
	.loc 1 271 3
	call	caml_raise_out_of_memory
.LVL65:
	.cfi_endproc
.LFE25:
	.size	intern_stack_overflow, .-intern_stack_overflow
	.align	1
	.type	intern_resize_stack, @function
intern_resize_stack:
.LFB26:
	.loc 1 275 1
	.cfi_startproc
.LVL66:
	addi	sp,sp,-32
	.cfi_def_cfa_offset 32
	sd	ra,24(sp)
	sd	s0,16(sp)
	sd	s1,8(sp)
	sd	s2,0(sp)
	.cfi_offset 1, -8
	.cfi_offset 8, -16
	.cfi_offset 9, -24
	.cfi_offset 18, -32
	.loc 1 276 3
	.loc 1 276 45 is_stmt 0
	ld	a5,intern_stack
	ld	s0,intern_stack_limit
	sub	s0,s0,a5
	srai	s0,s0,3
	ld	a4,.LC3
	mul	s0,s0,a4
	.loc 1 276 23
	slli	s0,s0,1
.LVL67:
	.loc 1 277 3 is_stmt 1
	.loc 1 277 26 is_stmt 0
	sub	s2,a0,a5
.LVL68:
	.loc 1 278 3 is_stmt 1
	.loc 1 280 3
	.loc 1 280 6 is_stmt 0
	li	a4,104857600
	bgeu	s0,a4,.L46
	.loc 1 281 3 is_stmt 1
	.loc 1 281 6 is_stmt 0
	lla	a4,intern_stack_init
	beq	a5,a4,.L47
	.loc 1 287 5 is_stmt 1
	.loc 1 287 16 is_stmt 0
	slli	a1,s0,1
	add	a1,a1,s0
	slli	a1,a1,3
	mv	a0,a5
.LVL69:
	call	caml_stat_resize_noexc
.LVL70:
	mv	s1,a0
.LVL71:
	.loc 1 289 5 is_stmt 1
	.loc 1 289 8 is_stmt 0
	beq	a0,zero,.L48
.L44:
	.loc 1 291 3 is_stmt 1
	.loc 1 291 16 is_stmt 0
	sd	s1,intern_stack,a5
	.loc 1 292 3 is_stmt 1
	.loc 1 292 33 is_stmt 0
	slli	a5,s0,1
	add	s0,a5,s0
.LVL72:
	slli	s0,s0,3
	add	s0,s1,s0
	.loc 1 292 22
	sd	s0,intern_stack_limit,a5
	.loc 1 293 3 is_stmt 1
	.loc 1 294 1 is_stmt 0
	add	a0,s1,s2
	ld	ra,24(sp)
	.cfi_remember_state
	.cfi_restore 1
	ld	s0,16(sp)
	.cfi_restore 8
	ld	s1,8(sp)
	.cfi_restore 9
.LVL73:
	ld	s2,0(sp)
	.cfi_restore 18
.LVL74:
	addi	sp,sp,32
	.cfi_def_cfa_offset 0
	jr	ra
.LVL75:
.L46:
	.cfi_restore_state
	.loc 1 280 41 is_stmt 1 discriminator 1
	call	intern_stack_overflow
.LVL76:
.L47:
	.loc 1 282 5
	.loc 1 282 16 is_stmt 0
	slli	a0,s0,1
.LVL77:
	add	a0,a0,s0
	slli	a0,a0,3
	call	caml_stat_alloc_noexc
.LVL78:
	mv	s1,a0
.LVL79:
	.loc 1 283 5 is_stmt 1
	.loc 1 283 8 is_stmt 0
	beq	a0,zero,.L49
	.loc 1 284 5 is_stmt 1
	li	a2,8192
	addi	a2,a2,-2048
	lla	a1,intern_stack_init
	call	memcpy
.LVL80:
	j	.L44
.L49:
	.loc 1 283 27 discriminator 1
	call	intern_stack_overflow
.LVL81:
.L48:
	.loc 1 289 27 discriminator 1
	call	intern_stack_overflow
.LVL82:
	.cfi_endproc
.LFE26:
	.size	intern_resize_stack, .-intern_resize_stack
	.align	1
	.type	intern_add_to_heap, @function
intern_add_to_heap:
.LFB29:
	.loc 1 621 1
	.cfi_startproc
.LVL83:
	.loc 1 623 3
	.loc 1 623 26 is_stmt 0
	ld	a1,intern_extra_block
	.loc 1 623 6
	beq	a1,zero,.L51
	.loc 1 621 1
	addi	sp,sp,-16
	.cfi_def_cfa_offset 16
	sd	ra,8(sp)
	sd	s0,0(sp)
	.cfi_offset 1, -8
	.cfi_offset 8, -16
.LBB95:
	.loc 1 625 5 is_stmt 1
	.loc 1 625 13 is_stmt 0
	ld	a5,-16(a1)
.LVL84:
	.loc 1 626 5 is_stmt 1
	.loc 1 627 39 is_stmt 0
	andi	a5,a5,-8
.LVL85:
	.loc 1 626 16
	add	a1,a1,a5
.LVL86:
	.loc 1 628 5 is_stmt 1
	.loc 1 629 5
	.loc 1 630 5
	.loc 1 630 21 is_stmt 0
	ld	a0,intern_dest
.LVL87:
	.loc 1 630 8
	bltu	a0,a1,.L58
.LVL88:
.L52:
	.loc 1 634 5 is_stmt 1
	.loc 1 635 7 is_stmt 0
	lla	s0,intern_extra_block
	ld	a0,0(s0)
	ld	a5,intern_dest
	sub	a5,a5,a0
	srli	a5,a5,3
	.loc 1 634 26
	lla	a3,caml_allocated_words
	ld	a4,0(a3)
	add	a5,a4,a5
	sd	a5,0(a3)
	.loc 1 636 5 is_stmt 1
	call	caml_add_to_heap
.LVL89:
	.loc 1 637 5
	.loc 1 637 24 is_stmt 0
	sd	zero,0(s0)
.LBE95:
	.loc 1 641 1
	ld	ra,8(sp)
	.cfi_remember_state
	.cfi_restore 1
	ld	s0,0(sp)
	.cfi_restore 8
	addi	sp,sp,16
	.cfi_def_cfa_offset 0
	jr	ra
.LVL90:
.L58:
	.cfi_restore_state
.LBB96:
	.loc 1 631 7 is_stmt 1
	.loc 1 632 46 is_stmt 0
	sub	a1,a1,a0
.LVL91:
	.loc 1 631 7
	li	a3,0
	li	a2,0
	srai	a1,a1,3
	call	caml_make_free_blocks
.LVL92:
	j	.L52
.LVL93:
.L51:
	.cfi_def_cfa_offset 0
	.cfi_restore 1
	.cfi_restore 8
.LBE96:
	.loc 1 639 5 is_stmt 1
	.loc 1 639 18 is_stmt 0
	sd	zero,intern_block,a5
	ret
	.cfi_endproc
.LFE29:
	.size	intern_add_to_heap, .-intern_add_to_heap
	.align	1
	.type	intern_cleanup, @function
intern_cleanup:
.LFB21:
	.loc 1 150 1 is_stmt 1
	.cfi_startproc
	addi	sp,sp,-16
	.cfi_def_cfa_offset 16
	sd	ra,8(sp)
	.cfi_offset 1, -8
	.loc 1 151 3
	.loc 1 151 20 is_stmt 0
	ld	a0,intern_input
	.loc 1 151 6
	beq	a0,zero,.L60
	.loc 1 152 6 is_stmt 1
	call	caml_stat_free
.LVL94:
	.loc 1 153 6
	.loc 1 153 19 is_stmt 0
	sd	zero,intern_input,a5
.L60:
	.loc 1 155 3 is_stmt 1
	.loc 1 155 24 is_stmt 0
	ld	a0,intern_obj_table
	.loc 1 155 6
	beq	a0,zero,.L61
	.loc 1 156 5 is_stmt 1
	call	caml_stat_free
.LVL95:
	.loc 1 157 5
	.loc 1 157 22 is_stmt 0
	sd	zero,intern_obj_table,a5
.L61:
	.loc 1 159 3 is_stmt 1
	.loc 1 159 26 is_stmt 0
	ld	a0,intern_extra_block
	.loc 1 159 6
	beq	a0,zero,.L62
	.loc 1 161 5 is_stmt 1
	call	caml_free_for_heap
.LVL96:
	.loc 1 162 5
	.loc 1 162 24 is_stmt 0
	sd	zero,intern_extra_block,a5
.L63:
	.loc 1 169 3 is_stmt 1
	call	intern_free_stack
.LVL97:
	.loc 1 170 1 is_stmt 0
	ld	ra,8(sp)
	.cfi_remember_state
	.cfi_restore 1
	addi	sp,sp,16
	.cfi_def_cfa_offset 0
	jr	ra
.L62:
	.cfi_restore_state
	.loc 1 163 10 is_stmt 1
	.loc 1 163 27 is_stmt 0
	ld	a5,intern_block
	.loc 1 163 13
	beq	a5,zero,.L63
	.loc 1 165 5 is_stmt 1
	.loc 1 165 26 is_stmt 0
	ld	a4,intern_header
	sd	a4,-8(a5)
	.loc 1 166 5 is_stmt 1
	.loc 1 166 18 is_stmt 0
	sd	zero,intern_block,a5
	j	.L63
	.cfi_endproc
.LFE21:
	.size	intern_cleanup, .-intern_cleanup
	.align	1
	.type	intern_alloc, @function
intern_alloc:
.LFB28:
	.loc 1 564 1 is_stmt 1
	.cfi_startproc
.LVL98:
	.loc 1 565 3
	.loc 1 567 3
	.loc 1 567 6 is_stmt 0
	beq	a0,zero,.L77
	.loc 1 564 1
	addi	sp,sp,-32
	.cfi_def_cfa_offset 32
	sd	ra,24(sp)
	sd	s0,16(sp)
	sd	s1,8(sp)
	.cfi_offset 1, -8
	.cfi_offset 8, -16
	.cfi_offset 9, -24
	mv	s1,a1
	mv	s0,a2
	.loc 1 572 3 is_stmt 1
	.loc 1 572 10 is_stmt 0
	addi	a4,a0,-1
.LVL99:
	.loc 1 573 3 is_stmt 1
	.loc 1 573 6 is_stmt 0
	bne	a2,zero,.L67
	.loc 1 573 20 discriminator 1
	li	a5,-1
	srli	a5,a5,10
	bleu	a4,a5,.L68
.L67:
.LBB97:
	.loc 1 575 5 is_stmt 1
	.loc 1 576 29 is_stmt 0
	addi	a0,a0,512
.LVL100:
	slli	a0,a0,3
.LVL101:
	.loc 1 576 41
	addi	a0,a0,-1
.LVL102:
	.loc 1 577 5 is_stmt 1
	.loc 1 577 26 is_stmt 0
	li	a5,-4096
	and	a0,a0,a5
.LVL103:
	call	caml_alloc_for_heap
.LVL104:
	.loc 1 577 24
	sd	a0,intern_extra_block,a5
	.loc 1 578 5 is_stmt 1
	.loc 1 578 8 is_stmt 0
	beq	a0,zero,.L80
	.loc 1 582 5 is_stmt 1
	.loc 1 582 18 is_stmt 0
	beq	s0,zero,.L81
	li	a0,768
.L70:
	.loc 1 582 18 discriminator 4
	sw	a0,intern_color,a5
	.loc 1 584 5 is_stmt 1 discriminator 4
	.loc 1 584 17 is_stmt 0 discriminator 4
	ld	a5,intern_extra_block
	sd	a5,intern_dest,a4
	.loc 1 585 5 is_stmt 1 discriminator 4
.LVL105:
.L71:
.LBE97:
	.loc 1 607 5
	.loc 1 609 3
	.loc 1 609 15 is_stmt 0
	sd	zero,obj_counter,a5
	.loc 1 610 3 is_stmt 1
	.loc 1 610 6 is_stmt 0
	bne	s1,zero,.L82
.L65:
	.loc 1 618 1
	ld	ra,24(sp)
	.cfi_remember_state
	.cfi_restore 1
	ld	s0,16(sp)
	.cfi_restore 8
	ld	s1,8(sp)
	.cfi_restore 9
.LVL106:
	addi	sp,sp,32
	.cfi_def_cfa_offset 0
	jr	ra
.LVL107:
.L80:
	.cfi_restore_state
.LBB98:
	.loc 1 579 7 is_stmt 1
	call	intern_cleanup
.LVL108:
	.loc 1 580 7
	call	caml_raise_out_of_memory
.LVL109:
.L81:
	.loc 1 583 35 is_stmt 0 discriminator 1
	call	caml_allocation_color
.LVL110:
	.loc 1 582 18 discriminator 1
	sext.w	a0,a0
	j	.L70
.LVL111:
.L68:
.LBE98:
	.loc 1 588 5 is_stmt 1
	.loc 1 588 8 is_stmt 0
	li	a5,256
	bgtu	a4,a5,.L72
	.loc 1 589 7 is_stmt 1
	.loc 1 589 10 is_stmt 0
	bne	a4,zero,.L73
	.loc 1 590 9 is_stmt 1
	.loc 1 590 22 is_stmt 0
	lla	a5,caml_atom_table+2024
	sd	a5,intern_block,a4
.LVL112:
.L74:
	.loc 1 603 5 is_stmt 1
	.loc 1 603 21 is_stmt 0
	ld	a5,intern_block
	addi	a4,a5,-8
	ld	a5,-8(a5)
	.loc 1 603 19
	sd	a5,intern_header,a3
	.loc 1 604 5 is_stmt 1
	.loc 1 604 20 is_stmt 0
	andi	a5,a5,768
	.loc 1 604 18
	sw	a5,intern_color,a3
	.loc 1 605 5 is_stmt 1
	.loc 1 606 5
	.loc 1 606 17 is_stmt 0
	sd	a4,intern_dest,a5
	j	.L71
.LVL113:
.L73:
	.loc 1 592 9 is_stmt 1
	.loc 1 592 24 is_stmt 0
	li	a1,252
	mv	a0,a4
.LVL114:
	call	caml_alloc_small
.LVL115:
	.loc 1 592 22
	sd	a0,intern_block,a5
	j	.L74
.LVL116:
.L72:
	.loc 1 595 7 is_stmt 1
	.loc 1 595 22 is_stmt 0
	li	a1,252
	mv	a0,a4
.LVL117:
	call	caml_alloc_shr_no_raise
.LVL118:
	.loc 1 595 20
	sd	a0,intern_block,a5
	.loc 1 598 7 is_stmt 1
	.loc 1 598 10 is_stmt 0
	bne	a0,zero,.L74
	.loc 1 599 9 is_stmt 1
	call	intern_cleanup
.LVL119:
	.loc 1 600 9
	call	caml_raise_out_of_memory
.LVL120:
.L82:
	.loc 1 611 5
	.loc 1 611 34 is_stmt 0
	slli	a0,s1,3
	call	caml_stat_alloc_noexc
.LVL121:
	.loc 1 611 22
	sd	a0,intern_obj_table,a5
	.loc 1 612 5 is_stmt 1
	.loc 1 612 8 is_stmt 0
	bne	a0,zero,.L65
	.loc 1 613 7 is_stmt 1
	call	intern_cleanup
.LVL122:
	.loc 1 614 7
	call	caml_raise_out_of_memory
.LVL123:
.L77:
	.cfi_def_cfa_offset 0
	.cfi_restore 1
	.cfi_restore 8
	.cfi_restore 9
	ret
	.cfi_endproc
.LFE28:
	.size	intern_alloc, .-intern_alloc
	.section	.rodata.str1.8
	.align	3
.LC4:
	.string	"Debugger.function_placeholder"
	.align	3
.LC5:
	.string	"input_value: unknown custom block identifier"
	.align	3
.LC6:
	.string	"input_value: ill-formed message"
	.text
	.align	1
	.type	intern_rec, @function
intern_rec:
.LFB27:
	.loc 1 314 1
	.cfi_startproc
.LVL124:
	addi	sp,sp,-80
	.cfi_def_cfa_offset 80
	sd	ra,72(sp)
	sd	s0,64(sp)
	sd	s1,56(sp)
	sd	s2,48(sp)
	sd	s3,40(sp)
	sd	s4,32(sp)
	sd	s5,24(sp)
	.cfi_offset 1, -8
	.cfi_offset 8, -16
	.cfi_offset 9, -24
	.cfi_offset 18, -32
	.cfi_offset 19, -40
	.cfi_offset 20, -48
	.cfi_offset 21, -56
	mv	s0,a0
	.loc 1 315 3
	.loc 1 316 3
	.loc 1 317 3
	.loc 1 318 3
	.loc 1 319 3
	.loc 1 320 3
	.loc 1 321 3
	.loc 1 322 3
	.loc 1 323 3
	.loc 1 324 3
	.loc 1 326 3
	.loc 1 326 6 is_stmt 0
	ld	a0,intern_stack
.LVL125:
	.loc 1 329 3 is_stmt 1
	.loc 1 329 3
	.loc 1 329 3
	.loc 1 329 3
	addi	s1,a0,24
.LVL126:
	.loc 1 329 3
	ld	a5,intern_stack_limit
	bleu	a5,s1,.L144
.L84:
	.loc 1 329 3 discriminator 5
	.loc 1 329 3 discriminator 5
	sw	zero,16(s1)
	.loc 1 329 3 discriminator 5
	sd	s0,0(s1)
	.loc 1 329 3 discriminator 5
	li	a5,1
	sd	a5,8(s1)
	.loc 1 329 3 discriminator 5
	.loc 1 332 3 discriminator 5
	.loc 1 332 8 is_stmt 0 discriminator 5
	j	.L89
.L144:
	.loc 1 329 3 is_stmt 1 discriminator 3
	mv	a0,s1
	call	intern_resize_stack
.LVL127:
	mv	s1,a0
.LVL128:
	j	.L84
.LVL129:
.L86:
	.loc 1 340 5
	.loc 1 340 9 is_stmt 0
	ld	a5,8(s2)
	.loc 1 340 8
	bge	a5,zero,.L145
.L90:
	.loc 1 343 5 is_stmt 1
	.loc 1 343 7 is_stmt 0
	addi	s1,s1,-24
.LVL130:
	.loc 1 344 5 is_stmt 1
.L89:
	.loc 1 555 5
	.loc 1 332 8
	.loc 1 332 12 is_stmt 0
	ld	a5,intern_stack
	.loc 1 332 8
	beq	a5,s1,.L146
	.loc 1 335 3 is_stmt 1
	.loc 1 335 8 is_stmt 0
	ld	s2,0(s1)
.LVL131:
	.loc 1 336 3 is_stmt 1
	.loc 1 336 13 is_stmt 0
	lw	a5,16(s1)
	.loc 1 336 3
	li	a4,1
	beq	a5,a4,.L86
	li	a4,2
	beq	a5,a4,.L87
	bne	a5,zero,.L89
	.loc 1 353 5 is_stmt 1
	.loc 1 353 13 is_stmt 0
	addi	a5,s2,8
	sd	a5,0(s1)
	.loc 1 354 5 is_stmt 1
	.loc 1 354 14 is_stmt 0
	ld	a5,8(s1)
	.loc 1 354 9
	addi	a5,a5,-1
	.loc 1 354 8
	sd	a5,8(s1)
	bne	a5,zero,.L92
	.loc 1 354 27 is_stmt 1 discriminator 1
	.loc 1 354 29 is_stmt 0 discriminator 1
	addi	s1,s1,-24
.LVL132:
.L92:
	.loc 1 356 3 is_stmt 1
.LBB99:
.LBB100:
	.loc 1 78 3
	.loc 1 78 21 is_stmt 0
	lla	a5,intern_src
	ld	a3,0(a5)
	addi	s3,a3,1
	sd	s3,0(a5)
	.loc 1 78 10
	lbu	a5,0(a3)
.LBE100:
.LBE99:
	.loc 1 356 8
	sext.w	s0,a5
.LVL133:
	.loc 1 357 3 is_stmt 1
	.loc 1 357 6 is_stmt 0
	li	a4,63
	bleu	s0,a4,.L93
	.loc 1 358 5 is_stmt 1
	.loc 1 358 8 is_stmt 0
	li	a4,127
	bleu	s0,a4,.L94
	.loc 1 360 7 is_stmt 1
	.loc 1 360 11 is_stmt 0
	andi	a5,a5,15
.LVL134:
	.loc 1 361 7 is_stmt 1
	.loc 1 361 20 is_stmt 0
	srliw	s0,s0,4
.LVL135:
	.loc 1 361 12
	andi	s0,s0,7
.LVL136:
.L95:
	.loc 1 363 7 is_stmt 1
	.loc 1 363 10 is_stmt 0
	bne	s0,zero,.L96
	.loc 1 364 9 is_stmt 1
	.loc 1 364 13 is_stmt 0
	slli	a5,a5,3
.LVL137:
	lla	a4,caml_atom_table
	add	a5,a5,a4
	addi	s3,a5,8
.LVL138:
	j	.L97
.LVL139:
.L145:
	.loc 1 341 7 is_stmt 1
	mv	a0,s2
	call	caml_set_oo_id
.LVL140:
	j	.L90
.L87:
	.loc 1 347 5
	.loc 1 347 16 is_stmt 0
	ld	a4,8(s1)
	.loc 1 347 11
	ld	a5,0(s2)
	add	a5,a5,a4
	sd	a5,0(s2)
	.loc 1 349 5 is_stmt 1
	.loc 1 349 7 is_stmt 0
	addi	s1,s1,-24
.LVL141:
	.loc 1 350 5 is_stmt 1
	j	.L89
.LVL142:
.L96:
	.loc 1 366 9
	.loc 1 366 13 is_stmt 0
	ld	a4,intern_dest
	addi	s4,a4,8
	.loc 1 366 11
	mv	s3,s4
.LVL143:
	.loc 1 367 9 is_stmt 1
	.loc 1 367 30 is_stmt 0
	ld	a3,intern_obj_table
	.loc 1 367 12
	beq	a3,zero,.L98
	.loc 1 367 39 is_stmt 1 discriminator 1
	.loc 1 367 67 is_stmt 0 discriminator 1
	lla	a1,obj_counter
	ld	a2,0(a1)
	addi	a0,a2,1
	sd	a0,0(a1)
	.loc 1 367 55 discriminator 1
	slli	a2,a2,3
	add	a3,a3,a2
	.loc 1 367 71 discriminator 1
	sd	s4,0(a3)
.L98:
	.loc 1 368 9 is_stmt 1
	.loc 1 368 24 is_stmt 0
	slli	a3,s0,10
	lwu	a2,intern_color
	add	a3,a2,a3
	add	a3,a5,a3
	.loc 1 368 22
	sd	a3,0(a4)
	.loc 1 369 9 is_stmt 1
	.loc 1 369 26 is_stmt 0
	addi	a3,s0,1
	.loc 1 369 21
	slli	a3,a3,3
	add	a4,a4,a3
	sd	a4,intern_dest,a3
	.loc 1 371 9 is_stmt 1
	.loc 1 371 12 is_stmt 0
	li	a4,248
	beq	a5,a4,.L147
	.loc 1 384 11 is_stmt 1 discriminator 1
	.loc 1 384 11 discriminator 1
	.loc 1 384 11 discriminator 1
	.loc 1 384 11 discriminator 1
	addi	s1,s1,24
.LVL144:
	.loc 1 384 11 discriminator 1
	ld	a5,intern_stack_limit
.LVL145:
	bleu	a5,s1,.L148
.L104:
	.loc 1 384 11 discriminator 5
	.loc 1 384 11 discriminator 5
	sw	zero,16(s1)
	.loc 1 384 11 discriminator 5
	sd	s4,0(s1)
	.loc 1 384 11 discriminator 5
	sd	s0,8(s1)
	j	.L97
.LVL146:
.L147:
	.loc 1 372 11
	.loc 1 374 11
	.loc 1 374 11
	li	a5,2
.LVL147:
	beq	s0,a5,.L100
	.loc 1 374 11 discriminator 1
	.loc 1 374 11 discriminator 1
	addi	s1,s1,24
.LVL148:
	.loc 1 374 11 discriminator 1
	ld	a5,intern_stack_limit
	bleu	a5,s1,.L149
.L101:
	.loc 1 374 11 discriminator 5
	.loc 1 374 11 discriminator 5
	sw	zero,16(s1)
	.loc 1 374 11 discriminator 5
	addi	a5,s4,16
	sd	a5,0(s1)
	.loc 1 374 11 discriminator 5
	addi	s0,s0,-2
.LVL149:
	sd	s0,8(s1)
.LVL150:
.L100:
	.loc 1 374 11 discriminator 6
	.loc 1 376 11 discriminator 6
	.loc 1 376 11 discriminator 6
	addi	a0,s1,24
.LVL151:
	.loc 1 376 11 discriminator 6
	ld	a5,intern_stack_limit
	bleu	a5,a0,.L150
.L102:
	.loc 1 376 11 discriminator 3
	.loc 1 377 11 discriminator 3
	.loc 1 377 18 is_stmt 0 discriminator 3
	li	a5,1
	sw	a5,16(a0)
	.loc 1 378 11 is_stmt 1 discriminator 3
	.loc 1 378 20 is_stmt 0 discriminator 3
	sd	s4,0(a0)
	.loc 1 379 11 is_stmt 1 discriminator 3
	.loc 1 379 19 is_stmt 0 discriminator 3
	sd	a5,8(a0)
	.loc 1 381 11 is_stmt 1 discriminator 3
	.loc 1 381 11 discriminator 3
	.loc 1 381 11 discriminator 3
	.loc 1 381 11 discriminator 3
	addi	s1,a0,24
.LVL152:
	.loc 1 381 11 discriminator 3
	ld	a5,intern_stack_limit
	bleu	a5,s1,.L151
.L103:
	.loc 1 381 11 discriminator 5
	.loc 1 381 11 discriminator 5
	sw	zero,16(s1)
	.loc 1 381 11 discriminator 5
	sd	s4,0(s1)
	.loc 1 381 11 discriminator 5
	li	a5,2
	sd	a5,8(s1)
	.loc 1 381 11 discriminator 5
	j	.L97
.LVL153:
.L149:
	.loc 1 374 11 discriminator 3
	mv	a0,s1
	call	intern_resize_stack
.LVL154:
	mv	s1,a0
.LVL155:
	j	.L101
.LVL156:
.L150:
	.loc 1 376 11 discriminator 1
	call	intern_resize_stack
.LVL157:
	j	.L102
.LVL158:
.L151:
	.loc 1 381 11 discriminator 3
	mv	a0,s1
	call	intern_resize_stack
.LVL159:
	mv	s1,a0
.LVL160:
	j	.L103
.LVL161:
.L148:
	.loc 1 384 11 discriminator 3
	mv	a0,s1
	call	intern_resize_stack
.LVL162:
	mv	s1,a0
.LVL163:
	j	.L104
.LVL164:
.L94:
	.loc 1 388 7
	.loc 1 388 11 is_stmt 0
	slli	a5,a5,1
	andi	a5,a5,126
	.loc 1 388 9
	addi	s3,a5,1
.LVL165:
	j	.L97
.LVL166:
.L93:
	.loc 1 391 5 is_stmt 1
	.loc 1 391 8 is_stmt 0
	li	a4,31
	bleu	s0,a4,.L105
	.loc 1 393 7 is_stmt 1
	.loc 1 393 11 is_stmt 0
	andi	s0,a5,31
.LVL167:
.L106:
	.loc 1 395 7 is_stmt 1
	.loc 1 395 19 is_stmt 0
	addi	a5,s0,8
	.loc 1 395 12
	srli	a4,a5,3
.LVL168:
	.loc 1 396 7 is_stmt 1
	.loc 1 396 11 is_stmt 0
	ld	a3,intern_dest
	addi	a0,a3,8
	.loc 1 396 9
	mv	s3,a0
.LVL169:
	.loc 1 397 7 is_stmt 1
	.loc 1 397 28 is_stmt 0
	ld	a2,intern_obj_table
	.loc 1 397 10
	beq	a2,zero,.L107
	.loc 1 397 37 is_stmt 1 discriminator 1
	.loc 1 397 65 is_stmt 0 discriminator 1
	lla	a6,obj_counter
	ld	a1,0(a6)
	addi	a7,a1,1
	sd	a7,0(a6)
	.loc 1 397 53 discriminator 1
	slli	a1,a1,3
	add	a2,a2,a1
	.loc 1 397 69 discriminator 1
	sd	a0,0(a2)
.L107:
	.loc 1 398 7 is_stmt 1
	.loc 1 398 22 is_stmt 0
	slli	a1,a4,10
	lwu	a2,intern_color
	add	a2,a2,a1
	addi	a2,a2,252
	.loc 1 398 20
	sd	a2,0(a3)
	.loc 1 399 7 is_stmt 1
	.loc 1 399 24 is_stmt 0
	addi	a4,a4,1
.LVL170:
	.loc 1 399 19
	slli	a4,a4,3
.LVL171:
	add	a4,a3,a4
	sd	a4,intern_dest,a3
	.loc 1 400 7 is_stmt 1
	andi	a5,a5,-8
.LVL172:
	add	a4,a5,a0
	.loc 1 400 26 is_stmt 0
	sd	zero,-8(a4)
	.loc 1 401 7 is_stmt 1
	.loc 1 401 15 is_stmt 0
	addi	a5,a5,-1
.LVL173:
	.loc 1 402 7 is_stmt 1
	add	a4,a0,a5
	.loc 1 402 34 is_stmt 0
	subw	a5,a5,s0
.LVL174:
	.loc 1 402 24
	sb	a5,0(a4)
	.loc 1 403 7 is_stmt 1
.LVL175:
.LBB101:
.LBB102:
	.loc 1 134 3
	lla	s5,intern_src
	ld	s4,0(s5)
	mv	a2,s0
	mv	a1,s4
	call	memcpy
.LVL176:
	.loc 1 135 3
	.loc 1 135 14 is_stmt 0
	add	a5,s4,s0
	sd	a5,0(s5)
.LVL177:
.L97:
.LBE102:
.LBE101:
	.loc 1 552 3 is_stmt 1
	.loc 1 552 9 is_stmt 0
	sd	s3,0(s2)
	.loc 1 553 3 is_stmt 1
	j	.L89
.LVL178:
.L105:
	.loc 1 405 7
	li	a4,23
	bgtu	a5,a4,.L108
	slli	a5,a5,2
	lla	a4,.L110
	add	a5,a5,a4
	lw	a5,0(a5)
	add	a5,a5,a4
	jr	a5
	.section	.rodata
	.align	2
	.align	2
.L110:
	.word	.L129-.L110
	.word	.L128-.L110
	.word	.L127-.L110
	.word	.L126-.L110
	.word	.L125-.L110
	.word	.L124-.L110
	.word	.L123-.L110
	.word	.L117-.L110
	.word	.L122-.L110
	.word	.L121-.L110
	.word	.L120-.L110
	.word	.L119-.L110
	.word	.L119-.L110
	.word	.L118-.L110
	.word	.L118-.L110
	.word	.L117-.L110
	.word	.L116-.L110
	.word	.L115-.L110
	.word	.L114-.L110
	.word	.L113-.L110
	.word	.L112-.L110
	.word	.L111-.L110
	.word	.L109-.L110
	.word	.L109-.L110
	.text
.L129:
	.loc 1 407 9
.LBB103:
.LBB104:
	.loc 1 81 3
	.loc 1 81 21 is_stmt 0
	addi	s3,s3,1
	sd	s3,intern_src,a5
	.loc 1 81 10
	lb	a5,1(a3)
.LBE104:
.LBE103:
	.loc 1 407 13
	slli	a5,a5,1
	.loc 1 407 11
	addi	s3,a5,1
.LVL179:
	.loc 1 408 9 is_stmt 1
	j	.L97
.LVL180:
.L128:
	.loc 1 410 9
.LBB105:
.LBB106:
	.loc 1 92 3
	.loc 1 92 28 is_stmt 0
	lbu	a5,1(a3)
	.loc 1 92 32
	slliw	a5,a5,8
	.loc 1 92 38
	slliw	a5,a5,16
	sraiw	a5,a5,16
	.loc 1 92 50
	lbu	a4,1(s3)
	.loc 1 92 11
	addw	a5,a5,a4
	slliw	a5,a5,16
	sraiw	a5,a5,16
.LVL181:
	.loc 1 93 3 is_stmt 1
	.loc 1 93 14 is_stmt 0
	addi	s3,s3,2
	sd	s3,intern_src,a4
	.loc 1 94 3 is_stmt 1
.LVL182:
.LBE106:
.LBE105:
	.loc 1 410 13 is_stmt 0
	slli	a5,a5,1
	.loc 1 410 11
	addi	s3,a5,1
.LVL183:
	.loc 1 411 9 is_stmt 1
	j	.L97
.LVL184:
.L127:
	.loc 1 413 9
.LBB107:
.LBB108:
	.loc 1 108 3
	.loc 1 109 6 is_stmt 0
	lbu	a5,1(a3)
	.loc 1 109 32
	slliw	a5,a5,24
	.loc 1 109 52
	lbu	a4,1(s3)
	.loc 1 109 56
	slliw	a4,a4,16
	.loc 1 109 39
	addw	a5,a5,a4
	.loc 1 110 18
	lbu	a4,2(s3)
	.loc 1 110 22
	slliw	a4,a4,8
	.loc 1 110 5
	addw	a5,a5,a4
	.loc 1 110 40
	lbu	a4,3(s3)
	.loc 1 108 11
	addw	a5,a5,a4
.LVL185:
	.loc 1 111 3 is_stmt 1
	.loc 1 111 14 is_stmt 0
	addi	s3,s3,4
.LVL186:
	sd	s3,intern_src,a4
.LVL187:
	.loc 1 112 3 is_stmt 1
.LBE108:
.LBE107:
	.loc 1 413 13 is_stmt 0
	slli	a5,a5,1
	.loc 1 413 11
	addi	s3,a5,1
.LVL188:
	.loc 1 414 9 is_stmt 1
	j	.L97
.LVL189:
.L126:
	.loc 1 417 9
	.loc 1 417 13 is_stmt 0
	call	read64u
.LVL190:
	slli	a5,a0,1
	.loc 1 417 11
	addi	s3,a5,1
.LVL191:
	.loc 1 418 9 is_stmt 1
	j	.L97
.LVL192:
.L125:
	.loc 1 425 9
.LBB109:
.LBB110:
	.loc 1 78 3
	.loc 1 78 21 is_stmt 0
	addi	s3,s3,1
	sd	s3,intern_src,a5
	.loc 1 78 10
	lbu	a0,1(a3)
.LVL193:
.L130:
.LBE110:
.LBE109:
	.loc 1 427 9 is_stmt 1
	.loc 1 428 9
	.loc 1 429 9
	.loc 1 430 9
	.loc 1 430 42 is_stmt 0
	ld	a5,obj_counter
	sub	a5,a5,a0
	.loc 1 430 29
	slli	a5,a5,3
	ld	a4,intern_obj_table
	add	a5,a4,a5
	.loc 1 430 11
	ld	s3,0(a5)
.LVL194:
	.loc 1 431 9 is_stmt 1
	j	.L97
.LVL195:
.L124:
	.loc 1 433 9
.LBB111:
.LBB112:
	.loc 1 85 3
	.loc 1 85 29 is_stmt 0
	lbu	a0,1(a3)
	.loc 1 85 33
	slliw	a0,a0,8
	.loc 1 85 51
	lbu	a5,1(s3)
	.loc 1 85 39
	addw	a0,a0,a5
.LVL196:
	.loc 1 86 3 is_stmt 1
	.loc 1 86 14 is_stmt 0
	addi	s3,s3,2
	sd	s3,intern_src,a5
	.loc 1 87 3 is_stmt 1
.LVL197:
.LBE112:
.LBE111:
	.loc 1 433 13 is_stmt 0
	slli	a0,a0,48
	srli	a0,a0,48
.LVL198:
	.loc 1 434 9 is_stmt 1
	j	.L130
.LVL199:
.L123:
	.loc 1 436 9
.LBB113:
.LBB114:
	.loc 1 99 3
	.loc 1 100 6 is_stmt 0
	lbu	a0,1(a3)
	.loc 1 100 32
	slliw	a0,a0,24
	.loc 1 100 52
	lbu	a5,1(s3)
	.loc 1 100 56
	slliw	a5,a5,16
	.loc 1 100 39
	addw	a0,a0,a5
	.loc 1 101 18
	lbu	a5,2(s3)
	.loc 1 101 22
	slliw	a5,a5,8
	.loc 1 101 5
	addw	a0,a0,a5
	.loc 1 101 40
	lbu	a5,3(s3)
	.loc 1 99 12
	addw	a0,a0,a5
.LVL200:
	.loc 1 102 3 is_stmt 1
	.loc 1 102 14 is_stmt 0
	addi	s3,s3,4
	sd	s3,intern_src,a5
	.loc 1 103 3 is_stmt 1
.LVL201:
.LBE114:
.LBE113:
	.loc 1 436 13 is_stmt 0
	slli	a0,a0,32
	srli	a0,a0,32
.LVL202:
	.loc 1 437 9 is_stmt 1
	j	.L130
.LVL203:
.L112:
	.loc 1 440 9
	.loc 1 440 15 is_stmt 0
	call	read64u
.LVL204:
	.loc 1 441 9 is_stmt 1
	j	.L130
.LVL205:
.L122:
	.loc 1 444 9
.LBB115:
.LBB116:
	.loc 1 99 3
	.loc 1 100 6 is_stmt 0
	lbu	s0,1(a3)
.LVL206:
	.loc 1 100 32
	slliw	s0,s0,24
	.loc 1 100 52
	lbu	a5,1(s3)
	.loc 1 100 56
	slliw	a5,a5,16
	.loc 1 100 39
	addw	s0,s0,a5
	.loc 1 101 18
	lbu	a5,2(s3)
	.loc 1 101 22
	slliw	a5,a5,8
	.loc 1 101 5
	addw	s0,s0,a5
	.loc 1 101 40
	lbu	a5,3(s3)
	.loc 1 99 12
	addw	s0,s0,a5
.LVL207:
	.loc 1 102 3 is_stmt 1
	.loc 1 102 14 is_stmt 0
	addi	s3,s3,4
	sd	s3,intern_src,a4
	.loc 1 103 3 is_stmt 1
.LVL208:
.LBE116:
.LBE115:
	.loc 1 445 9
	.loc 1 445 13 is_stmt 0
	andi	a5,a5,0xff
.LVL209:
	.loc 1 446 9 is_stmt 1
	.loc 1 446 14 is_stmt 0
	srliw	s0,s0,10
.LVL210:
	.loc 1 447 9 is_stmt 1
	j	.L95
.LVL211:
.L113:
	.loc 1 450 9
	.loc 1 450 29 is_stmt 0
	call	read64u
.LVL212:
	.loc 1 451 9 is_stmt 1
	.loc 1 451 13 is_stmt 0
	andi	a5,a0,0xff
.LVL213:
	.loc 1 452 9 is_stmt 1
	.loc 1 452 14 is_stmt 0
	srli	s0,a0,10
.LVL214:
	.loc 1 453 9 is_stmt 1
	j	.L95
.LVL215:
.L121:
	.loc 1 456 9
.LBB117:
.LBB118:
	.loc 1 78 3
	.loc 1 78 21 is_stmt 0
	addi	s3,s3,1
	sd	s3,intern_src,a5
	.loc 1 78 10
	lbu	s0,1(a3)
.LVL216:
.LBE118:
.LBE117:
	.loc 1 457 9 is_stmt 1
	j	.L106
.LVL217:
.L120:
	.loc 1 459 9
.LBB119:
.LBB120:
	.loc 1 99 3
	.loc 1 100 6 is_stmt 0
	lbu	a5,1(a3)
	.loc 1 100 32
	slliw	a5,a5,24
	.loc 1 100 52
	lbu	a4,1(s3)
	.loc 1 100 56
	slliw	a4,a4,16
	.loc 1 100 39
	addw	a5,a5,a4
	.loc 1 101 18
	lbu	a4,2(s3)
	.loc 1 101 22
	slliw	a4,a4,8
	.loc 1 101 5
	addw	a5,a5,a4
	.loc 1 101 40
	lbu	s0,3(s3)
.LVL218:
	.loc 1 99 12
	addw	a5,a5,s0
.LVL219:
	.loc 1 102 3 is_stmt 1
	.loc 1 102 14 is_stmt 0
	addi	s3,s3,4
	sd	s3,intern_src,a4
	.loc 1 103 3 is_stmt 1
.LVL220:
.LBE120:
.LBE119:
	.loc 1 459 13 is_stmt 0
	slli	s0,a5,32
	srli	s0,s0,32
.LVL221:
	.loc 1 460 9 is_stmt 1
	j	.L106
.LVL222:
.L111:
	.loc 1 463 9
	.loc 1 463 15 is_stmt 0
	call	read64u
.LVL223:
	mv	s0,a0
.LVL224:
	.loc 1 464 9 is_stmt 1
	j	.L106
.LVL225:
.L119:
	.loc 1 468 9
	.loc 1 468 13 is_stmt 0
	ld	a5,intern_dest
	addi	a0,a5,8
	.loc 1 468 11
	mv	s3,a0
.LVL226:
	.loc 1 469 9 is_stmt 1
	.loc 1 469 30 is_stmt 0
	ld	a4,intern_obj_table
	.loc 1 469 12
	beq	a4,zero,.L131
	.loc 1 469 39 is_stmt 1 discriminator 1
	.loc 1 469 67 is_stmt 0 discriminator 1
	lla	a2,obj_counter
	ld	a3,0(a2)
	addi	a1,a3,1
	sd	a1,0(a2)
	.loc 1 469 55 discriminator 1
	slli	a3,a3,3
	add	a4,a4,a3
	.loc 1 469 71 discriminator 1
	sd	a0,0(a4)
.L131:
	.loc 1 470 9 is_stmt 1
	.loc 1 470 24 is_stmt 0
	lwu	a4,intern_color
	addi	a4,a4,1277
	.loc 1 470 22
	sd	a4,0(a5)
	.loc 1 472 9 is_stmt 1
	.loc 1 472 21 is_stmt 0
	addi	a5,a5,16
	sd	a5,intern_dest,a4
	.loc 1 473 9 is_stmt 1
	mv	a1,s0
	call	readfloat
.LVL227:
	.loc 1 474 9
	j	.L97
.LVL228:
.L118:
	.loc 1 477 9
.LBB121:
.LBB122:
	.loc 1 78 3
	.loc 1 78 21 is_stmt 0
	addi	s3,s3,1
	sd	s3,intern_src,a5
	.loc 1 78 10
	lbu	a1,1(a3)
.LVL229:
.L132:
.LBE122:
.LBE121:
	.loc 1 479 9 is_stmt 1
	.loc 1 480 9
	.loc 1 480 13 is_stmt 0
	ld	a5,intern_dest
	addi	a0,a5,8
	.loc 1 480 11
	mv	s3,a0
.LVL230:
	.loc 1 481 9 is_stmt 1
	.loc 1 481 30 is_stmt 0
	ld	a4,intern_obj_table
	.loc 1 481 12
	beq	a4,zero,.L133
	.loc 1 481 39 is_stmt 1 discriminator 1
	.loc 1 481 67 is_stmt 0 discriminator 1
	lla	a2,obj_counter
	ld	a3,0(a2)
	addi	a6,a3,1
	sd	a6,0(a2)
	.loc 1 481 55 discriminator 1
	slli	a3,a3,3
	add	a4,a4,a3
	.loc 1 481 71 discriminator 1
	sd	a0,0(a4)
.L133:
	.loc 1 482 9 is_stmt 1
	.loc 1 482 24 is_stmt 0
	slli	a3,a1,10
	lwu	a4,intern_color
	add	a4,a4,a3
	addi	a4,a4,254
	.loc 1 482 22
	sd	a4,0(a5)
	.loc 1 484 9 is_stmt 1
	.loc 1 484 26 is_stmt 0
	addi	a4,a1,1
	.loc 1 484 21
	slli	a4,a4,3
	add	a5,a5,a4
	sd	a5,intern_dest,a4
	.loc 1 485 9 is_stmt 1
	mv	a2,s0
	call	readfloats
.LVL231:
	.loc 1 486 9
	j	.L97
.LVL232:
.L117:
	.loc 1 489 9
.LBB123:
.LBB124:
	.loc 1 99 3
	.loc 1 100 6 is_stmt 0
	lbu	a1,1(a3)
	.loc 1 100 32
	slliw	a1,a1,24
	.loc 1 100 52
	lbu	a5,1(s3)
	.loc 1 100 56
	slliw	a5,a5,16
	.loc 1 100 39
	addw	a1,a1,a5
	.loc 1 101 18
	lbu	a5,2(s3)
	.loc 1 101 22
	slliw	a5,a5,8
	.loc 1 101 5
	addw	a1,a1,a5
	.loc 1 101 40
	lbu	a5,3(s3)
	.loc 1 99 12
	addw	a1,a1,a5
.LVL233:
	.loc 1 102 3 is_stmt 1
	.loc 1 102 14 is_stmt 0
	addi	s3,s3,4
	sd	s3,intern_src,a5
	.loc 1 103 3 is_stmt 1
.LVL234:
.LBE124:
.LBE123:
	.loc 1 489 13 is_stmt 0
	slli	a1,a1,32
	srli	a1,a1,32
.LVL235:
	.loc 1 490 9 is_stmt 1
	j	.L132
.LVL236:
.L109:
	.loc 1 494 9
	.loc 1 494 15 is_stmt 0
	call	read64u
.LVL237:
	mv	a1,a0
.LVL238:
	.loc 1 495 9 is_stmt 1
	j	.L132
.LVL239:
.L116:
	.loc 1 498 9
.LBB125:
.LBB126:
	.loc 1 99 3
	.loc 1 100 6 is_stmt 0
	lbu	s0,1(a3)
.LVL240:
	.loc 1 100 32
	slliw	s0,s0,24
	.loc 1 100 52
	lbu	a5,1(s3)
	.loc 1 100 56
	slliw	a5,a5,16
	.loc 1 100 39
	addw	s0,s0,a5
	.loc 1 101 18
	lbu	a5,2(s3)
	.loc 1 101 22
	slliw	a5,a5,8
	.loc 1 101 5
	addw	s0,s0,a5
	.loc 1 101 40
	lbu	a5,3(s3)
	.loc 1 99 12
	addw	s0,s0,a5
.LVL241:
	.loc 1 102 3 is_stmt 1
	.loc 1 103 3
.LBE126:
.LBE125:
	.loc 1 498 13 is_stmt 0
	slli	s0,s0,32
	srli	s0,s0,32
.LVL242:
	.loc 1 499 9 is_stmt 1
.LBB127:
.LBB128:
	.loc 1 134 3
	li	a2,16
	addi	a1,s3,4
	mv	a0,sp
	call	memcpy
.LVL243:
	.loc 1 135 3
	.loc 1 135 14 is_stmt 0
	addi	s3,s3,20
	sd	s3,intern_src,a5
.LVL244:
.LBE128:
.LBE127:
	.loc 1 500 9 is_stmt 1
	.loc 1 500 19 is_stmt 0
	mv	a1,s0
	mv	a0,sp
	call	intern_resolve_code_pointer
.LVL245:
	.loc 1 501 9 is_stmt 1
	.loc 1 501 12 is_stmt 0
	beq	a0,zero,.L134
	.loc 1 502 11 is_stmt 1
	.loc 1 502 13 is_stmt 0
	mv	s3,a0
.LVL246:
	j	.L97
.LVL247:
.L134:
.LBB129:
	.loc 1 504 11 is_stmt 1
	.loc 1 505 13 is_stmt 0
	lla	a0,.LC4
.LVL248:
	call	caml_named_value
.LVL249:
	.loc 1 506 11 is_stmt 1
	.loc 1 506 14 is_stmt 0
	beq	a0,zero,.L135
	.loc 1 507 13 is_stmt 1
	.loc 1 507 15 is_stmt 0
	ld	s3,0(a0)
.LVL250:
	j	.L97
.LVL251:
.L135:
	.loc 1 509 13 is_stmt 1
	call	intern_cleanup
.LVL252:
	.loc 1 510 13
	mv	a0,sp
	call	intern_bad_code_pointer
.LVL253:
.L115:
.LBE129:
	.loc 1 515 9
.LBB130:
.LBB131:
	.loc 1 99 3
	.loc 1 100 6 is_stmt 0
	lbu	s0,1(a3)
.LVL254:
	.loc 1 100 32
	slliw	s0,s0,24
	.loc 1 100 52
	lbu	a5,1(s3)
	.loc 1 100 56
	slliw	a5,a5,16
	.loc 1 100 39
	addw	s0,s0,a5
	.loc 1 101 18
	lbu	a5,2(s3)
	.loc 1 101 22
	slliw	a5,a5,8
	.loc 1 101 5
	addw	s0,s0,a5
	.loc 1 101 40
	lbu	a5,3(s3)
	.loc 1 99 12
	addw	s0,s0,a5
.LVL255:
	.loc 1 102 3 is_stmt 1
	.loc 1 102 14 is_stmt 0
	addi	s3,s3,4
	sd	s3,intern_src,a5
	.loc 1 103 3 is_stmt 1
.LVL256:
.LBE131:
.LBE130:
	.loc 1 517 9
	.loc 1 517 9
	addi	a0,s1,24
.LVL257:
	.loc 1 517 9
	ld	a5,intern_stack_limit
	bleu	a5,a0,.L152
.LVL258:
.L136:
	.loc 1 517 9 discriminator 3
	.loc 1 518 9 discriminator 3
	.loc 1 518 18 is_stmt 0 discriminator 3
	sd	s2,0(a0)
	.loc 1 519 9 is_stmt 1 discriminator 3
	.loc 1 519 16 is_stmt 0 discriminator 3
	li	a5,2
	sw	a5,16(a0)
	.loc 1 520 9 is_stmt 1 discriminator 3
	.loc 1 520 17 is_stmt 0 discriminator 3
	slli	s0,s0,32
.LVL259:
	srli	s0,s0,32
	sd	s0,8(a0)
	.loc 1 521 9 is_stmt 1 discriminator 3
	.loc 1 521 9 discriminator 3
	.loc 1 521 9 discriminator 3
	.loc 1 521 9 discriminator 3
	addi	s1,a0,24
.LVL260:
	.loc 1 521 9 discriminator 3
	ld	a5,intern_stack_limit
	bleu	a5,s1,.L153
.L137:
	.loc 1 521 9 discriminator 5
	.loc 1 521 9 discriminator 5
	sw	zero,16(s1)
	.loc 1 521 9 discriminator 5
	sd	s2,0(s1)
	.loc 1 521 9 discriminator 5
	li	a5,1
	sd	a5,8(s1)
	.loc 1 521 9 discriminator 5
	.loc 1 522 9 discriminator 5
	j	.L89
.LVL261:
.L152:
	.loc 1 517 9 discriminator 1
	call	intern_resize_stack
.LVL262:
	j	.L136
.LVL263:
.L153:
	.loc 1 521 9 discriminator 3
	mv	a0,s1
	call	intern_resize_stack
.LVL264:
	mv	s1,a0
.LVL265:
	j	.L137
.LVL266:
.L114:
	.loc 1 524 9
	.loc 1 524 15 is_stmt 0
	mv	a0,s3
	call	caml_find_custom_operations
.LVL267:
	mv	s4,a0
.LVL268:
	.loc 1 525 9 is_stmt 1
	.loc 1 525 12 is_stmt 0
	beq	a0,zero,.L154
.L138:
	.loc 1 529 47 is_stmt 1 discriminator 1
	.loc 1 529 15 discriminator 1
	.loc 1 529 27 is_stmt 0 discriminator 1
	lla	a4,intern_src
	ld	a5,0(a4)
	addi	a3,a5,1
	sd	a3,0(a4)
	.loc 1 529 16 discriminator 1
	lbu	a5,0(a5)
	.loc 1 529 15 discriminator 1
	bne	a5,zero,.L138
	.loc 1 530 9 is_stmt 1
	.loc 1 530 19 is_stmt 0
	ld	a5,40(s4)
	.loc 1 530 16
	lla	s3,intern_dest
	ld	a0,0(s3)
.LVL269:
	addi	a0,a0,16
	jalr	a5
.LVL270:
	.loc 1 531 9 is_stmt 1
	.loc 1 531 42 is_stmt 0
	addi	s0,a0,7
.LVL271:
	.loc 1 531 47
	srli	s0,s0,3
	.loc 1 531 14
	addi	a5,s0,1
.LVL272:
	.loc 1 532 9 is_stmt 1
	.loc 1 532 13 is_stmt 0
	ld	a4,0(s3)
	addi	s5,a4,8
	.loc 1 532 11
	mv	s3,s5
.LVL273:
	.loc 1 533 9 is_stmt 1
	.loc 1 533 30 is_stmt 0
	ld	a3,intern_obj_table
	.loc 1 533 12
	beq	a3,zero,.L139
	.loc 1 533 39 is_stmt 1 discriminator 1
	.loc 1 533 67 is_stmt 0 discriminator 1
	lla	a1,obj_counter
	ld	a2,0(a1)
	addi	a0,a2,1
	sd	a0,0(a1)
	.loc 1 533 55 discriminator 1
	slli	a2,a2,3
	add	a3,a3,a2
	.loc 1 533 71 discriminator 1
	sd	s5,0(a3)
.L139:
	.loc 1 534 9 is_stmt 1
	.loc 1 534 24 is_stmt 0
	slli	a3,a5,10
	lwu	a5,intern_color
.LVL274:
	add	a5,a5,a3
	addi	a5,a5,255
	.loc 1 534 22
	sd	a5,0(a4)
	.loc 1 536 9 is_stmt 1
	.loc 1 536 27 is_stmt 0
	sd	s4,8(a4)
	.loc 1 538 9 is_stmt 1
	.loc 1 538 16 is_stmt 0
	ld	a5,8(s4)
	.loc 1 538 12
	beq	a5,zero,.L140
	.loc 1 538 38 discriminator 1
	ld	a5,caml_young_end
	bgeu	s5,a5,.L140
	.loc 1 538 38 discriminator 2
	ld	a5,caml_young_start
	bleu	s5,a5,.L140
	.loc 1 540 11 is_stmt 1
.LVL275:
.LBB132:
.LBB133:
	.file 2 "caml/minor_gc.h"
	.loc 2 109 3
	.loc 2 110 3
	.loc 2 110 10 is_stmt 0
	lla	a5,caml_custom_table
	ld	a4,24(a5)
	.loc 2 110 22
	ld	a5,32(a5)
	.loc 2 110 6
	bgeu	a4,a5,.L155
.L141:
	.loc 2 114 3 is_stmt 1
	.loc 2 114 12 is_stmt 0
	lla	a4,caml_custom_table
	ld	a5,24(a4)
	.loc 2 114 17
	addi	a3,a5,24
	sd	a3,24(a4)
.LVL276:
	.loc 2 115 3 is_stmt 1
	.loc 2 115 14 is_stmt 0
	sd	s5,0(a5)
	.loc 2 116 3 is_stmt 1
	.loc 2 116 12 is_stmt 0
	sd	zero,8(a5)
	.loc 2 117 3 is_stmt 1
	.loc 2 117 12 is_stmt 0
	li	a4,1
	sd	a4,16(a5)
.LVL277:
.L140:
.LBE133:
.LBE132:
	.loc 1 543 9 is_stmt 1
	.loc 1 543 26 is_stmt 0
	addi	a5,s0,2
	.loc 1 543 21
	lla	a3,intern_dest
	slli	a5,a5,3
	ld	a4,0(a3)
	add	a5,a4,a5
	sd	a5,0(a3)
	.loc 1 544 9 is_stmt 1
	j	.L97
.LVL278:
.L154:
	.loc 1 526 11
	call	intern_cleanup
.LVL279:
	.loc 1 527 11
	lla	a0,.LC5
	call	caml_failwith
.LVL280:
.L155:
.LBB135:
.LBB134:
	.loc 2 111 5
	.loc 2 112 5
	lla	a0,caml_custom_table
	call	caml_realloc_custom_table
.LVL281:
	j	.L141
.LVL282:
.L108:
.LBE134:
.LBE135:
	.loc 1 546 9
	call	intern_cleanup
.LVL283:
	.loc 1 547 9
	lla	a0,.LC6
	call	caml_failwith
.LVL284:
.L146:
	.loc 1 559 3
	call	intern_free_stack
.LVL285:
	.loc 1 560 1 is_stmt 0
	ld	ra,72(sp)
	.cfi_restore 1
	ld	s0,64(sp)
	.cfi_restore 8
	ld	s1,56(sp)
	.cfi_restore 9
.LVL286:
	ld	s2,48(sp)
	.cfi_restore 18
	ld	s3,40(sp)
	.cfi_restore 19
	ld	s4,32(sp)
	.cfi_restore 20
	ld	s5,24(sp)
	.cfi_restore 21
	addi	sp,sp,80
	.cfi_def_cfa_offset 0
	jr	ra
	.cfi_endproc
.LFE27:
	.size	intern_rec, .-intern_rec
	.section	.rodata.str1.8
	.align	3
.LC7:
	.string	"input_value: not a binary channel"
	.align	3
.LC8:
	.string	"input_value: truncated object"
	.align	3
.LC9:
	.string	"input_value"
	.text
	.align	1
	.type	caml_input_val_core, @function
caml_input_val_core:
.LFB31:
	.loc 1 699 1 is_stmt 1
	.cfi_startproc
.LVL287:
	addi	sp,sp,-112
	.cfi_def_cfa_offset 112
	sd	ra,104(sp)
	sd	s0,96(sp)
	sd	s1,88(sp)
	sd	s2,80(sp)
	.cfi_offset 1, -8
	.cfi_offset 8, -16
	.cfi_offset 9, -24
	.cfi_offset 18, -32
	mv	s1,a0
	mv	s2,a1
	.loc 1 700 3
	.loc 1 701 3
	.loc 1 702 3
	.loc 1 703 3
	.loc 1 704 3
	.loc 1 706 3
	.loc 1 706 9 is_stmt 0
	call	caml_channel_binary_mode
.LVL288:
	.loc 1 706 6
	beq	a0,zero,.L165
	.loc 1 709 3 is_stmt 1
	.loc 1 709 7 is_stmt 0
	li	a2,20
	addi	a1,sp,48
	mv	a0,s1
	call	caml_really_getblock
.LVL289:
	.loc 1 710 3 is_stmt 1
	.loc 1 710 6 is_stmt 0
	beq	a0,zero,.L166
	.loc 1 712 8 is_stmt 1
	.loc 1 712 11 is_stmt 0
	li	a5,19
	ble	a0,a5,.L167
	.loc 1 714 3 is_stmt 1
	.loc 1 715 3
.LBB136:
.LBB137:
	.loc 1 99 3
	.loc 1 100 6 is_stmt 0
	lbu	a5,48(sp)
	.loc 1 100 32
	slliw	a5,a5,24
	.loc 1 100 52
	lbu	a4,49(sp)
	.loc 1 100 56
	slliw	a4,a4,16
	.loc 1 100 39
	addw	a5,a5,a4
	.loc 1 101 18
	lbu	a4,50(sp)
	.loc 1 101 22
	slliw	a4,a4,8
	.loc 1 101 5
	addw	a5,a5,a4
	.loc 1 101 40
	lbu	a4,51(sp)
	.loc 1 99 12
	addw	a5,a5,a4
.LVL290:
	.loc 1 102 3 is_stmt 1
	.loc 1 102 14 is_stmt 0
	addi	a4,sp,52
.LVL291:
	sd	a4,intern_src,a3
	.loc 1 103 3 is_stmt 1
.LVL292:
.LBE137:
.LBE136:
	.loc 1 715 6 is_stmt 0
	li	a4,-2070568960
	addi	a4,a4,1727
	beq	a5,a4,.L168
.LVL293:
.L160:
	.loc 1 720 3 is_stmt 1
	.loc 1 720 14 is_stmt 0
	addi	a5,sp,48
	sd	a5,intern_src,a4
	.loc 1 721 3 is_stmt 1
	addi	a1,sp,16
	lla	a0,.LC9
	call	caml_parse_header
.LVL294:
	.loc 1 723 3
	.loc 1 723 11 is_stmt 0
	ld	a0,24(sp)
	call	caml_stat_alloc
.LVL295:
	mv	s0,a0
.LVL296:
	.loc 1 728 3 is_stmt 1
	.loc 1 728 7 is_stmt 0
	ld	a2,24(sp)
	mv	a1,a0
	mv	a0,s1
	call	caml_really_getblock
.LVL297:
	.loc 1 728 56
	ld	a5,24(sp)
	.loc 1 728 6
	bltu	a0,a5,.L169
	.loc 1 733 3 is_stmt 1
	mv	a1,s0
	mv	a0,s0
	call	intern_init
.LVL298:
	.loc 1 734 3
	mv	a2,s2
	ld	a1,32(sp)
	ld	a0,40(sp)
	call	intern_alloc
.LVL299:
	.loc 1 736 3
	addi	a0,sp,8
	call	intern_rec
.LVL300:
	.loc 1 737 3
	.loc 1 737 6 is_stmt 0
	bne	s2,zero,.L162
	.loc 1 738 5 is_stmt 1
	ld	a0,40(sp)
	call	intern_add_to_heap
.LVL301:
.L163:
	.loc 1 745 3
	call	intern_cleanup
.LVL302:
	.loc 1 746 3
	.loc 1 746 10 is_stmt 0
	ld	a0,8(sp)
	call	caml_check_urgent_gc
.LVL303:
	.loc 1 747 1
	ld	ra,104(sp)
	.cfi_remember_state
	.cfi_restore 1
	ld	s0,96(sp)
	.cfi_restore 8
	ld	s1,88(sp)
	.cfi_restore 9
.LVL304:
	ld	s2,80(sp)
	.cfi_restore 18
	addi	sp,sp,112
	.cfi_def_cfa_offset 0
	jr	ra
.LVL305:
.L165:
	.cfi_restore_state
	.loc 1 707 5 is_stmt 1
	lla	a0,.LC7
	call	caml_failwith
.LVL306:
.L166:
	.loc 1 711 5
	call	caml_raise_end_of_file
.LVL307:
.L167:
	.loc 1 713 5
	lla	a0,.LC8
.LVL308:
	call	caml_failwith
.LVL309:
.L168:
	.loc 1 717 5
	.loc 1 717 9 is_stmt 0
	li	a2,12
	addi	a1,sp,68
	mv	a0,s1
.LVL310:
	call	caml_really_getblock
.LVL311:
	.loc 1 717 8
	li	a5,11
	bgt	a0,a5,.L160
	.loc 1 718 7 is_stmt 1
	lla	a0,.LC8
	call	caml_failwith
.LVL312:
.L169:
	.loc 1 729 5
	mv	a0,s0
	call	caml_stat_free
.LVL313:
	.loc 1 730 5
	lla	a0,.LC8
	call	caml_failwith
.LVL314:
.L162:
	.loc 1 740 5
	lla	s0,intern_extra_block
.LVL315:
	ld	a0,0(s0)
	call	caml_disown_for_heap
.LVL316:
	.loc 1 741 5
	.loc 1 741 24 is_stmt 0
	sd	zero,0(s0)
	.loc 1 742 5 is_stmt 1
	.loc 1 742 18 is_stmt 0
	sd	zero,intern_block,a5
	j	.L163
	.cfi_endproc
.LFE31:
	.size	caml_input_val_core, .-caml_input_val_core
	.align	1
	.type	input_val_from_block, @function
input_val_from_block:
.LFB38:
	.loc 1 813 1 is_stmt 1
	.cfi_startproc
.LVL317:
	addi	sp,sp,-32
	.cfi_def_cfa_offset 32
	sd	ra,24(sp)
	sd	s0,16(sp)
	.cfi_offset 1, -8
	.cfi_offset 8, -16
	mv	s0,a0
	.loc 1 814 3
	.loc 1 816 3
	li	a2,0
	ld	a1,16(a0)
	ld	a0,24(a0)
.LVL318:
	call	intern_alloc
.LVL319:
	.loc 1 818 3
	addi	a0,sp,8
	call	intern_rec
.LVL320:
	.loc 1 819 3
	ld	a0,24(s0)
	call	intern_add_to_heap
.LVL321:
	.loc 1 821 3
	call	intern_cleanup
.LVL322:
	.loc 1 822 3
	.loc 1 822 10 is_stmt 0
	ld	a0,8(sp)
	call	caml_check_urgent_gc
.LVL323:
	.loc 1 823 1
	ld	ra,24(sp)
	.cfi_restore 1
	ld	s0,16(sp)
	.cfi_restore 8
.LVL324:
	addi	sp,sp,32
	.cfi_def_cfa_offset 0
	jr	ra
	.cfi_endproc
.LFE38:
	.size	input_val_from_block, .-input_val_from_block
	.align	1
	.globl	caml_input_val
	.type	caml_input_val, @function
caml_input_val:
.LFB32:
	.loc 1 750 1 is_stmt 1
	.cfi_startproc
.LVL325:
	addi	sp,sp,-16
	.cfi_def_cfa_offset 16
	sd	ra,8(sp)
	.cfi_offset 1, -8
	.loc 1 751 3
	.loc 1 751 10 is_stmt 0
	li	a1,0
	call	caml_input_val_core
.LVL326:
	.loc 1 752 1
	ld	ra,8(sp)
	.cfi_restore 1
	addi	sp,sp,16
	.cfi_def_cfa_offset 0
	jr	ra
	.cfi_endproc
.LFE32:
	.size	caml_input_val, .-caml_input_val
	.align	1
	.globl	caml_input_value
	.type	caml_input_value, @function
caml_input_value:
.LFB33:
	.loc 1 755 1 is_stmt 1
	.cfi_startproc
.LVL327:
	addi	sp,sp,-192
	.cfi_def_cfa_offset 192
	sd	ra,184(sp)
	sd	s0,176(sp)
	sd	s1,168(sp)
	.cfi_offset 1, -8
	.cfi_offset 8, -16
	.cfi_offset 9, -24
	sd	a0,8(sp)
	.loc 1 756 3
	lla	a4,caml_local_roots
	ld	s1,0(a4)
.LVL328:
	.loc 1 756 3
	.loc 1 756 3
	sd	s1,96(sp)
	addi	a5,sp,96
	sd	a5,0(a4)
	li	a5,1
	sd	a5,112(sp)
	sd	a5,104(sp)
	addi	a3,sp,8
	sd	a3,120(sp)
.LVL329:
	.loc 1 757 3
	.loc 1 757 20 is_stmt 0
	ld	s0,8(a0)
.LVL330:
	.loc 1 758 3 is_stmt 1
	sd	a5,88(sp)
	.loc 1 758 3
	.loc 1 758 3
	addi	a3,sp,96
	sd	a3,24(sp)
	addi	a3,sp,24
	sd	a3,0(a4)
	sd	a5,40(sp)
	sd	a5,32(sp)
	addi	a5,sp,88
	sd	a5,48(sp)
.LVL331:
	.loc 1 760 3
	ld	a5,caml_channel_mutex_lock
	beq	a5,zero,.L175
	.loc 1 760 3 discriminator 1
	mv	a0,s0
.LVL332:
	jalr	a5
.LVL333:
.L175:
	.loc 1 761 3
	.loc 1 761 9 is_stmt 0
	mv	a0,s0
	call	caml_input_val
.LVL334:
	.loc 1 761 7
	sd	a0,88(sp)
	.loc 1 762 3 is_stmt 1
	ld	a5,caml_channel_mutex_unlock
	beq	a5,zero,.L176
	.loc 1 762 3 discriminator 1
	mv	a0,s0
	jalr	a5
.LVL335:
.L176:
	.loc 1 763 3
.LBB138:
	.loc 1 763 3
	.loc 1 763 3
	sd	s1,caml_local_roots,a5
	.loc 1 763 3
.LBE138:
	.loc 1 763 3
	.loc 1 764 1 is_stmt 0
	ld	a0,88(sp)
	ld	ra,184(sp)
	.cfi_restore 1
	ld	s0,176(sp)
	.cfi_restore 8
.LVL336:
	ld	s1,168(sp)
	.cfi_restore 9
.LVL337:
	addi	sp,sp,192
	.cfi_def_cfa_offset 0
.LVL338:
	jr	ra
	.cfi_endproc
.LFE33:
	.size	caml_input_value, .-caml_input_value
	.align	1
	.globl	caml_input_value_to_outside_heap
	.type	caml_input_value_to_outside_heap, @function
caml_input_value_to_outside_heap:
.LFB34:
	.loc 1 769 1 is_stmt 1
	.cfi_startproc
.LVL339:
	addi	sp,sp,-192
	.cfi_def_cfa_offset 192
	sd	ra,184(sp)
	sd	s0,176(sp)
	sd	s1,168(sp)
	.cfi_offset 1, -8
	.cfi_offset 8, -16
	.cfi_offset 9, -24
	sd	a0,8(sp)
	.loc 1 770 3
	lla	a4,caml_local_roots
	ld	s1,0(a4)
.LVL340:
	.loc 1 770 3
	.loc 1 770 3
	sd	s1,96(sp)
	addi	a5,sp,96
	sd	a5,0(a4)
	li	a5,1
	sd	a5,112(sp)
	sd	a5,104(sp)
	addi	a3,sp,8
	sd	a3,120(sp)
.LVL341:
	.loc 1 771 3
	.loc 1 771 20 is_stmt 0
	ld	s0,8(a0)
.LVL342:
	.loc 1 772 3 is_stmt 1
	sd	a5,88(sp)
	.loc 1 772 3
	.loc 1 772 3
	addi	a3,sp,96
	sd	a3,24(sp)
	addi	a3,sp,24
	sd	a3,0(a4)
	sd	a5,40(sp)
	sd	a5,32(sp)
	addi	a5,sp,88
	sd	a5,48(sp)
.LVL343:
	.loc 1 774 3
	ld	a5,caml_channel_mutex_lock
	beq	a5,zero,.L179
	.loc 1 774 3 discriminator 1
	mv	a0,s0
.LVL344:
	jalr	a5
.LVL345:
.L179:
	.loc 1 775 3
	.loc 1 775 9 is_stmt 0
	li	a1,1
	mv	a0,s0
	call	caml_input_val_core
.LVL346:
	.loc 1 775 7
	sd	a0,88(sp)
	.loc 1 776 3 is_stmt 1
	ld	a5,caml_channel_mutex_unlock
	beq	a5,zero,.L180
	.loc 1 776 3 discriminator 1
	mv	a0,s0
	jalr	a5
.LVL347:
.L180:
	.loc 1 777 3
.LBB139:
	.loc 1 777 3
	.loc 1 777 3
	sd	s1,caml_local_roots,a5
	.loc 1 777 3
.LBE139:
	.loc 1 777 3
	.loc 1 778 1 is_stmt 0
	ld	a0,88(sp)
	ld	ra,184(sp)
	.cfi_restore 1
	ld	s0,176(sp)
	.cfi_restore 8
.LVL348:
	ld	s1,168(sp)
	.cfi_restore 9
.LVL349:
	addi	sp,sp,192
	.cfi_def_cfa_offset 0
.LVL350:
	jr	ra
	.cfi_endproc
.LFE34:
	.size	caml_input_value_to_outside_heap, .-caml_input_value_to_outside_heap
	.section	.rodata.str1.8
	.align	3
.LC10:
	.string	"input_val_from_string"
	.align	3
.LC11:
	.string	"input_val_from_string: bad length"
	.text
	.align	1
	.globl	caml_input_val_from_bytes
	.type	caml_input_val_from_bytes, @function
caml_input_val_from_bytes:
.LFB35:
	.loc 1 781 1 is_stmt 1
	.cfi_startproc
.LVL351:
	addi	sp,sp,-224
	.cfi_def_cfa_offset 224
	sd	ra,216(sp)
	sd	s0,208(sp)
	sd	s1,200(sp)
	sd	s2,192(sp)
	.cfi_offset 1, -8
	.cfi_offset 8, -16
	.cfi_offset 9, -24
	.cfi_offset 18, -32
	sd	a0,8(sp)
	mv	s1,a1
	.loc 1 782 3
	lla	a4,caml_local_roots
	ld	s2,0(a4)
.LVL352:
	.loc 1 782 3
	.loc 1 782 3
	sd	s2,128(sp)
	li	a5,1
	sd	a5,144(sp)
	sd	a5,136(sp)
	addi	a3,sp,8
	sd	a3,152(sp)
.LVL353:
	.loc 1 783 3
	sd	a5,120(sp)
	.loc 1 783 3
	.loc 1 783 3
	addi	a3,sp,128
	sd	a3,56(sp)
	addi	a3,sp,56
	sd	a3,0(a4)
	sd	a5,72(sp)
	sd	a5,64(sp)
	addi	a5,sp,120
	sd	a5,80(sp)
.LVL354:
	.loc 1 784 3
	.loc 1 787 3
	li	a1,0
.LVL355:
	add	a0,s1,a0
.LVL356:
	call	intern_init
.LVL357:
	.loc 1 788 3
	addi	a1,sp,24
	lla	a0,.LC10
	call	caml_parse_header
.LVL358:
	.loc 1 789 3
	.loc 1 789 14 is_stmt 0
	lw	s0,28(sp)
	.loc 1 789 11
	add	s0,s0,s1
	.loc 1 789 29
	ld	a5,32(sp)
	.loc 1 789 26
	add	s0,s0,a5
	.loc 1 789 41
	ld	a0,8(sp)
	call	caml_string_length
.LVL359:
	.loc 1 789 6
	bgtu	s0,a0,.L185
	.loc 1 792 3 is_stmt 1
	li	a2,0
	ld	a1,40(sp)
	ld	a0,48(sp)
	call	intern_alloc
.LVL360:
	.loc 1 793 3
	.loc 1 793 17 is_stmt 0
	lw	a1,28(sp)
	add	s1,a1,s1
.LVL361:
	ld	a1,8(sp)
	add	s1,s1,a1
	.loc 1 793 14
	sd	s1,intern_src,a5
	.loc 1 795 3 is_stmt 1
	addi	a0,sp,120
	call	intern_rec
.LVL362:
	.loc 1 796 3
	ld	a0,48(sp)
	call	intern_add_to_heap
.LVL363:
	.loc 1 798 3
	call	intern_cleanup
.LVL364:
	.loc 1 799 3
.LBB140:
	.loc 1 799 3
	ld	a0,120(sp)
	call	caml_check_urgent_gc
.LVL365:
	.loc 1 799 3
	sd	s2,caml_local_roots,a5
	.loc 1 799 3
.LBE140:
	.loc 1 799 3
	.loc 1 800 1 is_stmt 0
	ld	ra,216(sp)
	.cfi_remember_state
	.cfi_restore 1
	ld	s0,208(sp)
	.cfi_restore 8
	ld	s1,200(sp)
	.cfi_restore 9
	ld	s2,192(sp)
	.cfi_restore 18
.LVL366:
	addi	sp,sp,224
	.cfi_def_cfa_offset 0
	jr	ra
.LVL367:
.L185:
	.cfi_restore_state
	.loc 1 790 5 is_stmt 1
	lla	a0,.LC11
	call	caml_failwith
.LVL368:
	.cfi_endproc
.LFE35:
	.size	caml_input_val_from_bytes, .-caml_input_val_from_bytes
	.align	1
	.globl	caml_input_value_from_string
	.type	caml_input_value_from_string, @function
caml_input_value_from_string:
.LFB36:
	.loc 1 803 1
	.cfi_startproc
.LVL369:
	addi	sp,sp,-16
	.cfi_def_cfa_offset 16
	sd	ra,8(sp)
	.cfi_offset 1, -8
	.loc 1 804 3
	.loc 1 804 10 is_stmt 0
	srai	a1,a1,1
.LVL370:
	call	caml_input_val_from_bytes
.LVL371:
	.loc 1 805 1
	ld	ra,8(sp)
	.cfi_restore 1
	addi	sp,sp,16
	.cfi_def_cfa_offset 0
	jr	ra
	.cfi_endproc
.LFE36:
	.size	caml_input_value_from_string, .-caml_input_value_from_string
	.align	1
	.globl	caml_input_value_from_bytes
	.type	caml_input_value_from_bytes, @function
caml_input_value_from_bytes:
.LFB37:
	.loc 1 808 1 is_stmt 1
	.cfi_startproc
.LVL372:
	addi	sp,sp,-16
	.cfi_def_cfa_offset 16
	sd	ra,8(sp)
	.cfi_offset 1, -8
	.loc 1 809 3
	.loc 1 809 10 is_stmt 0
	srai	a1,a1,1
.LVL373:
	call	caml_input_val_from_bytes
.LVL374:
	.loc 1 810 1
	ld	ra,8(sp)
	.cfi_restore 1
	addi	sp,sp,16
	.cfi_def_cfa_offset 0
	jr	ra
	.cfi_endproc
.LFE37:
	.size	caml_input_value_from_bytes, .-caml_input_value_from_bytes
	.section	.rodata.str1.8
	.align	3
.LC12:
	.string	"input_value_from_malloc"
	.text
	.align	1
	.globl	caml_input_value_from_malloc
	.type	caml_input_value_from_malloc, @function
caml_input_value_from_malloc:
.LFB39:
	.loc 1 826 1 is_stmt 1
	.cfi_startproc
.LVL375:
	addi	sp,sp,-48
	.cfi_def_cfa_offset 48
	sd	ra,40(sp)
	.cfi_offset 1, -8
	mv	a5,a1
	.loc 1 827 3
	.loc 1 829 3
	mv	a1,a0
.LVL376:
	add	a0,a0,a5
.LVL377:
	call	intern_init
.LVL378:
	.loc 1 831 3
	mv	a1,sp
	lla	a0,.LC12
	call	caml_parse_header
.LVL379:
	.loc 1 833 3
	.loc 1 833 10 is_stmt 0
	mv	a0,sp
	call	input_val_from_block
.LVL380:
	.loc 1 834 1
	ld	ra,40(sp)
	.cfi_restore 1
	addi	sp,sp,48
	.cfi_def_cfa_offset 0
	jr	ra
	.cfi_endproc
.LFE39:
	.size	caml_input_value_from_malloc, .-caml_input_value_from_malloc
	.section	.rodata.str1.8
	.align	3
.LC13:
	.string	"input_value_from_block"
	.align	3
.LC14:
	.string	"input_val_from_block: bad length"
	.text
	.align	1
	.globl	caml_input_value_from_block
	.type	caml_input_value_from_block, @function
caml_input_value_from_block:
.LFB40:
	.loc 1 838 1 is_stmt 1
	.cfi_startproc
.LVL381:
	addi	sp,sp,-48
	.cfi_def_cfa_offset 48
	sd	ra,40(sp)
	sd	s0,32(sp)
	.cfi_offset 1, -8
	.cfi_offset 8, -16
	mv	s0,a1
	.loc 1 839 3
	.loc 1 842 3
	li	a1,0
.LVL382:
	call	intern_init
.LVL383:
	.loc 1 843 3
	mv	a1,sp
	lla	a0,.LC13
	call	caml_parse_header
.LVL384:
	.loc 1 844 3
	.loc 1 844 8 is_stmt 0
	lw	a5,4(sp)
	.loc 1 844 23
	ld	a4,8(sp)
	.loc 1 844 20
	add	a5,a5,a4
	.loc 1 844 6
	bgtu	a5,s0,.L195
	.loc 1 846 3 is_stmt 1
	.loc 1 846 10 is_stmt 0
	mv	a0,sp
	call	input_val_from_block
.LVL385:
	.loc 1 847 1
	ld	ra,40(sp)
	.cfi_remember_state
	.cfi_restore 1
	ld	s0,32(sp)
	.cfi_restore 8
.LVL386:
	addi	sp,sp,48
	.cfi_def_cfa_offset 0
	jr	ra
.LVL387:
.L195:
	.cfi_restore_state
	.loc 1 845 5 is_stmt 1
	lla	a0,.LC14
	call	caml_failwith
.LVL388:
	.cfi_endproc
.LFE40:
	.size	caml_input_value_from_block, .-caml_input_value_from_block
	.section	.rodata.str1.8
	.align	3
.LC15:
	.string	"Marshal.data_size: bad object"
	.text
	.align	1
	.globl	caml_marshal_data_size
	.type	caml_marshal_data_size, @function
caml_marshal_data_size:
.LFB41:
	.loc 1 857 1
	.cfi_startproc
.LVL389:
	.loc 1 858 3
	.loc 1 859 3
	.loc 1 860 3
	.loc 1 862 3
	.loc 1 862 17 is_stmt 0
	srai	a1,a1,1
.LVL390:
	add	a0,a1,a0
.LVL391:
	.loc 1 863 3 is_stmt 1
.LBB141:
.LBB142:
	.loc 1 99 3
	.loc 1 100 6 is_stmt 0
	lbu	a5,0(a0)
	.loc 1 100 32
	slliw	a5,a5,24
	.loc 1 100 52
	lbu	a4,1(a0)
	.loc 1 100 56
	slliw	a4,a4,16
	.loc 1 100 39
	addw	a5,a5,a4
	.loc 1 101 18
	lbu	a4,2(a0)
	.loc 1 101 22
	slliw	a4,a4,8
	.loc 1 101 5
	addw	a5,a5,a4
	.loc 1 101 40
	lbu	a4,3(a0)
	.loc 1 99 12
	addw	a5,a5,a4
.LVL392:
	.loc 1 102 3 is_stmt 1
	.loc 1 102 14 is_stmt 0
	addi	a4,a0,4
.LVL393:
	sd	a4,intern_src,a3
	.loc 1 103 3 is_stmt 1
.LVL394:
.LBE142:
.LBE141:
	.loc 1 864 3
	li	a3,-2070568960
	addi	a3,a3,1726
	beq	a5,a3,.L197
	.loc 1 857 1 is_stmt 0
	addi	sp,sp,-16
	.cfi_def_cfa_offset 16
	sd	ra,8(sp)
.LVL395:
	.cfi_offset 1, -8
	.loc 1 864 3
	li	a3,-2070568960
	addi	a3,a3,1727
	bne	a5,a3,.L206
	.loc 1 871 5 is_stmt 1
.LVL396:
	.loc 1 872 5
.LBB143:
.LBB144:
	.loc 1 99 3
	.loc 1 102 3
	.loc 1 102 14 is_stmt 0
	addi	a4,a4,4
	sd	a4,intern_src,a5
	.loc 1 103 3 is_stmt 1
.LBE144:
.LBE143:
	.loc 1 873 5
	.loc 1 873 16 is_stmt 0
	call	read64u
.LVL397:
	mv	a5,a0
.LVL398:
	.loc 1 878 5 is_stmt 1
	.loc 1 871 16 is_stmt 0
	li	a0,32
.LVL399:
	.loc 1 882 3 is_stmt 1
	.loc 1 882 10 is_stmt 0
	addiw	a0,a0,-20
.LVL400:
	add	a0,a0,a5
	slli	a0,a0,1
	.loc 1 883 1
	addi	a0,a0,1
	ld	ra,8(sp)
	.cfi_restore 1
	addi	sp,sp,16
	.cfi_def_cfa_offset 0
	jr	ra
.LVL401:
.L197:
	.loc 1 866 5 is_stmt 1
	.loc 1 867 5
.LBB145:
.LBB146:
	.loc 1 99 3
	.loc 1 100 6 is_stmt 0
	lbu	a0,4(a0)
.LVL402:
	.loc 1 100 32
	slliw	a0,a0,24
	.loc 1 100 52
	lbu	a5,1(a4)
	.loc 1 100 56
	slliw	a5,a5,16
	.loc 1 100 39
	addw	a0,a0,a5
	.loc 1 101 18
	lbu	a5,2(a4)
	.loc 1 101 22
	slliw	a5,a5,8
	.loc 1 101 5
	addw	a0,a0,a5
	.loc 1 101 40
	lbu	a5,3(a4)
	.loc 1 99 12
	addw	a0,a0,a5
.LVL403:
	.loc 1 102 3 is_stmt 1
	.loc 1 102 14 is_stmt 0
	addi	a4,a4,4
.LVL404:
	sd	a4,intern_src,a5
.LVL405:
	.loc 1 103 3 is_stmt 1
.LBE146:
.LBE145:
	.loc 1 867 14 is_stmt 0
	slli	a5,a0,32
	srli	a5,a5,32
.LVL406:
	.loc 1 868 5 is_stmt 1
	.loc 1 866 16 is_stmt 0
	li	a0,20
.LVL407:
	.loc 1 882 3 is_stmt 1
	.loc 1 882 10 is_stmt 0
	addiw	a0,a0,-20
.LVL408:
	add	a0,a0,a5
	slli	a0,a0,1
	.loc 1 883 1
	addi	a0,a0,1
	ret
.LVL409:
.L206:
	.cfi_def_cfa_offset 16
	.cfi_offset 1, -8
	.loc 1 880 5 is_stmt 1
	lla	a0,.LC15
	call	caml_failwith
.LVL410:
	.cfi_endproc
.LFE41:
	.size	caml_marshal_data_size, .-caml_marshal_data_size
	.align	1
	.globl	caml_deserialize_uint_1
	.type	caml_deserialize_uint_1, @function
caml_deserialize_uint_1:
.LFB44:
	.loc 1 924 1
	.cfi_startproc
	.loc 1 925 3
.LBB147:
.LBB148:
	.loc 1 78 3
	.loc 1 78 21 is_stmt 0
	lla	a4,intern_src
	ld	a5,0(a4)
	addi	a3,a5,1
	sd	a3,0(a4)
.LBE148:
.LBE147:
	.loc 1 926 1
	lbu	a0,0(a5)
	ret
	.cfi_endproc
.LFE44:
	.size	caml_deserialize_uint_1, .-caml_deserialize_uint_1
	.align	1
	.globl	caml_deserialize_sint_1
	.type	caml_deserialize_sint_1, @function
caml_deserialize_sint_1:
.LFB45:
	.loc 1 929 1 is_stmt 1
	.cfi_startproc
	.loc 1 930 3
.LBB149:
.LBB150:
	.loc 1 81 3
	.loc 1 81 21 is_stmt 0
	lla	a4,intern_src
	ld	a5,0(a4)
	addi	a3,a5,1
	sd	a3,0(a4)
.LBE150:
.LBE149:
	.loc 1 931 1
	lb	a0,0(a5)
	ret
	.cfi_endproc
.LFE45:
	.size	caml_deserialize_sint_1, .-caml_deserialize_sint_1
	.align	1
	.globl	caml_deserialize_uint_2
	.type	caml_deserialize_uint_2, @function
caml_deserialize_uint_2:
.LFB46:
	.loc 1 934 1 is_stmt 1
	.cfi_startproc
	.loc 1 935 3
.LBB151:
.LBB152:
	.loc 1 85 3
	.loc 1 85 29 is_stmt 0
	lla	a4,intern_src
	ld	a5,0(a4)
	lbu	a0,0(a5)
	.loc 1 85 33
	slliw	a0,a0,8
	.loc 1 85 51
	lbu	a3,1(a5)
	.loc 1 85 39
	addw	a0,a0,a3
.LVL411:
	.loc 1 86 3 is_stmt 1
	.loc 1 86 14 is_stmt 0
	addi	a5,a5,2
	sd	a5,0(a4)
	.loc 1 87 3 is_stmt 1
.LVL412:
.LBE152:
.LBE151:
	.loc 1 936 1 is_stmt 0
	slli	a0,a0,48
	srli	a0,a0,48
	ret
	.cfi_endproc
.LFE46:
	.size	caml_deserialize_uint_2, .-caml_deserialize_uint_2
	.align	1
	.globl	caml_deserialize_sint_2
	.type	caml_deserialize_sint_2, @function
caml_deserialize_sint_2:
.LFB47:
	.loc 1 939 1 is_stmt 1
	.cfi_startproc
	.loc 1 940 3
.LBB153:
.LBB154:
	.loc 1 92 3
	.loc 1 92 28 is_stmt 0
	lla	a4,intern_src
	ld	a5,0(a4)
	lbu	a0,0(a5)
	.loc 1 92 32
	slliw	a0,a0,8
	.loc 1 92 38
	slliw	a0,a0,16
	sraiw	a0,a0,16
	.loc 1 92 50
	lbu	a3,1(a5)
	.loc 1 92 11
	addw	a0,a0,a3
.LVL413:
	.loc 1 93 3 is_stmt 1
	.loc 1 93 14 is_stmt 0
	addi	a5,a5,2
	sd	a5,0(a4)
	.loc 1 94 3 is_stmt 1
.LVL414:
.LBE154:
.LBE153:
	.loc 1 941 1 is_stmt 0
	slliw	a0,a0,16
	sraiw	a0,a0,16
	ret
	.cfi_endproc
.LFE47:
	.size	caml_deserialize_sint_2, .-caml_deserialize_sint_2
	.align	1
	.globl	caml_deserialize_uint_4
	.type	caml_deserialize_uint_4, @function
caml_deserialize_uint_4:
.LFB48:
	.loc 1 944 1 is_stmt 1
	.cfi_startproc
	.loc 1 945 3
.LBB155:
.LBB156:
	.loc 1 99 3
	.loc 1 100 27 is_stmt 0
	lla	a3,intern_src
	ld	a4,0(a3)
	.loc 1 100 6
	lbu	a5,0(a4)
	.loc 1 100 32
	slliw	a5,a5,24
	.loc 1 100 52
	lbu	a0,1(a4)
	.loc 1 100 56
	slliw	a0,a0,16
	.loc 1 100 39
	addw	a5,a5,a0
	.loc 1 101 18
	lbu	a0,2(a4)
	.loc 1 101 22
	slliw	a0,a0,8
	.loc 1 101 5
	addw	a5,a5,a0
	.loc 1 101 40
	lbu	a0,3(a4)
.LVL415:
	.loc 1 102 3 is_stmt 1
	.loc 1 102 14 is_stmt 0
	addi	a4,a4,4
	sd	a4,0(a3)
	.loc 1 103 3 is_stmt 1
.LVL416:
.LBE156:
.LBE155:
	.loc 1 946 1 is_stmt 0
	addw	a0,a5,a0
	ret
	.cfi_endproc
.LFE48:
	.size	caml_deserialize_uint_4, .-caml_deserialize_uint_4
	.align	1
	.globl	caml_deserialize_sint_4
	.type	caml_deserialize_sint_4, @function
caml_deserialize_sint_4:
.LFB49:
	.loc 1 949 1 is_stmt 1
	.cfi_startproc
	.loc 1 950 3
.LBB157:
.LBB158:
	.loc 1 108 3
	.loc 1 109 27 is_stmt 0
	lla	a3,intern_src
	ld	a4,0(a3)
	.loc 1 109 6
	lbu	a5,0(a4)
	.loc 1 109 32
	slliw	a5,a5,24
	.loc 1 109 52
	lbu	a0,1(a4)
	.loc 1 109 56
	slliw	a0,a0,16
	.loc 1 109 39
	addw	a5,a5,a0
	.loc 1 110 18
	lbu	a0,2(a4)
	.loc 1 110 22
	slliw	a0,a0,8
	.loc 1 110 5
	addw	a5,a5,a0
	.loc 1 110 40
	lbu	a0,3(a4)
.LVL417:
	.loc 1 111 3 is_stmt 1
	.loc 1 111 14 is_stmt 0
	addi	a4,a4,4
	sd	a4,0(a3)
	.loc 1 112 3 is_stmt 1
.LVL418:
.LBE158:
.LBE157:
	.loc 1 951 1 is_stmt 0
	addw	a0,a5,a0
	ret
	.cfi_endproc
.LFE49:
	.size	caml_deserialize_sint_4, .-caml_deserialize_sint_4
	.align	1
	.globl	caml_deserialize_block_1
	.type	caml_deserialize_block_1, @function
caml_deserialize_block_1:
.LFB54:
	.loc 1 982 1 is_stmt 1
	.cfi_startproc
.LVL419:
	addi	sp,sp,-32
	.cfi_def_cfa_offset 32
	sd	ra,24(sp)
	sd	s0,16(sp)
	sd	s1,8(sp)
	sd	s2,0(sp)
	.cfi_offset 1, -8
	.cfi_offset 8, -16
	.cfi_offset 9, -24
	.cfi_offset 18, -32
	mv	s1,a1
	.loc 1 983 3
	lla	s2,intern_src
	ld	s0,0(s2)
	mv	a2,a1
	mv	a1,s0
.LVL420:
	call	memcpy
.LVL421:
	.loc 1 984 3
	.loc 1 984 14 is_stmt 0
	add	s0,s0,s1
	sd	s0,0(s2)
	.loc 1 985 1
	ld	ra,24(sp)
	.cfi_restore 1
	ld	s0,16(sp)
	.cfi_restore 8
	ld	s1,8(sp)
	.cfi_restore 9
.LVL422:
	ld	s2,0(sp)
	.cfi_restore 18
	addi	sp,sp,32
	.cfi_def_cfa_offset 0
	jr	ra
	.cfi_endproc
.LFE54:
	.size	caml_deserialize_block_1, .-caml_deserialize_block_1
	.align	1
	.globl	caml_deserialize_block_2
	.type	caml_deserialize_block_2, @function
caml_deserialize_block_2:
.LFB55:
	.loc 1 988 1 is_stmt 1
	.cfi_startproc
.LVL423:
	.loc 1 990 3
	.loc 1 991 3
	.loc 1 991 10 is_stmt 0
	ld	a5,intern_src
.LVL424:
.L216:
	.loc 1 991 34 is_stmt 1 discriminator 1
	.loc 1 991 3 is_stmt 0 discriminator 1
	ble	a1,zero,.L218
.LBB159:
	.loc 1 992 5 is_stmt 1 discriminator 3
	.loc 1 992 5 discriminator 3
	.loc 1 992 5 discriminator 3
.LVL425:
	.loc 1 992 5 discriminator 3
	.loc 1 992 5 discriminator 3
	lbu	a4,0(a5)
.LVL426:
	.loc 1 992 5 discriminator 3
	lbu	a3,1(a5)
	sb	a3,0(a0)
	.loc 1 992 5 discriminator 3
	sb	a4,1(a0)
.LBE159:
	.loc 1 991 43 discriminator 3
	.loc 1 991 46 is_stmt 0 discriminator 3
	addi	a1,a1,-1
.LVL427:
	.loc 1 991 52 discriminator 3
	addi	a5,a5,2
.LVL428:
	.loc 1 991 60 discriminator 3
	addi	a0,a0,2
.LVL429:
	j	.L216
.LVL430:
.L218:
	.loc 1 992 21 is_stmt 1
	.loc 1 993 3
	.loc 1 993 14 is_stmt 0
	sd	a5,intern_src,a4
	.loc 1 998 1
	ret
	.cfi_endproc
.LFE55:
	.size	caml_deserialize_block_2, .-caml_deserialize_block_2
	.align	1
	.globl	caml_deserialize_block_4
	.type	caml_deserialize_block_4, @function
caml_deserialize_block_4:
.LFB56:
	.loc 1 1001 1 is_stmt 1
	.cfi_startproc
.LVL431:
	.loc 1 1003 3
	.loc 1 1004 3
	.loc 1 1004 10 is_stmt 0
	ld	a5,intern_src
.LVL432:
.L220:
	.loc 1 1004 34 is_stmt 1 discriminator 1
	.loc 1 1004 3 is_stmt 0 discriminator 1
	ble	a1,zero,.L222
.LBB160:
	.loc 1 1005 5 is_stmt 1 discriminator 3
	.loc 1 1005 5 discriminator 3
	.loc 1 1005 5 discriminator 3
.LVL433:
	.loc 1 1005 5 discriminator 3
	.loc 1 1005 5 discriminator 3
	lbu	a3,0(a5)
.LVL434:
	.loc 1 1005 5 discriminator 3
	lbu	a4,1(a5)
.LVL435:
	.loc 1 1005 5 discriminator 3
	lbu	a2,3(a5)
	sb	a2,0(a0)
	.loc 1 1005 5 discriminator 3
	lbu	a2,2(a5)
	sb	a2,1(a0)
	.loc 1 1005 5 discriminator 3
	sb	a3,3(a0)
	.loc 1 1005 5 discriminator 3
	sb	a4,2(a0)
.LBE160:
	.loc 1 1004 43 discriminator 3
	.loc 1 1004 46 is_stmt 0 discriminator 3
	addi	a1,a1,-1
.LVL436:
	.loc 1 1004 52 discriminator 3
	addi	a5,a5,4
.LVL437:
	.loc 1 1004 60 discriminator 3
	addi	a0,a0,4
.LVL438:
	j	.L220
.LVL439:
.L222:
	.loc 1 1005 21 is_stmt 1
	.loc 1 1006 3
	.loc 1 1006 14 is_stmt 0
	sd	a5,intern_src,a4
	.loc 1 1011 1
	ret
	.cfi_endproc
.LFE56:
	.size	caml_deserialize_block_4, .-caml_deserialize_block_4
	.align	1
	.globl	caml_deserialize_float_4
	.type	caml_deserialize_float_4, @function
caml_deserialize_float_4:
.LFB52:
	.loc 1 968 1 is_stmt 1
	.cfi_startproc
	addi	sp,sp,-32
	.cfi_def_cfa_offset 32
	sd	ra,24(sp)
	.cfi_offset 1, -8
	.loc 1 969 3
	.loc 1 970 3
	li	a1,1
	addi	a0,sp,12
	call	caml_deserialize_block_4
.LVL440:
	.loc 1 971 3
	.loc 1 972 1 is_stmt 0
	flw	fa0,12(sp)
	ld	ra,24(sp)
	.cfi_restore 1
	addi	sp,sp,32
	.cfi_def_cfa_offset 0
	jr	ra
	.cfi_endproc
.LFE52:
	.size	caml_deserialize_float_4, .-caml_deserialize_float_4
	.align	1
	.globl	caml_deserialize_block_8
	.type	caml_deserialize_block_8, @function
caml_deserialize_block_8:
.LFB57:
	.loc 1 1014 1 is_stmt 1
	.cfi_startproc
.LVL441:
	.loc 1 1016 3
	.loc 1 1017 3
	.loc 1 1017 10 is_stmt 0
	ld	a5,intern_src
.LVL442:
.L226:
	.loc 1 1017 34 is_stmt 1 discriminator 1
	.loc 1 1017 3 is_stmt 0 discriminator 1
	ble	a1,zero,.L228
.LBB161:
	.loc 1 1018 5 is_stmt 1 discriminator 3
	.loc 1 1018 5 discriminator 3
	.loc 1 1018 5 discriminator 3
.LVL443:
	.loc 1 1018 5 discriminator 3
	.loc 1 1018 5 discriminator 3
	lbu	a3,0(a5)
.LVL444:
	.loc 1 1018 5 discriminator 3
	lbu	a4,1(a5)
.LVL445:
	.loc 1 1018 5 discriminator 3
	lbu	a2,7(a5)
	sb	a2,0(a0)
	.loc 1 1018 5 discriminator 3
	lbu	a2,6(a5)
	sb	a2,1(a0)
	.loc 1 1018 5 discriminator 3
	sb	a3,7(a0)
	.loc 1 1018 5 discriminator 3
	sb	a4,6(a0)
	.loc 1 1018 5 discriminator 3
	lbu	a3,2(a5)
.LVL446:
	.loc 1 1018 5 discriminator 3
	lbu	a4,3(a5)
.LVL447:
	.loc 1 1018 5 discriminator 3
	lbu	a2,5(a5)
	sb	a2,2(a0)
	.loc 1 1018 5 discriminator 3
	lbu	a2,4(a5)
	sb	a2,3(a0)
	.loc 1 1018 5 discriminator 3
	sb	a3,5(a0)
	.loc 1 1018 5 discriminator 3
	sb	a4,4(a0)
.LBE161:
	.loc 1 1017 43 discriminator 3
	.loc 1 1017 46 is_stmt 0 discriminator 3
	addi	a1,a1,-1
.LVL448:
	.loc 1 1017 52 discriminator 3
	addi	a5,a5,8
.LVL449:
	.loc 1 1017 60 discriminator 3
	addi	a0,a0,8
.LVL450:
	j	.L226
.LVL451:
.L228:
	.loc 1 1018 21 is_stmt 1
	.loc 1 1019 3
	.loc 1 1019 14 is_stmt 0
	sd	a5,intern_src,a4
	.loc 1 1024 1
	ret
	.cfi_endproc
.LFE57:
	.size	caml_deserialize_block_8, .-caml_deserialize_block_8
	.align	1
	.globl	caml_deserialize_uint_8
	.type	caml_deserialize_uint_8, @function
caml_deserialize_uint_8:
.LFB50:
	.loc 1 954 1 is_stmt 1
	.cfi_startproc
	addi	sp,sp,-32
	.cfi_def_cfa_offset 32
	sd	ra,24(sp)
	.cfi_offset 1, -8
	.loc 1 955 3
	.loc 1 956 3
	li	a1,1
	addi	a0,sp,8
	call	caml_deserialize_block_8
.LVL452:
	.loc 1 957 3
	.loc 1 958 1 is_stmt 0
	ld	a0,8(sp)
	ld	ra,24(sp)
	.cfi_restore 1
	addi	sp,sp,32
	.cfi_def_cfa_offset 0
	jr	ra
	.cfi_endproc
.LFE50:
	.size	caml_deserialize_uint_8, .-caml_deserialize_uint_8
	.align	1
	.globl	caml_deserialize_sint_8
	.type	caml_deserialize_sint_8, @function
caml_deserialize_sint_8:
.LFB51:
	.loc 1 961 1 is_stmt 1
	.cfi_startproc
	addi	sp,sp,-32
	.cfi_def_cfa_offset 32
	sd	ra,24(sp)
	.cfi_offset 1, -8
	.loc 1 962 3
	.loc 1 963 3
	li	a1,1
	addi	a0,sp,8
	call	caml_deserialize_block_8
.LVL453:
	.loc 1 964 3
	.loc 1 965 1 is_stmt 0
	ld	a0,8(sp)
	ld	ra,24(sp)
	.cfi_restore 1
	addi	sp,sp,32
	.cfi_def_cfa_offset 0
	jr	ra
	.cfi_endproc
.LFE51:
	.size	caml_deserialize_sint_8, .-caml_deserialize_sint_8
	.align	1
	.globl	caml_deserialize_block_float_8
	.type	caml_deserialize_block_float_8, @function
caml_deserialize_block_float_8:
.LFB58:
	.loc 1 1027 1 is_stmt 1
	.cfi_startproc
.LVL454:
	addi	sp,sp,-32
	.cfi_def_cfa_offset 32
	sd	ra,24(sp)
	sd	s0,16(sp)
	sd	s1,8(sp)
	sd	s2,0(sp)
	.cfi_offset 1, -8
	.cfi_offset 8, -16
	.cfi_offset 9, -24
	.cfi_offset 18, -32
	.loc 1 1029 3
	lla	s2,intern_src
	ld	s0,0(s2)
	.loc 1 1029 32 is_stmt 0
	slli	s1,a1,3
	.loc 1 1029 3
	mv	a2,s1
	mv	a1,s0
.LVL455:
	call	memcpy
.LVL456:
	.loc 1 1030 3 is_stmt 1
	.loc 1 1030 14 is_stmt 0
	add	s0,s0,s1
	sd	s0,0(s2)
	.loc 1 1042 1
	ld	ra,24(sp)
	.cfi_restore 1
	ld	s0,16(sp)
	.cfi_restore 8
	ld	s1,8(sp)
	.cfi_restore 9
	ld	s2,0(sp)
	.cfi_restore 18
	addi	sp,sp,32
	.cfi_def_cfa_offset 0
	jr	ra
	.cfi_endproc
.LFE58:
	.size	caml_deserialize_block_float_8, .-caml_deserialize_block_float_8
	.align	1
	.globl	caml_deserialize_float_8
	.type	caml_deserialize_float_8, @function
caml_deserialize_float_8:
.LFB53:
	.loc 1 975 1 is_stmt 1
	.cfi_startproc
	addi	sp,sp,-32
	.cfi_def_cfa_offset 32
	sd	ra,24(sp)
	.cfi_offset 1, -8
	.loc 1 976 3
	.loc 1 977 3
	li	a1,1
	addi	a0,sp,8
	call	caml_deserialize_block_float_8
.LVL457:
	.loc 1 978 3
	.loc 1 979 1 is_stmt 0
	fld	fa0,8(sp)
	ld	ra,24(sp)
	.cfi_restore 1
	addi	sp,sp,32
	.cfi_def_cfa_offset 0
	jr	ra
	.cfi_endproc
.LFE53:
	.size	caml_deserialize_float_8, .-caml_deserialize_float_8
	.align	1
	.globl	caml_deserialize_error
	.type	caml_deserialize_error, @function
caml_deserialize_error:
.LFB59:
	.loc 1 1045 1 is_stmt 1
	.cfi_startproc
.LVL458:
	addi	sp,sp,-16
	.cfi_def_cfa_offset 16
	sd	ra,8(sp)
	sd	s0,0(sp)
	.cfi_offset 1, -8
	.cfi_offset 8, -16
	mv	s0,a0
	.loc 1 1046 3
	call	intern_cleanup
.LVL459:
	.loc 1 1047 3
	mv	a0,s0
	call	caml_failwith
.LVL460:
	.cfi_endproc
.LFE59:
	.size	caml_deserialize_error, .-caml_deserialize_error
	.comm	caml_major_work_credit,8,8
	.comm	caml_major_ring_index,4,4
	.comm	caml_major_ring,400,8
	.comm	caml_code_fragments_table,16,8
	.section	.srodata.cst8,"aM",@progbits,8
	.align	3
.LC3:
	.dword	-6148914691236517205
	.bss
	.align	3
	.type	intern_stack_init, @object
	.size	intern_stack_init, 6144
intern_stack_init:
	.zero	6144
	.section	.sbss,"aw",@nobits
	.align	3
	.type	intern_block, @object
	.size	intern_block, 8
intern_block:
	.zero	8
	.type	intern_header, @object
	.size	intern_header, 8
intern_header:
	.zero	8
	.type	intern_color, @object
	.size	intern_color, 4
intern_color:
	.zero	4
	.zero	4
	.type	intern_obj_table, @object
	.size	intern_obj_table, 8
intern_obj_table:
	.zero	8
	.type	obj_counter, @object
	.size	obj_counter, 8
obj_counter:
	.zero	8
	.type	intern_extra_block, @object
	.size	intern_extra_block, 8
intern_extra_block:
	.zero	8
	.type	intern_dest, @object
	.size	intern_dest, 8
intern_dest:
	.zero	8
	.type	intern_input, @object
	.size	intern_input, 8
intern_input:
	.zero	8
	.type	intern_src, @object
	.size	intern_src, 8
intern_src:
	.zero	8
	.section	.sdata,"aw"
	.align	3
	.type	intern_stack_limit, @object
	.size	intern_stack_limit, 8
intern_stack_limit:
	.dword	intern_stack_init+6144
	.type	intern_stack, @object
	.size	intern_stack, 8
intern_stack:
	.dword	intern_stack_init
	.text
.Letext0:
	.file 3 "/home/sai/ocaml-freestanding-riscv/nolibc/include/stdio.h"
	.file 4 "/home/sai/Shakti-TEE-Build/riscv/lib/gcc/riscv64-unknown-elf/9.2.0/include/stddef.h"
	.file 5 "caml/config.h"
	.file 6 "caml/misc.h"
	.file 7 "caml/mlvalues.h"
	.file 8 "caml/callback.h"
	.file 9 "caml/custom.h"
	.file 10 "/home/sai/ocaml-freestanding-riscv/nolibc/include/signal.h"
	.file 11 "caml/fail.h"
	.file 12 "caml/io.h"
	.file 13 "caml/intext.h"
	.file 14 "caml/freelist.h"
	.file 15 "caml/major_gc.h"
	.file 16 "caml/address_class.h"
	.file 17 "caml/memory.h"
	.file 18 "caml/md5.h"
	.file 19 "/home/sai/ocaml-freestanding-riscv/nolibc/include/string.h"
	.file 20 "caml/alloc.h"
	.file 21 "<built-in>"