	.file	"io.c"
	.option nopic
	.attribute arch, "rv64i2p0_m2p0_a2p0_f2p0_d2p0_c2p0"
	.attribute unaligned_access, 0
	.attribute stack_align, 16
	.text
.Ltext0:
	.cfi_sections	.debug_frame
	.align	1
	.type	unlink_channel, @function
unlink_channel:
.LFB14:
	.file 1 "io.c"
	.loc 1 101 1
	.cfi_startproc
.LVL0:
	.loc 1 102 3
	.loc 1 102 14 is_stmt 0
	ld	a5,56(a0)
	.loc 1 102 6
	beq	a5,zero,.L4
	.loc 1 108 5 is_stmt 1
	.loc 1 108 34 is_stmt 0
	ld	a4,48(a0)
	.loc 1 108 25
	sd	a4,48(a5)
	.loc 1 109 5 is_stmt 1
	.loc 1 109 8 is_stmt 0
	beq	a4,zero,.L1
	.loc 1 109 32 is_stmt 1 discriminator 1
	.loc 1 109 61 is_stmt 0 discriminator 1
	ld	a5,56(a0)
	.loc 1 109 52 discriminator 1
	sd	a5,56(a4)
.L1:
	.loc 1 111 1
	ret
.L4:
	.loc 1 103 5 is_stmt 1
	.loc 1 104 5
	.loc 1 104 56 is_stmt 0
	lla	a4,caml_all_opened_channels
	ld	a5,0(a4)
	ld	a5,48(a5)
	.loc 1 104 30
	sd	a5,0(a4)
	.loc 1 105 5 is_stmt 1
	.loc 1 105 8 is_stmt 0
	beq	a5,zero,.L1
	.loc 1 106 7 is_stmt 1
	.loc 1 106 38 is_stmt 0
	sd	zero,56(a5)
	ret
	.cfi_endproc
.LFE14:
	.size	unlink_channel, .-unlink_channel
	.align	1
	.type	compare_channel, @function
compare_channel:
.LFB34:
	.loc 1 432 1 is_stmt 1
	.cfi_startproc
.LVL1:
	.loc 1 433 3
	.loc 1 433 20 is_stmt 0
	ld	a4,8(a0)
.LVL2:
	.loc 1 434 3 is_stmt 1
	.loc 1 434 20 is_stmt 0
	ld	a5,8(a1)
.LVL3:
	.loc 1 435 3 is_stmt 1
	.loc 1 435 31 is_stmt 0
	beq	a4,a5,.L7
	.loc 1 435 54 discriminator 1
	bgeu	a4,a5,.L8
	.loc 1 435 54
	li	a0,-1
.LVL4:
	ret
.LVL5:
.L7:
	.loc 1 435 31
	li	a0,0
.LVL6:
	ret
.LVL7:
.L8:
	.loc 1 435 54
	li	a0,1
.LVL8:
	.loc 1 436 1
	ret
	.cfi_endproc
.LFE34:
	.size	compare_channel, .-compare_channel
	.align	1
	.type	hash_channel, @function
hash_channel:
.LFB35:
	.loc 1 439 1 is_stmt 1
	.cfi_startproc
.LVL9:
	.loc 1 440 3
	.loc 1 441 1 is_stmt 0
	ld	a0,8(a0)
.LVL10:
	ret
	.cfi_endproc
.LFE35:
	.size	hash_channel, .-hash_channel
	.section	.rodata.str1.8,"aMS",@progbits,1
	.align	3
.LC0:
	.string	"[ocaml] channel opened on file '%s' dies without being closed\n"
	.align	3
.LC1:
	.string	"[ocaml] (moreover, it has unflushed data)\n"
	.text
	.align	1
	.globl	caml_finalize_channel
	.type	caml_finalize_channel, @function
caml_finalize_channel:
.LFB33:
	.loc 1 395 1 is_stmt 1
	.cfi_startproc
.LVL11:
	addi	sp,sp,-16
	.cfi_def_cfa_offset 16
	sd	ra,8(sp)
	sd	s0,0(sp)
	.cfi_offset 1, -8
	.cfi_offset 8, -16
	.loc 1 396 3
	.loc 1 396 20 is_stmt 0
	ld	s0,8(a0)
.LVL12:
	.loc 1 397 3 is_stmt 1
	.loc 1 397 12 is_stmt 0
	lw	a5,76(s0)
	.loc 1 397 20
	andi	a5,a5,4
	.loc 1 397 6
	beq	a5,zero,.L10
	.loc 1 398 3 is_stmt 1
	.loc 1 398 13 is_stmt 0
	lw	a5,72(s0)
	.loc 1 398 7
	addiw	a5,a5,-1
	sext.w	a4,a5
	.loc 1 398 6
	sw	a5,72(s0)
	bgt	a4,zero,.L10
	.loc 1 399 3 is_stmt 1
	.loc 1 399 31 is_stmt 0
	ld	a5,caml_channel_mutex_free
	.loc 1 399 6
	beq	a5,zero,.L12
	.loc 1 399 40 is_stmt 1 discriminator 1
	.loc 1 399 41 is_stmt 0 discriminator 1
	mv	a0,s0
.LVL13:
	jalr	a5
.LVL14:
.L12:
	.loc 1 401 3 is_stmt 1
	.loc 1 401 11 is_stmt 0
	lw	a4,0(s0)
	.loc 1 401 6
	li	a5,-1
	beq	a4,a5,.L13
	.loc 1 401 29 discriminator 1
	li	a5,65536
	add	a5,s0,a5
	ld	a5,80(a5)
	.loc 1 401 22 discriminator 1
	beq	a5,zero,.L13
	.loc 1 401 39 discriminator 2
	call	caml_runtime_warnings_active
.LVL15:
	.loc 1 401 36 discriminator 2
	bne	a0,zero,.L16
.L13:
	.loc 1 407 3 is_stmt 1
	.loc 1 407 11 is_stmt 0
	ld	a5,32(s0)
	.loc 1 407 6
	beq	a5,zero,.L17
.L14:
	.loc 1 425 5 is_stmt 1
	mv	a0,s0
	call	unlink_channel
.LVL16:
	.loc 1 426 5
	.loc 1 426 24 is_stmt 0
	li	a5,65536
	add	a5,s0,a5
	.loc 1 426 5
	ld	a0,80(a5)
	call	caml_stat_free
.LVL17:
	.loc 1 427 5 is_stmt 1
	mv	a0,s0
	call	caml_stat_free
.LVL18:
.L10:
	.loc 1 429 1 is_stmt 0
	ld	ra,8(sp)
	.cfi_remember_state
	.cfi_restore 1
	ld	s0,0(sp)
	.cfi_restore 8
	addi	sp,sp,16
	.cfi_def_cfa_offset 0
	jr	ra
.LVL19:
.L16:
	.cfi_restore_state
	.loc 1 402 5 is_stmt 1
	li	a5,65536
	add	a5,s0,a5
	ld	a2,80(a5)
	lla	a1,.LC0
	ld	a0,stderr
	call	fprintf
.LVL20:
	j	.L13
.L17:
	.loc 1 407 32 is_stmt 0 discriminator 1
	ld	a4,24(s0)
	.loc 1 407 39 discriminator 1
	addi	a5,s0,80
	.loc 1 407 25 discriminator 1
	beq	a4,a5,.L14
	.loc 1 420 5 is_stmt 1
	.loc 1 420 13 is_stmt 0
	li	a5,65536
	add	s0,s0,a5
.LVL21:
	ld	a5,80(s0)
	.loc 1 420 8
	beq	a5,zero,.L10
	.loc 1 420 23 discriminator 1
	call	caml_runtime_warnings_active
.LVL22:
	.loc 1 420 20 discriminator 1
	beq	a0,zero,.L10
	.loc 1 421 7 is_stmt 1
	ld	a3,stderr
	li	a2,42
	li	a1,1
	lla	a0,.LC1
	call	fwrite
.LVL23:
	j	.L10
	.cfi_endproc
.LFE33:
	.size	caml_finalize_channel, .-caml_finalize_channel
	.align	1
	.globl	caml_open_descriptor_in
	.type	caml_open_descriptor_in, @function
caml_open_descriptor_in:
.LFB12:
	.loc 1 67 1
	.cfi_startproc
.LVL24:
	addi	sp,sp,-32
	.cfi_def_cfa_offset 32
	sd	ra,24(sp)
	sd	s0,16(sp)
	sd	s1,8(sp)
	sd	s2,0(sp)
	.cfi_offset 1, -8
	.cfi_offset 8, -16
	.cfi_offset 9, -24
	.cfi_offset 18, -32
	mv	s2,a0
	.loc 1 68 3
	.loc 1 70 3
	.loc 1 70 32 is_stmt 0
	li	s1,65536
	addi	a0,s1,88
.LVL25:
	call	caml_stat_alloc
.LVL26:
	mv	s0,a0
.LVL27:
	.loc 1 71 3 is_stmt 1
	.loc 1 71 15 is_stmt 0
	sw	s2,0(a0)
	.loc 1 72 3 is_stmt 1
	call	caml_enter_blocking_section
.LVL28:
	.loc 1 73 3
	.loc 1 73 21 is_stmt 0
	li	a2,1
	li	a1,0
	mv	a0,s2
	call	lseek
.LVL29:
	.loc 1 73 19
	sd	a0,8(s0)
	.loc 1 74 3 is_stmt 1
	call	caml_leave_blocking_section
.LVL30:
	.loc 1 75 3
	.loc 1 75 34 is_stmt 0
	addi	a5,s0,80
	.loc 1 75 32
	sd	a5,32(s0)
	.loc 1 75 17
	sd	a5,24(s0)
	.loc 1 76 3 is_stmt 1
	.loc 1 76 32 is_stmt 0
	addi	a5,s1,80
	add	a5,s0,a5
	.loc 1 76 16
	sd	a5,16(s0)
	.loc 1 77 3 is_stmt 1
	.loc 1 77 18 is_stmt 0
	sd	zero,40(s0)
	.loc 1 78 3 is_stmt 1
	.loc 1 78 21 is_stmt 0
	sw	zero,64(s0)
	.loc 1 79 3 is_stmt 1
	.loc 1 79 25 is_stmt 0
	sw	zero,68(s0)
	.loc 1 80 3 is_stmt 1
	.loc 1 80 21 is_stmt 0
	sw	zero,72(s0)
	.loc 1 81 3 is_stmt 1
	.loc 1 81 18 is_stmt 0
	sw	zero,76(s0)
	.loc 1 82 3 is_stmt 1
	.loc 1 82 17 is_stmt 0
	ld	a5,caml_all_opened_channels
	sd	a5,48(s0)
	.loc 1 83 3 is_stmt 1
	.loc 1 83 17 is_stmt 0
	sd	zero,56(s0)
	.loc 1 84 3 is_stmt 1
	.loc 1 84 17 is_stmt 0
	add	s1,s0,s1
	sd	zero,80(s1)
	.loc 1 85 3 is_stmt 1
	.loc 1 85 6 is_stmt 0
	beq	a5,zero,.L19
	.loc 1 86 5 is_stmt 1
	.loc 1 86 36 is_stmt 0
	sd	s0,56(a5)
.L19:
	.loc 1 87 3 is_stmt 1
	.loc 1 87 28 is_stmt 0
	sd	s0,caml_all_opened_channels,a5
	.loc 1 88 3 is_stmt 1
	.loc 1 89 1 is_stmt 0
	mv	a0,s0
	ld	ra,24(sp)
	.cfi_restore 1
	ld	s0,16(sp)
	.cfi_restore 8
.LVL31:
	ld	s1,8(sp)
	.cfi_restore 9
	ld	s2,0(sp)
	.cfi_restore 18
	addi	sp,sp,32
	.cfi_def_cfa_offset 0
	jr	ra
	.cfi_endproc
.LFE12:
	.size	caml_open_descriptor_in, .-caml_open_descriptor_in
	.align	1
	.globl	caml_open_descriptor_out
	.type	caml_open_descriptor_out, @function
caml_open_descriptor_out:
.LFB13:
	.loc 1 92 1 is_stmt 1
	.cfi_startproc
.LVL32:
	addi	sp,sp,-16
	.cfi_def_cfa_offset 16
	sd	ra,8(sp)
	.cfi_offset 1, -8
	.loc 1 93 3
	.loc 1 95 3
	.loc 1 95 13 is_stmt 0
	call	caml_open_descriptor_in
.LVL33:
	.loc 1 96 3 is_stmt 1
	.loc 1 96 16 is_stmt 0
	sd	zero,32(a0)
	.loc 1 97 3 is_stmt 1
	.loc 1 98 1 is_stmt 0
	ld	ra,8(sp)
	.cfi_restore 1
	addi	sp,sp,16
	.cfi_def_cfa_offset 0
	jr	ra
	.cfi_endproc
.LFE13:
	.size	caml_open_descriptor_out, .-caml_open_descriptor_out
	.align	1
	.globl	caml_close_channel
	.type	caml_close_channel, @function
caml_close_channel:
.LFB15:
	.loc 1 114 1 is_stmt 1
	.cfi_startproc
.LVL34:
	addi	sp,sp,-16
	.cfi_def_cfa_offset 16
	sd	ra,8(sp)
	sd	s0,0(sp)
	.cfi_offset 1, -8
	.cfi_offset 8, -16
	mv	s0,a0
	.loc 1 115 3
	lw	a0,0(a0)
.LVL35:
	call	close
.LVL36:
	.loc 1 116 3
	.loc 1 116 14 is_stmt 0
	lw	a5,72(s0)
	.loc 1 116 6
	bgt	a5,zero,.L23
	.loc 1 117 3 is_stmt 1
	.loc 1 117 31 is_stmt 0
	ld	a5,caml_channel_mutex_free
	.loc 1 117 6
	beq	a5,zero,.L25
	.loc 1 117 40 is_stmt 1 discriminator 1
	.loc 1 117 41 is_stmt 0 discriminator 1
	mv	a0,s0
	jalr	a5
.LVL37:
.L25:
	.loc 1 118 3 is_stmt 1
	mv	a0,s0
	call	unlink_channel
.LVL38:
	.loc 1 119 3
	.loc 1 119 25 is_stmt 0
	li	a5,65536
	add	a5,s0,a5
	.loc 1 119 3
	ld	a0,80(a5)
	call	caml_stat_free
.LVL39:
	.loc 1 120 3 is_stmt 1
	mv	a0,s0
	call	caml_stat_free
.LVL40:
.L23:
	.loc 1 121 1 is_stmt 0
	ld	ra,8(sp)
	.cfi_restore 1
	ld	s0,0(sp)
	.cfi_restore 8
.LVL41:
	addi	sp,sp,16
	.cfi_def_cfa_offset 0
	jr	ra
	.cfi_endproc
.LFE15:
	.size	caml_close_channel, .-caml_close_channel
	.align	1
	.globl	caml_channel_size
	.type	caml_channel_size, @function
caml_channel_size:
.LFB16:
	.loc 1 124 1 is_stmt 1
	.cfi_startproc
.LVL42:
	addi	sp,sp,-32
	.cfi_def_cfa_offset 32
	sd	ra,24(sp)
	sd	s0,16(sp)
	sd	s1,8(sp)
	sd	s2,0(sp)
	.cfi_offset 1, -8
	.cfi_offset 8, -16
	.cfi_offset 9, -24
	.cfi_offset 18, -32
	.loc 1 125 3
	.loc 1 126 3
	.loc 1 127 3
	.loc 1 131 3
	.loc 1 131 6 is_stmt 0
	lw	s1,0(a0)
.LVL43:
	.loc 1 132 3 is_stmt 1
	.loc 1 132 10 is_stmt 0
	ld	s2,8(a0)
.LVL44:
	.loc 1 133 3 is_stmt 1
	call	caml_enter_blocking_section
.LVL45:
	.loc 1 134 3
	.loc 1 134 9 is_stmt 0
	li	a2,2
	li	a1,0
	mv	a0,s1
	call	lseek
.LVL46:
	mv	s0,a0
.LVL47:
	.loc 1 135 3 is_stmt 1
	.loc 1 135 6 is_stmt 0
	li	a5,-1
	beq	a0,a5,.L28
	.loc 1 135 20 discriminator 1
	li	a2,0
	sext.w	a1,s2
	mv	a0,s1
	call	lseek
.LVL48:
	.loc 1 135 17 discriminator 1
	beq	a0,s2,.L29
.L28:
	.loc 1 136 5 is_stmt 1
	call	caml_leave_blocking_section
.LVL49:
	.loc 1 137 5
	li	a0,1
	call	caml_sys_error
.LVL50:
.L29:
	.loc 1 139 3
	call	caml_leave_blocking_section
.LVL51:
	.loc 1 140 3
	.loc 1 141 1 is_stmt 0
	mv	a0,s0
	ld	ra,24(sp)
	.cfi_restore 1
	ld	s0,16(sp)
	.cfi_restore 8
.LVL52:
	ld	s1,8(sp)
	.cfi_restore 9
.LVL53:
	ld	s2,0(sp)
	.cfi_restore 18
.LVL54:
	addi	sp,sp,32
	.cfi_def_cfa_offset 0
	jr	ra
	.cfi_endproc
.LFE16:
	.size	caml_channel_size, .-caml_channel_size
	.align	1
	.globl	caml_channel_binary_mode
	.type	caml_channel_binary_mode, @function
caml_channel_binary_mode:
.LFB17:
	.loc 1 144 1 is_stmt 1
	.cfi_startproc
.LVL55:
	.loc 1 150 3
	.loc 1 152 1 is_stmt 0
	li	a0,1
.LVL56:
	ret
	.cfi_endproc
.LFE17:
	.size	caml_channel_binary_mode, .-caml_channel_binary_mode
	.align	1
	.globl	caml_flush_partial
	.type	caml_flush_partial, @function
caml_flush_partial:
.LFB18:
	.loc 1 162 1 is_stmt 1
	.cfi_startproc
.LVL57:
	addi	sp,sp,-48
	.cfi_def_cfa_offset 48
	sd	ra,40(sp)
	sd	s0,32(sp)
	sd	s1,24(sp)
	sd	s2,16(sp)
	sd	s3,8(sp)
	.cfi_offset 1, -8
	.cfi_offset 8, -16
	.cfi_offset 9, -24
	.cfi_offset 18, -32
	.cfi_offset 19, -40
	mv	s0,a0
	.loc 1 163 3
	.loc 1 165 3
	.loc 1 165 20 is_stmt 0
	ld	s2,24(a0)
	.loc 1 165 27
	addi	s1,a0,80
	.loc 1 165 11
	subw	s2,s2,s1
.LVL58:
	.loc 1 166 3 is_stmt 1
	.loc 1 167 3
	.loc 1 167 6 is_stmt 0
	bgt	s2,zero,.L36
.LVL59:
.L33:
	.loc 1 175 3 is_stmt 1
	.loc 1 175 18 is_stmt 0
	ld	a0,24(s0)
	.loc 1 175 25
	sub	a0,s1,a0
	.loc 1 176 1
	seqz	a0,a0
	ld	ra,40(sp)
	.cfi_remember_state
	.cfi_restore 1
	ld	s0,32(sp)
	.cfi_restore 8
.LVL60:
	ld	s1,24(sp)
	.cfi_restore 9
.LVL61:
	ld	s2,16(sp)
	.cfi_restore 18
.LVL62:
	ld	s3,8(sp)
	.cfi_restore 19
	addi	sp,sp,48
	.cfi_def_cfa_offset 0
	jr	ra
.LVL63:
.L36:
	.cfi_restore_state
	.loc 1 168 5 is_stmt 1
	.loc 1 168 15 is_stmt 0
	mv	a3,s2
	mv	a2,s1
	lw	a1,76(a0)
	lw	a0,0(a0)
	call	caml_write_fd
.LVL64:
	mv	s3,a0
.LVL65:
	.loc 1 170 5 is_stmt 1
	.loc 1 170 21 is_stmt 0
	ld	a5,8(s0)
	add	a5,a5,a0
	sd	a5,8(s0)
	.loc 1 171 5 is_stmt 1
	.loc 1 171 8 is_stmt 0
	bgt	s2,a0,.L37
.LVL66:
.L34:
	.loc 1 173 5 is_stmt 1
	.loc 1 173 19 is_stmt 0
	ld	a0,24(s0)
	sub	s3,a0,s3
	sd	s3,24(s0)
	j	.L33
.LVL67:
.L37:
	.loc 1 172 7 is_stmt 1
	subw	a2,s2,a0
	add	a1,s1,a0
	mv	a0,s1
.LVL68:
	call	memmove
.LVL69:
	j	.L34
	.cfi_endproc
.LFE18:
	.size	caml_flush_partial, .-caml_flush_partial
	.align	1
	.globl	caml_flush
	.type	caml_flush, @function
caml_flush:
.LFB19:
	.loc 1 181 1
	.cfi_startproc
.LVL70:
	addi	sp,sp,-16
	.cfi_def_cfa_offset 16
	sd	ra,8(sp)
	sd	s0,0(sp)
	.cfi_offset 1, -8
	.cfi_offset 8, -16
	mv	s0,a0
	.loc 1 182 3
.LVL71:
.L39:
	.loc 1 182 52 discriminator 1
	.loc 1 182 9 discriminator 1
	.loc 1 182 12 is_stmt 0 discriminator 1
	mv	a0,s0
	call	caml_flush_partial
.LVL72:
	.loc 1 182 9 discriminator 1
	beq	a0,zero,.L39
	.loc 1 183 1
	ld	ra,8(sp)
	.cfi_restore 1
	ld	s0,0(sp)
	.cfi_restore 8
.LVL73:
	addi	sp,sp,16
	.cfi_def_cfa_offset 0
	jr	ra
	.cfi_endproc
.LFE19:
	.size	caml_flush, .-caml_flush
	.section	.rodata.str1.8
	.align	3
.LC2:
	.string	"output_binary_int: not a binary channel"
	.text
	.align	1
	.globl	caml_putword
	.type	caml_putword, @function
caml_putword:
.LFB20:
	.loc 1 188 1 is_stmt 1
	.cfi_startproc
.LVL74:
	addi	sp,sp,-32
	.cfi_def_cfa_offset 32
	sd	ra,24(sp)
	sd	s0,16(sp)
	sd	s1,8(sp)
	.cfi_offset 1, -8
	.cfi_offset 8, -16
	.cfi_offset 9, -24
	mv	s0,a0
	mv	s1,a1
	.loc 1 189 3
	.loc 1 189 9 is_stmt 0
	call	caml_channel_binary_mode
.LVL75:
	.loc 1 189 6
	beq	a0,zero,.L48
	.loc 1 191 3 is_stmt 1
	.loc 1 191 3
	ld	a4,24(s0)
	ld	a5,16(s0)
	bgeu	a4,a5,.L49
.L43:
	.loc 1 191 3 discriminator 3
	srliw	a5,s1,24
	ld	a4,24(s0)
	addi	a3,a4,1
	sd	a3,24(s0)
	sb	a5,0(a4)
	.loc 1 191 3 discriminator 3
	.loc 1 192 3 discriminator 3
	.loc 1 192 3 discriminator 3
	ld	a4,24(s0)
	ld	a5,16(s0)
	bgeu	a4,a5,.L50
.L44:
	.loc 1 192 3 discriminator 3
	srliw	a5,s1,16
	ld	a4,24(s0)
	addi	a3,a4,1
	sd	a3,24(s0)
	sb	a5,0(a4)
	.loc 1 192 3 discriminator 3
	.loc 1 193 3 discriminator 3
	.loc 1 193 3 discriminator 3
	ld	a4,24(s0)
	ld	a5,16(s0)
	bgeu	a4,a5,.L51
.L45:
	.loc 1 193 3 discriminator 3
	srliw	a5,s1,8
	ld	a4,24(s0)
	addi	a3,a4,1
	sd	a3,24(s0)
	sb	a5,0(a4)
	.loc 1 193 3 discriminator 3
	.loc 1 194 3 discriminator 3
	.loc 1 194 3 discriminator 3
	ld	a4,24(s0)
	ld	a5,16(s0)
	bgeu	a4,a5,.L52
.L46:
	.loc 1 194 3 discriminator 3
	ld	a5,24(s0)
	addi	a4,a5,1
	sd	a4,24(s0)
	sb	s1,0(a5)
	.loc 1 194 3 discriminator 3
	.loc 1 195 1 is_stmt 0 discriminator 3
	ld	ra,24(sp)
	.cfi_remember_state
	.cfi_restore 1
	ld	s0,16(sp)
	.cfi_restore 8
.LVL76:
	ld	s1,8(sp)
	.cfi_restore 9
	addi	sp,sp,32
	.cfi_def_cfa_offset 0
	jr	ra
.LVL77:
.L48:
	.cfi_restore_state
	.loc 1 190 5 is_stmt 1
	lla	a0,.LC2
	call	caml_failwith
.LVL78:
.L49:
	.loc 1 191 3 discriminator 1
	mv	a0,s0
	call	caml_flush_partial
.LVL79:
	j	.L43
.L50:
	.loc 1 192 3 discriminator 1
	mv	a0,s0
	call	caml_flush_partial
.LVL80:
	j	.L44
.L51:
	.loc 1 193 3 discriminator 1
	mv	a0,s0
	call	caml_flush_partial
.LVL81:
	j	.L45
.L52:
	.loc 1 194 3 discriminator 1
	mv	a0,s0
	call	caml_flush_partial
.LVL82:
	j	.L46
	.cfi_endproc
.LFE20:
	.size	caml_putword, .-caml_putword
	.align	1
	.globl	caml_putblock
	.type	caml_putblock, @function
caml_putblock:
.LFB21:
	.loc 1 198 1
	.cfi_startproc
.LVL83:
	addi	sp,sp,-48
	.cfi_def_cfa_offset 48
	sd	ra,40(sp)
	sd	s0,32(sp)
	sd	s1,24(sp)
	sd	s2,16(sp)
	sd	s3,8(sp)
	sd	s4,0(sp)
	.cfi_offset 1, -8
	.cfi_offset 8, -16
	.cfi_offset 9, -24
	.cfi_offset 18, -32
	.cfi_offset 19, -40
	.cfi_offset 20, -48
	mv	s1,a0
	.loc 1 199 3
	.loc 1 201 3
	.loc 1 201 32 is_stmt 0
	li	a5,-2147483648
	xori	a5,a5,-2
	bgt	a2,a5,.L58
	.loc 1 201 32 discriminator 1
	sext.w	s0,a2
.L54:
.LVL84:
	.loc 1 202 3 is_stmt 1 discriminator 4
	.loc 1 202 17 is_stmt 0 discriminator 4
	ld	s2,16(s1)
	.loc 1 202 32 discriminator 4
	ld	a0,24(s1)
.LVL85:
	.loc 1 202 8 discriminator 4
	subw	s2,s2,a0
.LVL86:
	.loc 1 203 3 is_stmt 1 discriminator 4
	.loc 1 203 6 is_stmt 0 discriminator 4
	bge	s0,s2,.L55
	.loc 1 205 5 is_stmt 1
	mv	a2,s0
.LVL87:
	call	memmove
.LVL88:
	.loc 1 206 5
	.loc 1 206 19 is_stmt 0
	ld	a5,24(s1)
	add	a5,a5,s0
	sd	a5,24(s1)
	.loc 1 207 5 is_stmt 1
.LVL89:
.L56:
	.loc 1 221 1 is_stmt 0
	mv	a0,s0
	ld	ra,40(sp)
	.cfi_remember_state
	.cfi_restore 1
	ld	s0,32(sp)
	.cfi_restore 8
	ld	s1,24(sp)
	.cfi_restore 9
.LVL90:
	ld	s2,16(sp)
	.cfi_restore 18
.LVL91:
	ld	s3,8(sp)
	.cfi_restore 19
	ld	s4,0(sp)
	.cfi_restore 20
	addi	sp,sp,48
	.cfi_def_cfa_offset 0
	jr	ra
.LVL92:
.L58:
	.cfi_restore_state
	.loc 1 201 32
	li	s0,-2147483648
	xori	s0,s0,-1
	j	.L54
.LVL93:
.L55:
	.loc 1 211 5 is_stmt 1
	mv	a2,s2
.LVL94:
	call	memmove
.LVL95:
	.loc 1 212 5
	.loc 1 212 22 is_stmt 0
	ld	s3,16(s1)
	.loc 1 212 28
	addi	s4,s1,80
	.loc 1 212 13
	subw	s3,s3,s4
.LVL96:
	.loc 1 213 5 is_stmt 1
	.loc 1 213 15 is_stmt 0
	mv	a3,s3
	mv	a2,s4
	lw	a1,76(s1)
	lw	a0,0(s1)
	call	caml_write_fd
.LVL97:
	mv	s0,a0
.LVL98:
	.loc 1 215 5 is_stmt 1
	.loc 1 215 8 is_stmt 0
	bgt	s3,a0,.L60
.LVL99:
.L57:
	.loc 1 217 5 is_stmt 1
	.loc 1 217 21 is_stmt 0
	ld	a5,8(s1)
	add	a5,a5,s0
	sd	a5,8(s1)
	.loc 1 218 5 is_stmt 1
	.loc 1 218 28 is_stmt 0
	ld	a0,16(s1)
	.loc 1 218 34
	sub	s0,a0,s0
	.loc 1 218 19
	sd	s0,24(s1)
	.loc 1 219 5 is_stmt 1
	.loc 1 219 12 is_stmt 0
	mv	s0,s2
	j	.L56
.LVL100:
.L60:
	.loc 1 216 7 is_stmt 1
	subw	a2,s3,a0
	add	a1,s4,a0
	mv	a0,s4
.LVL101:
	call	memmove
.LVL102:
	j	.L57
	.cfi_endproc
.LFE21:
	.size	caml_putblock, .-caml_putblock
	.align	1
	.globl	caml_really_putblock
	.type	caml_really_putblock, @function
caml_really_putblock:
.LFB22:
	.loc 1 225 1
	.cfi_startproc
.LVL103:
	addi	sp,sp,-32
	.cfi_def_cfa_offset 32
	sd	ra,24(sp)
	sd	s0,16(sp)
	sd	s1,8(sp)
	sd	s2,0(sp)
	.cfi_offset 1, -8
	.cfi_offset 8, -16
	.cfi_offset 9, -24
	.cfi_offset 18, -32
	mv	s2,a0
	mv	s1,a1
	mv	s0,a2
	.loc 1 226 3
	.loc 1 227 3
.LVL104:
.L62:
	.loc 1 227 9
	ble	s0,zero,.L65
	.loc 1 228 5
	.loc 1 228 15 is_stmt 0
	mv	a2,s0
	mv	a1,s1
	mv	a0,s2
	call	caml_putblock
.LVL105:
	.loc 1 229 5 is_stmt 1
	.loc 1 229 7 is_stmt 0
	add	s1,s1,a0
.LVL106:
	.loc 1 230 5 is_stmt 1
	.loc 1 230 9 is_stmt 0
	sub	s0,s0,a0
.LVL107:
	j	.L62
.LVL108:
.L65:
	.loc 1 232 1
	ld	ra,24(sp)
	.cfi_restore 1
	ld	s0,16(sp)
	.cfi_restore 8
.LVL109:
	ld	s1,8(sp)
	.cfi_restore 9
.LVL110:
	ld	s2,0(sp)
	.cfi_restore 18
.LVL111:
	addi	sp,sp,32
	.cfi_def_cfa_offset 0
	jr	ra
	.cfi_endproc
.LFE22:
	.size	caml_really_putblock, .-caml_really_putblock
	.align	1
	.globl	caml_seek_out
	.type	caml_seek_out, @function
caml_seek_out:
.LFB23:
	.loc 1 235 1 is_stmt 1
	.cfi_startproc
.LVL112:
	addi	sp,sp,-32
	.cfi_def_cfa_offset 32
	sd	ra,24(sp)
	sd	s0,16(sp)
	sd	s1,8(sp)
	.cfi_offset 1, -8
	.cfi_offset 8, -16
	.cfi_offset 9, -24
	mv	s1,a0
	mv	s0,a1
	.loc 1 236 3
	call	caml_flush
.LVL113:
	.loc 1 237 3
	call	caml_enter_blocking_section
.LVL114:
	.loc 1 238 3
	.loc 1 238 7 is_stmt 0
	li	a2,0
	sext.w	a1,s0
	lw	a0,0(s1)
	call	lseek
.LVL115:
	.loc 1 238 6
	bne	a0,s0,.L69
.L67:
	.loc 1 242 3 is_stmt 1
	call	caml_leave_blocking_section
.LVL116:
	.loc 1 243 3
	.loc 1 243 19 is_stmt 0
	sd	s0,8(s1)
	.loc 1 244 1
	ld	ra,24(sp)
	.cfi_remember_state
	.cfi_restore 1
	ld	s0,16(sp)
	.cfi_restore 8
.LVL117:
	ld	s1,8(sp)
	.cfi_restore 9
.LVL118:
	addi	sp,sp,32
	.cfi_def_cfa_offset 0
	jr	ra
.LVL119:
.L69:
	.cfi_restore_state
	.loc 1 239 5 is_stmt 1
	call	caml_leave_blocking_section
.LVL120:
	.loc 1 240 5
	li	a0,1
	call	caml_sys_error
.LVL121:
	j	.L67
	.cfi_endproc
.LFE23:
	.size	caml_seek_out, .-caml_seek_out
	.align	1
	.globl	caml_pos_out
	.type	caml_pos_out, @function
caml_pos_out:
.LFB24:
	.loc 1 247 1
	.cfi_startproc
.LVL122:
	.loc 1 248 3
	.loc 1 248 17 is_stmt 0
	ld	a4,8(a0)
	.loc 1 248 49
	ld	a5,24(a0)
	.loc 1 248 56
	addi	a0,a0,80
.LVL123:
	.loc 1 248 28
	sub	a0,a5,a0
.LVL124:
	.loc 1 249 1
	add	a0,a4,a0
	ret
	.cfi_endproc
.LFE24:
	.size	caml_pos_out, .-caml_pos_out
	.align	1
	.globl	caml_do_read
	.type	caml_do_read, @function
caml_do_read:
.LFB25:
	.loc 1 255 1 is_stmt 1
	.cfi_startproc
.LVL125:
	addi	sp,sp,-16
	.cfi_def_cfa_offset 16
	sd	ra,8(sp)
	.cfi_offset 1, -8
	mv	a3,a2
	.loc 1 256 3
	.loc 1 256 10 is_stmt 0
	mv	a2,a1
.LVL126:
	li	a1,0
.LVL127:
	call	caml_read_fd
.LVL128:
	.loc 1 257 1
	ld	ra,8(sp)
	.cfi_restore 1
	addi	sp,sp,16
	.cfi_def_cfa_offset 0
	jr	ra
	.cfi_endproc
.LFE25:
	.size	caml_do_read, .-caml_do_read
	.align	1
	.globl	caml_refill
	.type	caml_refill, @function
caml_refill:
.LFB26:
	.loc 1 260 1 is_stmt 1
	.cfi_startproc
.LVL129:
	addi	sp,sp,-32
	.cfi_def_cfa_offset 32
	sd	ra,24(sp)
	sd	s0,16(sp)
	sd	s1,8(sp)
	.cfi_offset 1, -8
	.cfi_offset 8, -16
	.cfi_offset 9, -24
	mv	s0,a0
	.loc 1 261 3
	.loc 1 263 3
	.loc 1 264 27 is_stmt 0
	addi	s1,a0,80
	.loc 1 264 42
	ld	a3,16(a0)
	.loc 1 263 7
	subw	a3,a3,s1
	mv	a2,s1
	lw	a1,76(a0)
	lw	a0,0(a0)
.LVL130:
	call	caml_read_fd
.LVL131:
	.loc 1 265 3 is_stmt 1
	.loc 1 265 6 is_stmt 0
	beq	a0,zero,.L76
	.loc 1 266 3 is_stmt 1
	.loc 1 266 19 is_stmt 0
	ld	a5,8(s0)
	add	a5,a5,a0
	sd	a5,8(s0)
	.loc 1 267 3 is_stmt 1
	.loc 1 267 32 is_stmt 0
	add	a0,s1,a0
.LVL132:
	.loc 1 267 16
	sd	a0,32(s0)
	.loc 1 268 3 is_stmt 1
	.loc 1 268 33 is_stmt 0
	addi	a5,s0,81
	.loc 1 268 17
	sd	a5,24(s0)
	.loc 1 269 3 is_stmt 1
	.loc 1 270 1 is_stmt 0
	lbu	a0,80(s0)
	ld	ra,24(sp)
	.cfi_remember_state
	.cfi_restore 1
	ld	s0,16(sp)
	.cfi_restore 8
.LVL133:
	ld	s1,8(sp)
	.cfi_restore 9
	addi	sp,sp,32
	.cfi_def_cfa_offset 0
	jr	ra
.LVL134:
.L76:
	.cfi_restore_state
	.loc 1 265 15 is_stmt 1 discriminator 1
	call	caml_raise_end_of_file
.LVL135:
	.cfi_endproc
.LFE26:
	.size	caml_refill, .-caml_refill
	.section	.rodata.str1.8
	.align	3
.LC3:
	.string	"input_binary_int: not a binary channel"
	.text
	.align	1
	.globl	caml_getword
	.type	caml_getword, @function
caml_getword:
.LFB27:
	.loc 1 273 1
	.cfi_startproc
.LVL136:
	addi	sp,sp,-32
	.cfi_def_cfa_offset 32
	sd	ra,24(sp)
	sd	s0,16(sp)
	sd	s1,8(sp)
	sd	s2,0(sp)
	.cfi_offset 1, -8
	.cfi_offset 8, -16
	.cfi_offset 9, -24
	.cfi_offset 18, -32
	mv	s1,a0
	.loc 1 274 3
	.loc 1 275 3
	.loc 1 277 3
	.loc 1 277 9 is_stmt 0
	call	caml_channel_binary_mode
.LVL137:
	.loc 1 277 6
	beq	a0,zero,.L84
	.loc 1 279 7
	li	a0,0
	.loc 1 280 9
	li	s2,0
	j	.L78
.L84:
	.loc 1 278 5 is_stmt 1
	lla	a0,.LC3
	call	caml_failwith
.LVL138:
.L86:
	.loc 1 281 24 is_stmt 0 discriminator 1
	mv	a0,s1
.LVL139:
	call	caml_refill
.LVL140:
	sext.w	a0,a0
.L80:
	.loc 1 281 9 discriminator 4
	addw	a0,s0,a0
	.loc 1 280 21 is_stmt 1 discriminator 4
	.loc 1 280 22 is_stmt 0 discriminator 4
	addiw	s2,s2,1
.LVL141:
.L78:
	.loc 1 280 14 is_stmt 1 discriminator 2
	.loc 1 280 3 is_stmt 0 discriminator 2
	li	a5,3
	bgt	s2,a5,.L85
	.loc 1 281 5 is_stmt 1
	.loc 1 281 16 is_stmt 0
	slliw	s0,a0,8
	.loc 1 281 24
	ld	a5,24(s1)
	ld	a4,32(s1)
	bgeu	a5,a4,.L86
	.loc 1 281 24 discriminator 2
	addi	a4,a5,1
	sd	a4,24(s1)
	lbu	a0,0(a5)
.LVL142:
	j	.L80
.LVL143:
.L85:
	.loc 1 284 1
	ld	ra,24(sp)
	.cfi_restore 1
	ld	s0,16(sp)
	.cfi_restore 8
	ld	s1,8(sp)
	.cfi_restore 9
.LVL144:
	ld	s2,0(sp)
	.cfi_restore 18
.LVL145:
	addi	sp,sp,32
	.cfi_def_cfa_offset 0
	jr	ra
	.cfi_endproc
.LFE27:
	.size	caml_getword, .-caml_getword
	.align	1
	.globl	caml_getblock
	.type	caml_getblock, @function
caml_getblock:
.LFB28:
	.loc 1 287 1 is_stmt 1
	.cfi_startproc
.LVL146:
	addi	sp,sp,-48
	.cfi_def_cfa_offset 48
	sd	ra,40(sp)
	sd	s0,32(sp)
	sd	s1,24(sp)
	sd	s2,16(sp)
	sd	s3,8(sp)
	sd	s4,0(sp)
	.cfi_offset 1, -8
	.cfi_offset 8, -16
	.cfi_offset 9, -24
	.cfi_offset 18, -32
	.cfi_offset 19, -40
	.cfi_offset 20, -48
	mv	s1,a0
	mv	s4,a1
	.loc 1 288 3
	.loc 1 290 3
	.loc 1 290 32 is_stmt 0
	li	a5,-2147483648
	xori	a5,a5,-2
	bgt	a2,a5,.L93
	.loc 1 290 32 discriminator 1
	sext.w	s2,a2
.L88:
.LVL147:
	.loc 1 291 3 is_stmt 1 discriminator 4
	.loc 1 291 18 is_stmt 0 discriminator 4
	ld	s0,32(s1)
	.loc 1 291 33 discriminator 4
	ld	a1,24(s1)
.LVL148:
	.loc 1 291 9 discriminator 4
	subw	s0,s0,a1
.LVL149:
	.loc 1 292 3 is_stmt 1 discriminator 4
	.loc 1 292 6 is_stmt 0 discriminator 4
	ble	s2,s0,.L95
	.loc 1 296 10 is_stmt 1
	.loc 1 296 13 is_stmt 0
	ble	s0,zero,.L91
	.loc 1 297 5 is_stmt 1
	mv	a2,s0
.LVL150:
	mv	a0,s4
.LVL151:
	call	memmove
.LVL152:
	.loc 1 298 5
	.loc 1 298 19 is_stmt 0
	ld	a5,24(s1)
	add	a5,a5,s0
	sd	a5,24(s1)
	.loc 1 299 5 is_stmt 1
.LVL153:
.L90:
	.loc 1 310 1 is_stmt 0
	mv	a0,s0
	ld	ra,40(sp)
	.cfi_remember_state
	.cfi_restore 1
	ld	s0,32(sp)
	.cfi_restore 8
	ld	s1,24(sp)
	.cfi_restore 9
.LVL154:
	ld	s2,16(sp)
	.cfi_restore 18
	ld	s3,8(sp)
	.cfi_restore 19
	ld	s4,0(sp)
	.cfi_restore 20
.LVL155:
	addi	sp,sp,48
	.cfi_def_cfa_offset 0
	jr	ra
.LVL156:
.L93:
	.cfi_restore_state
	.loc 1 290 32
	li	s2,-2147483648
	xori	s2,s2,-1
	j	.L88
.LVL157:
.L95:
	.loc 1 293 5 is_stmt 1
	mv	a2,s2
.LVL158:
	mv	a0,s4
	call	memmove
.LVL159:
	.loc 1 294 5
	.loc 1 294 19 is_stmt 0
	ld	a5,24(s1)
	add	a5,a5,s2
	sd	a5,24(s1)
	.loc 1 295 5 is_stmt 1
	.loc 1 295 12 is_stmt 0
	mv	s0,s2
.LVL160:
	j	.L90
.LVL161:
.L91:
	.loc 1 301 5 is_stmt 1
	.loc 1 301 62 is_stmt 0
	addi	s3,s1,80
	.loc 1 302 33
	ld	a3,16(s1)
	.loc 1 301 13
	subw	a3,a3,s3
	mv	a2,s3
.LVL162:
	lw	a1,76(s1)
	lw	a0,0(s1)
	call	caml_read_fd
.LVL163:
	mv	s0,a0
.LVL164:
	.loc 1 303 5 is_stmt 1
	.loc 1 303 21 is_stmt 0
	ld	a5,8(s1)
	add	a5,a5,a0
	sd	a5,8(s1)
	.loc 1 304 5 is_stmt 1
	.loc 1 304 34 is_stmt 0
	add	a5,s3,a0
	.loc 1 304 18
	sd	a5,32(s1)
	.loc 1 305 5 is_stmt 1
	.loc 1 305 8 is_stmt 0
	bgt	s2,a0,.L92
	.loc 1 290 5
	mv	s0,s2
.L92:
.LVL165:
	.loc 1 306 5 is_stmt 1
	mv	a2,s0
	mv	a1,s3
	mv	a0,s4
.LVL166:
	call	memmove
.LVL167:
	.loc 1 307 5
	.loc 1 307 35 is_stmt 0
	add	s3,s3,s0
	.loc 1 307 19
	sd	s3,24(s1)
	.loc 1 308 5 is_stmt 1
	.loc 1 308 12 is_stmt 0
	j	.L90
	.cfi_endproc
.LFE28:
	.size	caml_getblock, .-caml_getblock
	.align	1
	.globl	caml_really_getblock
	.type	caml_really_getblock, @function
caml_really_getblock:
.LFB29:
	.loc 1 314 1 is_stmt 1
	.cfi_startproc
.LVL168:
	addi	sp,sp,-48
	.cfi_def_cfa_offset 48
	sd	ra,40(sp)
	sd	s0,32(sp)
	sd	s1,24(sp)
	sd	s2,16(sp)
	sd	s3,8(sp)
	.cfi_offset 1, -8
	.cfi_offset 8, -16
	.cfi_offset 9, -24
	.cfi_offset 18, -32
	.cfi_offset 19, -40
	mv	s2,a0
	mv	s1,a1
	mv	s3,a2
	.loc 1 315 3
.LVL169:
	.loc 1 316 3
	.loc 1 317 3
	.loc 1 315 10 is_stmt 0
	mv	s0,a2
.LVL170:
.L97:
	.loc 1 317 9 is_stmt 1
	ble	s0,zero,.L98
	.loc 1 318 5
	.loc 1 318 9 is_stmt 0
	mv	a2,s0
	mv	a1,s1
	mv	a0,s2
	call	caml_getblock
.LVL171:
	.loc 1 319 5 is_stmt 1
	.loc 1 319 8 is_stmt 0
	beq	a0,zero,.L98
	.loc 1 320 5 is_stmt 1
	.loc 1 320 7 is_stmt 0
	add	s1,s1,a0
.LVL172:
	.loc 1 321 5 is_stmt 1
	.loc 1 321 7 is_stmt 0
	sub	s0,s0,a0
.LVL173:
	j	.L97
.LVL174:
.L98:
	.loc 1 323 3 is_stmt 1
	.loc 1 324 1 is_stmt 0
	sub	a0,s3,s0
	ld	ra,40(sp)
	.cfi_restore 1
	ld	s0,32(sp)
	.cfi_restore 8
.LVL175:
	ld	s1,24(sp)
	.cfi_restore 9
.LVL176:
	ld	s2,16(sp)
	.cfi_restore 18
.LVL177:
	ld	s3,8(sp)
	.cfi_restore 19
.LVL178:
	addi	sp,sp,48
	.cfi_def_cfa_offset 0
	jr	ra
	.cfi_endproc
.LFE29:
	.size	caml_really_getblock, .-caml_really_getblock
	.align	1
	.globl	caml_seek_in
	.type	caml_seek_in, @function
caml_seek_in:
.LFB30:
	.loc 1 327 1 is_stmt 1
	.cfi_startproc
.LVL179:
	addi	sp,sp,-32
	.cfi_def_cfa_offset 32
	sd	ra,24(sp)
	sd	s0,16(sp)
	sd	s1,8(sp)
	sd	s2,0(sp)
	.cfi_offset 1, -8
	.cfi_offset 8, -16
	.cfi_offset 9, -24
	.cfi_offset 18, -32
	mv	s0,a0
	mv	s1,a1
	.loc 1 328 3
	.loc 1 328 22 is_stmt 0
	ld	a1,8(a0)
.LVL180:
	.loc 1 328 41
	ld	a4,32(a0)
	.loc 1 328 47
	addi	s2,a0,80
	sub	a5,a4,s2
	.loc 1 328 31
	sub	a5,a1,a5
	.loc 1 328 6
	bgt	a5,s1,.L102
	.loc 1 328 64 discriminator 1
	blt	a1,s1,.L102
	.loc 1 330 5 is_stmt 1
	.loc 1 330 53 is_stmt 0
	sub	a1,a1,s1
	.loc 1 330 34
	sub	a1,a4,a1
	.loc 1 330 19
	sd	a1,24(a0)
	j	.L101
.L102:
	.loc 1 332 5 is_stmt 1
	call	caml_enter_blocking_section
.LVL181:
	.loc 1 333 5
	.loc 1 333 9 is_stmt 0
	li	a2,0
	sext.w	a1,s1
	lw	a0,0(s0)
	call	lseek
.LVL182:
	.loc 1 333 8
	bne	a0,s1,.L106
.L104:
	.loc 1 337 5 is_stmt 1
	call	caml_leave_blocking_section
.LVL183:
	.loc 1 338 5
	.loc 1 338 21 is_stmt 0
	sd	s1,8(s0)
	.loc 1 339 5 is_stmt 1
	.loc 1 339 34 is_stmt 0
	sd	s2,32(s0)
	.loc 1 339 19
	sd	s2,24(s0)
.L101:
	.loc 1 341 1
	ld	ra,24(sp)
	.cfi_remember_state
	.cfi_restore 1
	ld	s0,16(sp)
	.cfi_restore 8
.LVL184:
	ld	s1,8(sp)
	.cfi_restore 9
.LVL185:
	ld	s2,0(sp)
	.cfi_restore 18
.LVL186:
	addi	sp,sp,32
	.cfi_def_cfa_offset 0
	jr	ra
.LVL187:
.L106:
	.cfi_restore_state
	.loc 1 334 7 is_stmt 1
	call	caml_leave_blocking_section
.LVL188:
	.loc 1 335 7
	li	a0,1
	call	caml_sys_error
.LVL189:
	j	.L104
	.cfi_endproc
.LFE30:
	.size	caml_seek_in, .-caml_seek_in
	.align	1
	.globl	caml_pos_in
	.type	caml_pos_in, @function
caml_pos_in:
.LFB31:
	.loc 1 344 1
	.cfi_startproc
.LVL190:
	.loc 1 345 3
	.loc 1 345 17 is_stmt 0
	ld	a4,8(a0)
	.loc 1 345 49
	ld	a5,32(a0)
	.loc 1 345 64
	ld	a0,24(a0)
.LVL191:
	.loc 1 345 28
	sub	a0,a5,a0
	.loc 1 346 1
	sub	a0,a4,a0
	ret
	.cfi_endproc
.LFE31:
	.size	caml_pos_in, .-caml_pos_in
	.align	1
	.globl	caml_input_scan_line
	.type	caml_input_scan_line, @function
caml_input_scan_line:
.LFB32:
	.loc 1 349 1 is_stmt 1
	.cfi_startproc
.LVL192:
	addi	sp,sp,-48
	.cfi_def_cfa_offset 48
	sd	ra,40(sp)
	sd	s0,32(sp)
	sd	s1,24(sp)
	sd	s2,16(sp)
	sd	s3,8(sp)
	sd	s4,0(sp)
	.cfi_offset 1, -8
	.cfi_offset 8, -16
	.cfi_offset 9, -24
	.cfi_offset 18, -32
	.cfi_offset 19, -40
	.cfi_offset 20, -48
	mv	s0,a0
	.loc 1 350 3
	.loc 1 351 3
	.loc 1 353 3
	.loc 1 353 5 is_stmt 0
	ld	s1,24(a0)
.LVL193:
	j	.L114
.LVL194:
.L118:
	.loc 1 360 9 is_stmt 1
	sub	a2,s2,s4
	mv	a1,s4
	mv	a0,s3
	call	memmove
.LVL195:
	.loc 1 361 9
	.loc 1 361 11 is_stmt 0
	subw	s3,s4,s3
.LVL196:
	.loc 1 362 9 is_stmt 1
	.loc 1 362 23 is_stmt 0
	sub	s4,s4,s3
	sd	s4,24(s0)
	.loc 1 363 9 is_stmt 1
	.loc 1 363 22 is_stmt 0
	sub	s2,s2,s3
	sd	s2,32(s0)
	.loc 1 364 9 is_stmt 1
	.loc 1 364 11 is_stmt 0
	sub	s1,s1,s3
.LVL197:
	j	.L110
.LVL198:
.L119:
	.loc 1 370 9 is_stmt 1
	.loc 1 370 40 is_stmt 0
	ld	a0,24(s0)
	.loc 1 370 16
	sub	a0,a0,a2
	j	.L108
.LVL199:
.L120:
	.loc 1 379 9 is_stmt 1
	.loc 1 379 25 is_stmt 0
	ld	s1,32(s0)
.LVL200:
	.loc 1 379 40
	ld	a0,24(s0)
.LVL201:
	.loc 1 379 16
	sub	a0,a0,s1
	j	.L108
.LVL202:
.L115:
	mv	a5,s1
.L109:
	.loc 1 384 11 is_stmt 1
	.loc 1 384 14 is_stmt 0
	addi	s1,a5,1
.LVL203:
	.loc 1 384 12
	lbu	a4,0(a5)
	.loc 1 384 3
	li	a5,10
	beq	a4,a5,.L117
.L114:
	.loc 1 354 3 is_stmt 1
	.loc 1 355 5
	.loc 1 355 21 is_stmt 0
	ld	s2,32(s0)
	.loc 1 355 8
	bgtu	s2,s1,.L115
	.loc 1 357 7 is_stmt 1
	.loc 1 357 18 is_stmt 0
	ld	s4,24(s0)
	.loc 1 357 25
	addi	s3,s0,80
	.loc 1 357 10
	bgtu	s4,s3,.L118
.L110:
	.loc 1 366 7 is_stmt 1
	.loc 1 366 18 is_stmt 0
	ld	a2,32(s0)
	.loc 1 366 34
	ld	a3,16(s0)
	.loc 1 366 10
	bgeu	a2,a3,.L119
	.loc 1 373 7 is_stmt 1
	.loc 1 373 11 is_stmt 0
	subw	a3,a3,a2
	lw	a1,76(s0)
	lw	a0,0(s0)
	call	caml_read_fd
.LVL204:
	.loc 1 375 7 is_stmt 1
	.loc 1 375 10 is_stmt 0
	beq	a0,zero,.L120
	.loc 1 381 7 is_stmt 1
	.loc 1 381 23 is_stmt 0
	ld	a5,8(s0)
	add	a5,a5,a0
	sd	a5,8(s0)
	.loc 1 382 7 is_stmt 1
	.loc 1 382 20 is_stmt 0
	ld	a5,32(s0)
	add	a0,a5,a0
.LVL205:
	sd	a0,32(s0)
	mv	a5,s1
	j	.L109
.L117:
	.loc 1 386 3 is_stmt 1
	.loc 1 386 22 is_stmt 0
	ld	a0,24(s0)
	.loc 1 386 13
	sub	a0,s1,a0
.LVL206:
.L108:
	.loc 1 387 1
	ld	ra,40(sp)
	.cfi_restore 1
	ld	s0,32(sp)
	.cfi_restore 8
.LVL207:
	ld	s1,24(sp)
	.cfi_restore 9
	ld	s2,16(sp)
	.cfi_restore 18
	ld	s3,8(sp)
	.cfi_restore 19
	ld	s4,0(sp)
	.cfi_restore 20
	addi	sp,sp,48
	.cfi_def_cfa_offset 0
	jr	ra
	.cfi_endproc
.LFE32:
	.size	caml_input_scan_line, .-caml_input_scan_line
	.align	1
	.globl	caml_alloc_channel
	.type	caml_alloc_channel, @function
caml_alloc_channel:
.LFB36:
	.loc 1 454 1 is_stmt 1
	.cfi_startproc
.LVL208:
	addi	sp,sp,-16
	.cfi_def_cfa_offset 16
	sd	ra,8(sp)
	sd	s0,0(sp)
	.cfi_offset 1, -8
	.cfi_offset 8, -16
	mv	s0,a0
	.loc 1 455 3
	.loc 1 456 3
	.loc 1 456 7 is_stmt 0
	lw	a5,72(a0)
	.loc 1 456 17
	addiw	a5,a5,1
	sw	a5,72(a0)
	.loc 1 457 3 is_stmt 1
	.loc 1 457 9 is_stmt 0
	li	a3,1000
	li	a2,1
	li	a1,8
	lla	a0,.LANCHOR0
.LVL209:
	call	caml_alloc_custom
.LVL210:
	.loc 1 459 3 is_stmt 1
	.loc 1 459 16 is_stmt 0
	sd	s0,8(a0)
	.loc 1 460 3 is_stmt 1
	.loc 1 461 1 is_stmt 0
	ld	ra,8(sp)
	.cfi_restore 1
	ld	s0,0(sp)
	.cfi_restore 8
.LVL211:
	addi	sp,sp,16
	.cfi_def_cfa_offset 0
	jr	ra
	.cfi_endproc
.LFE36:
	.size	caml_alloc_channel, .-caml_alloc_channel
	.align	1
	.globl	caml_ml_open_descriptor_in
	.type	caml_ml_open_descriptor_in, @function
caml_ml_open_descriptor_in:
.LFB37:
	.loc 1 464 1 is_stmt 1
	.cfi_startproc
.LVL212:
	addi	sp,sp,-16
	.cfi_def_cfa_offset 16
	sd	ra,8(sp)
	.cfi_offset 1, -8
	.loc 1 465 3
	.loc 1 465 51 is_stmt 0
	srai	a0,a0,1
.LVL213:
	.loc 1 465 27
	sext.w	a0,a0
	call	caml_open_descriptor_in
.LVL214:
	.loc 1 466 3 is_stmt 1
	.loc 1 466 15 is_stmt 0
	lw	a4,76(a0)
	ori	a4,a4,4
	sw	a4,76(a0)
	.loc 1 467 3 is_stmt 1
	.loc 1 467 10 is_stmt 0
	call	caml_alloc_channel
.LVL215:
	.loc 1 468 1
	ld	ra,8(sp)
	.cfi_restore 1
	addi	sp,sp,16
	.cfi_def_cfa_offset 0
	jr	ra
	.cfi_endproc
.LFE37:
	.size	caml_ml_open_descriptor_in, .-caml_ml_open_descriptor_in
	.align	1
	.globl	caml_ml_open_descriptor_out
	.type	caml_ml_open_descriptor_out, @function
caml_ml_open_descriptor_out:
.LFB38:
	.loc 1 471 1 is_stmt 1
	.cfi_startproc
.LVL216:
	addi	sp,sp,-16
	.cfi_def_cfa_offset 16
	sd	ra,8(sp)
	.cfi_offset 1, -8
	.loc 1 472 3
	.loc 1 472 52 is_stmt 0
	srai	a0,a0,1
.LVL217:
	.loc 1 472 27
	sext.w	a0,a0
	call	caml_open_descriptor_out
.LVL218:
	.loc 1 473 3 is_stmt 1
	.loc 1 473 15 is_stmt 0
	lw	a4,76(a0)
	ori	a4,a4,4
	sw	a4,76(a0)
	.loc 1 474 3 is_stmt 1
	.loc 1 474 10 is_stmt 0
	call	caml_alloc_channel
.LVL219:
	.loc 1 475 1
	ld	ra,8(sp)
	.cfi_restore 1
	addi	sp,sp,16
	.cfi_def_cfa_offset 0
	jr	ra
	.cfi_endproc
.LFE38:
	.size	caml_ml_open_descriptor_out, .-caml_ml_open_descriptor_out
	.align	1
	.globl	caml_ml_set_channel_name
	.type	caml_ml_set_channel_name, @function
caml_ml_set_channel_name:
.LFB39:
	.loc 1 478 1 is_stmt 1
	.cfi_startproc
.LVL220:
	addi	sp,sp,-32
	.cfi_def_cfa_offset 32
	sd	ra,24(sp)
	sd	s0,16(sp)
	sd	s1,8(sp)
	.cfi_offset 1, -8
	.cfi_offset 8, -16
	.cfi_offset 9, -24
	mv	s1,a1
	.loc 1 479 3
	.loc 1 479 20 is_stmt 0
	ld	s0,8(a0)
.LVL221:
	.loc 1 480 3 is_stmt 1
	.loc 1 480 25 is_stmt 0
	li	a5,65536
	add	a5,s0,a5
	.loc 1 480 3
	ld	a0,80(a5)
.LVL222:
	call	caml_stat_free
.LVL223:
	.loc 1 481 3 is_stmt 1
	.loc 1 481 7 is_stmt 0
	mv	a0,s1
	call	caml_string_length
.LVL224:
	.loc 1 481 6
	bne	a0,zero,.L131
	.loc 1 484 5 is_stmt 1
	.loc 1 484 19 is_stmt 0
	li	a5,65536
	add	s0,s0,a5
.LVL225:
	sd	zero,80(s0)
.LVL226:
.L129:
	.loc 1 485 3 is_stmt 1
	.loc 1 486 1 is_stmt 0
	li	a0,1
	ld	ra,24(sp)
	.cfi_remember_state
	.cfi_restore 1
	ld	s0,16(sp)
	.cfi_restore 8
	ld	s1,8(sp)
	.cfi_restore 9
.LVL227:
	addi	sp,sp,32
	.cfi_def_cfa_offset 0
	jr	ra
.LVL228:
.L131:
	.cfi_restore_state
	.loc 1 482 5 is_stmt 1
	.loc 1 482 21 is_stmt 0
	mv	a0,s1
	call	caml_stat_strdup
.LVL229:
	.loc 1 482 19
	li	a5,65536
	add	s0,s0,a5
.LVL230:
	sd	a0,80(s0)
	j	.L129
	.cfi_endproc
.LFE39:
	.size	caml_ml_set_channel_name, .-caml_ml_set_channel_name
	.align	1
	.globl	caml_ml_out_channels_list
	.type	caml_ml_out_channels_list, @function
caml_ml_out_channels_list:
.LFB40:
	.loc 1 491 1 is_stmt 1
	.cfi_startproc
.LVL231:
	addi	sp,sp,-128
	.cfi_def_cfa_offset 128
	sd	ra,120(sp)
	sd	s0,112(sp)
	sd	s1,104(sp)
	.cfi_offset 1, -8
	.cfi_offset 8, -16
	.cfi_offset 9, -24
	.loc 1 492 3
	lla	a4,caml_local_roots
	ld	s1,0(a4)
.LVL232:
	.loc 1 493 3
	li	a5,1
	sd	a5,88(sp)
	sd	a5,80(sp)
	sd	a5,72(sp)
	.loc 1 493 3
	.loc 1 493 3
	sd	s1,8(sp)
	addi	a3,sp,8
	sd	a3,0(a4)
	sd	a5,24(sp)
	li	a5,3
	sd	a5,16(sp)
	addi	a5,sp,88
	sd	a5,32(sp)
	addi	a5,sp,80
	sd	a5,40(sp)
	addi	a5,sp,72
	sd	a5,48(sp)
.LVL233:
	.loc 1 494 3
	.loc 1 496 3
	.loc 1 497 3
	.loc 1 497 16 is_stmt 0
	ld	s0,caml_all_opened_channels
.LVL234:
	.loc 1 497 3
	j	.L133
.LVL235:
.L134:
	.loc 1 499 8 is_stmt 1
	.loc 1 499 16 is_stmt 0
	ld	s0,48(s0)
.LVL236:
.L133:
	.loc 1 498 8 is_stmt 1 discriminator 1
	.loc 1 497 3 is_stmt 0 discriminator 1
	beq	s0,zero,.L137
	.loc 1 502 5 is_stmt 1
	.loc 1 502 16 is_stmt 0
	ld	a5,32(s0)
	.loc 1 502 8
	bne	a5,zero,.L134
	.loc 1 503 7 is_stmt 1
	.loc 1 503 14 is_stmt 0
	mv	a0,s0
	call	caml_alloc_channel
.LVL237:
	.loc 1 503 12
	sd	a0,72(sp)
	.loc 1 504 7 is_stmt 1
	.loc 1 504 12 is_stmt 0
	ld	a5,88(sp)
	sd	a5,80(sp)
	.loc 1 505 7 is_stmt 1
	.loc 1 505 13 is_stmt 0
	li	a1,0
	li	a0,2
	call	caml_alloc_small
.LVL238:
	.loc 1 505 11
	sd	a0,88(sp)
	.loc 1 506 7 is_stmt 1
	.loc 1 506 22 is_stmt 0
	ld	a5,72(sp)
	sd	a5,0(a0)
	.loc 1 507 7 is_stmt 1
	.loc 1 507 22 is_stmt 0
	ld	a4,80(sp)
	ld	a5,88(sp)
	sd	a4,8(a5)
	j	.L134
.L137:
	.loc 1 509 3 is_stmt 1
.LBB2:
	.loc 1 509 3
.LVL239:
	.loc 1 509 3
	sd	s1,caml_local_roots,a5
	.loc 1 509 3
.LBE2:
	.loc 1 509 3
	.loc 1 510 1 is_stmt 0
	ld	a0,88(sp)
	ld	ra,120(sp)
	.cfi_restore 1
	ld	s0,112(sp)
	.cfi_restore 8
.LVL240:
	ld	s1,104(sp)
	.cfi_restore 9
.LVL241:
	addi	sp,sp,128
	.cfi_def_cfa_offset 0
.LVL242:
	jr	ra
	.cfi_endproc
.LFE40:
	.size	caml_ml_out_channels_list, .-caml_ml_out_channels_list
	.align	1
	.globl	caml_channel_descriptor
	.type	caml_channel_descriptor, @function
caml_channel_descriptor:
.LFB41:
	.loc 1 513 1 is_stmt 1
	.cfi_startproc
.LVL243:
	addi	sp,sp,-16
	.cfi_def_cfa_offset 16
	sd	ra,8(sp)
	sd	s0,0(sp)
	.cfi_offset 1, -8
	.cfi_offset 8, -16
	.loc 1 514 3
	.loc 1 514 12 is_stmt 0
	ld	a5,8(a0)
	.loc 1 514 7
	lw	s0,0(a5)
.LVL244:
	.loc 1 515 3 is_stmt 1
	.loc 1 515 6 is_stmt 0
	li	a5,-1
	beq	s0,a5,.L141
.LVL245:
.L139:
	.loc 1 516 3 is_stmt 1
	.loc 1 516 10 is_stmt 0
	slli	a0,s0,1
	.loc 1 517 1
	addi	a0,a0,1
	ld	ra,8(sp)
	.cfi_remember_state
	.cfi_restore 1
	ld	s0,0(sp)
	.cfi_restore 8
.LVL246:
	addi	sp,sp,16
	.cfi_def_cfa_offset 0
	jr	ra
.LVL247:
.L141:
	.cfi_restore_state
	.loc 1 515 19 is_stmt 1 discriminator 1
	.loc 1 515 25 is_stmt 0 discriminator 1
	li	a5,1
	sw	a5,errno,a4
	.loc 1 515 34 is_stmt 1 discriminator 1
	li	a0,1
.LVL248:
	call	caml_sys_error
.LVL249:
	j	.L139
	.cfi_endproc
.LFE41:
	.size	caml_channel_descriptor, .-caml_channel_descriptor
	.align	1
	.globl	caml_ml_close_channel
	.type	caml_ml_close_channel, @function
caml_ml_close_channel:
.LFB42:
	.loc 1 520 1
	.cfi_startproc
.LVL250:
	addi	sp,sp,-16
	.cfi_def_cfa_offset 16
	sd	ra,8(sp)
	sd	s0,0(sp)
	.cfi_offset 1, -8
	.cfi_offset 8, -16
	.loc 1 521 3
	.loc 1 522 3
	.loc 1 523 3
	.loc 1 526 3
	.loc 1 526 20 is_stmt 0
	ld	a5,8(a0)
.LVL251:
	.loc 1 527 3 is_stmt 1
	.loc 1 527 14 is_stmt 0
	lw	a4,0(a5)
	.loc 1 527 6
	li	a3,-1
	beq	a4,a3,.L145
	.loc 1 528 5 is_stmt 1
.LVL252:
	.loc 1 529 5
	.loc 1 529 17 is_stmt 0
	sw	a3,0(a5)
	.loc 1 530 5 is_stmt 1
.LVL253:
	.loc 1 528 8 is_stmt 0
	mv	s0,a4
	.loc 1 530 16
	li	a3,1
.LVL254:
.L143:
	.loc 1 538 3 is_stmt 1
	.loc 1 538 41 is_stmt 0
	ld	a4,16(a5)
	.loc 1 538 32
	sd	a4,32(a5)
	.loc 1 538 17
	sd	a4,24(a5)
	.loc 1 540 3 is_stmt 1
	.loc 1 540 6 is_stmt 0
	bne	a3,zero,.L147
.LVL255:
.L144:
	.loc 1 547 3 is_stmt 1
	.loc 1 548 1 is_stmt 0
	li	a0,1
	ld	ra,8(sp)
	.cfi_remember_state
	.cfi_restore 1
	ld	s0,0(sp)
	.cfi_restore 8
	addi	sp,sp,16
	.cfi_def_cfa_offset 0
	jr	ra
.LVL256:
.L145:
	.cfi_restore_state
	li	s0,0
	.loc 1 532 16
	li	a3,0
	j	.L143
.LVL257:
.L147:
	.loc 1 541 5 is_stmt 1
	call	caml_enter_blocking_section
.LVL258:
	.loc 1 542 5
	.loc 1 542 14 is_stmt 0
	mv	a0,s0
	call	close
.LVL259:
	mv	s0,a0
.LVL260:
	.loc 1 543 5 is_stmt 1
	call	caml_leave_blocking_section
.LVL261:
	.loc 1 546 3
	.loc 1 546 6 is_stmt 0
	li	a5,-1
	bne	s0,a5,.L144
	.loc 1 546 21 is_stmt 1 discriminator 1
	li	a0,1
	call	caml_sys_error
.LVL262:
	j	.L144
	.cfi_endproc
.LFE42:
	.size	caml_ml_close_channel, .-caml_ml_close_channel
	.align	1
	.globl	caml_ml_channel_size
	.type	caml_ml_channel_size, @function
caml_ml_channel_size:
.LFB43:
	.loc 1 560 1
	.cfi_startproc
.LVL263:
	addi	sp,sp,-16
	.cfi_def_cfa_offset 16
	sd	ra,8(sp)
	sd	s0,0(sp)
	.cfi_offset 1, -8
	.cfi_offset 8, -16
	.loc 1 561 3
	.loc 1 561 22 is_stmt 0
	ld	a0,8(a0)
.LVL264:
	call	caml_channel_size
.LVL265:
	mv	s0,a0
.LVL266:
	.loc 1 562 3 is_stmt 1
	.loc 1 562 6 is_stmt 0
	li	a5,-1
	srli	a5,a5,2
	bgt	a0,a5,.L151
.L149:
	.loc 1 563 3 is_stmt 1
	.loc 1 563 10 is_stmt 0
	slli	a0,s0,1
	.loc 1 564 1
	addi	a0,a0,1
	ld	ra,8(sp)
	.cfi_remember_state
	.cfi_restore 1
	ld	s0,0(sp)
	.cfi_restore 8
.LVL267:
	addi	sp,sp,16
	.cfi_def_cfa_offset 0
	jr	ra
.LVL268:
.L151:
	.cfi_restore_state
	.loc 1 562 26 is_stmt 1 discriminator 1
	.loc 1 562 32 is_stmt 0 discriminator 1
	li	a5,4
	sw	a5,errno,a4
	.loc 1 562 45 is_stmt 1 discriminator 1
	li	a0,1
	call	caml_sys_error
.LVL269:
	j	.L149
	.cfi_endproc
.LFE43:
	.size	caml_ml_channel_size, .-caml_ml_channel_size
	.align	1
	.globl	caml_ml_channel_size_64
	.type	caml_ml_channel_size_64, @function
caml_ml_channel_size_64:
.LFB44:
	.loc 1 567 1
	.cfi_startproc
.LVL270:
	addi	sp,sp,-16
	.cfi_def_cfa_offset 16
	sd	ra,8(sp)
	.cfi_offset 1, -8
	.loc 1 568 3
	.loc 1 568 10 is_stmt 0
	ld	a0,8(a0)
.LVL271:
	call	caml_channel_size
.LVL272:
	call	caml_copy_int64
.LVL273:
	.loc 1 569 1
	ld	ra,8(sp)
	.cfi_restore 1
	addi	sp,sp,16
	.cfi_def_cfa_offset 0
	jr	ra
	.cfi_endproc
.LFE44:
	.size	caml_ml_channel_size_64, .-caml_ml_channel_size_64
	.align	1
	.globl	caml_ml_set_binary_mode
	.type	caml_ml_set_binary_mode, @function
caml_ml_set_binary_mode:
.LFB45:
	.loc 1 572 1 is_stmt 1
	.cfi_startproc
.LVL274:
	.loc 1 587 3
	.loc 1 588 1 is_stmt 0
	li	a0,1
.LVL275:
	ret
	.cfi_endproc
.LFE45:
	.size	caml_ml_set_binary_mode, .-caml_ml_set_binary_mode
	.align	1
	.globl	caml_ml_flush_partial
	.type	caml_ml_flush_partial, @function
caml_ml_flush_partial:
.LFB46:
	.loc 1 598 1 is_stmt 1
	.cfi_startproc
.LVL276:
	addi	sp,sp,-112
	.cfi_def_cfa_offset 112
	sd	ra,104(sp)
	sd	s0,96(sp)
	sd	s1,88(sp)
	sd	s2,80(sp)
	.cfi_offset 1, -8
	.cfi_offset 8, -16
	.cfi_offset 9, -24
	.cfi_offset 18, -32
	sd	a0,8(sp)
	.loc 1 599 3
	lla	a5,caml_local_roots
	ld	s2,0(a5)
.LVL277:
	.loc 1 599 3
	.loc 1 599 3
	sd	s2,16(sp)
	addi	a4,sp,16
	sd	a4,0(a5)
	li	a5,1
	sd	a5,32(sp)
	sd	a5,24(sp)
	addi	a5,sp,8
	sd	a5,40(sp)
.LVL278:
	.loc 1 600 3
	.loc 1 600 20 is_stmt 0
	ld	s0,8(a0)
.LVL279:
	.loc 1 601 3 is_stmt 1
	.loc 1 603 3
	.loc 1 603 14 is_stmt 0
	lw	a4,0(s0)
	.loc 1 603 6
	li	a5,-1
	beq	a4,a5,.L163
	.loc 1 603 26 is_stmt 1 discriminator 2
	.loc 1 604 3 discriminator 2
	ld	a5,caml_channel_mutex_lock
	beq	a5,zero,.L158
	.loc 1 604 3 discriminator 1
	mv	a0,s0
.LVL280:
	jalr	a5
.LVL281:
.L158:
	.loc 1 605 3
	.loc 1 605 9 is_stmt 0
	mv	a0,s0
	call	caml_flush_partial
.LVL282:
	mv	s1,a0
.LVL283:
	.loc 1 606 3 is_stmt 1
	ld	a5,caml_channel_mutex_unlock
	beq	a5,zero,.L159
	.loc 1 606 3 discriminator 1
	mv	a0,s0
	jalr	a5
.LVL284:
.L159:
	.loc 1 607 3
.LBB3:
	.loc 1 607 3
	beq	s1,zero,.L161
	li	a0,3
.L160:
.LVL285:
	.loc 1 607 3 discriminator 4
	sd	s2,caml_local_roots,a5
	.loc 1 607 3 discriminator 4
.LBE3:
	.loc 1 607 3 discriminator 4
.LVL286:
.L155:
	.loc 1 608 1 is_stmt 0
	ld	ra,104(sp)
	.cfi_remember_state
	.cfi_restore 1
	ld	s0,96(sp)
	.cfi_restore 8
.LVL287:
	ld	s1,88(sp)
	.cfi_restore 9
	ld	s2,80(sp)
	.cfi_restore 18
.LVL288:
	addi	sp,sp,112
	.cfi_def_cfa_offset 0
	jr	ra
.LVL289:
.L163:
	.cfi_restore_state
	.loc 1 603 26 is_stmt 1 discriminator 1
.LBB4:
	.loc 1 603 26 discriminator 1
	.loc 1 603 26 discriminator 1
	sd	s2,caml_local_roots,a5
	.loc 1 603 26 discriminator 1
	li	a0,3
.LVL290:
	j	.L155
.LVL291:
.L161:
.LBE4:
.LBB5:
	.loc 1 607 3 is_stmt 0
	li	a0,1
	j	.L160
.LBE5:
	.cfi_endproc
.LFE46:
	.size	caml_ml_flush_partial, .-caml_ml_flush_partial
	.align	1
	.globl	caml_ml_flush
	.type	caml_ml_flush, @function
caml_ml_flush:
.LFB47:
	.loc 1 611 1 is_stmt 1
	.cfi_startproc
.LVL292:
	addi	sp,sp,-112
	.cfi_def_cfa_offset 112
	sd	ra,104(sp)
	sd	s0,96(sp)
	sd	s1,88(sp)
	.cfi_offset 1, -8
	.cfi_offset 8, -16
	.cfi_offset 9, -24
	sd	a0,8(sp)
	.loc 1 612 3
	lla	a5,caml_local_roots
	ld	s1,0(a5)
.LVL293:
	.loc 1 612 3
	.loc 1 612 3
	sd	s1,16(sp)
	addi	a4,sp,16
	sd	a4,0(a5)
	li	a5,1
	sd	a5,32(sp)
	sd	a5,24(sp)
	addi	a5,sp,8
	sd	a5,40(sp)
.LVL294:
	.loc 1 613 3
	.loc 1 613 20 is_stmt 0
	ld	s0,8(a0)
.LVL295:
	.loc 1 615 3 is_stmt 1
	.loc 1 615 14 is_stmt 0
	lw	a4,0(s0)
	.loc 1 615 6
	li	a5,-1
	beq	a4,a5,.L170
	.loc 1 615 26 is_stmt 1 discriminator 2
	.loc 1 616 3 discriminator 2
	ld	a5,caml_channel_mutex_lock
	beq	a5,zero,.L167
	.loc 1 616 3 discriminator 1
	mv	a0,s0
.LVL296:
	jalr	a5
.LVL297:
.L167:
	.loc 1 617 3
	mv	a0,s0
	call	caml_flush
.LVL298:
	.loc 1 618 3
	ld	a5,caml_channel_mutex_unlock
	beq	a5,zero,.L168
	.loc 1 618 3 discriminator 1
	mv	a0,s0
	jalr	a5
.LVL299:
.L168:
	.loc 1 619 3
.LBB6:
	.loc 1 619 3
	.loc 1 619 3
	sd	s1,caml_local_roots,a5
	.loc 1 619 3
.LVL300:
.L166:
.LBE6:
	.loc 1 619 3 discriminator 1
	.loc 1 620 1 is_stmt 0 discriminator 1
	li	a0,1
	ld	ra,104(sp)
	.cfi_remember_state
	.cfi_restore 1
	ld	s0,96(sp)
	.cfi_restore 8
.LVL301:
	ld	s1,88(sp)
	.cfi_restore 9
.LVL302:
	addi	sp,sp,112
	.cfi_def_cfa_offset 0
	jr	ra
.LVL303:
.L170:
	.cfi_restore_state
	.loc 1 615 26 is_stmt 1 discriminator 1
.LBB7:
	.loc 1 615 26 discriminator 1
	.loc 1 615 26 discriminator 1
	sd	s1,caml_local_roots,a5
	.loc 1 615 26 discriminator 1
	j	.L166
.LBE7:
	.cfi_endproc
.LFE47:
	.size	caml_ml_flush, .-caml_ml_flush
	.align	1
	.globl	caml_ml_output_char
	.type	caml_ml_output_char, @function
caml_ml_output_char:
.LFB48:
	.loc 1 623 1
	.cfi_startproc
.LVL304:
	addi	sp,sp,-112
	.cfi_def_cfa_offset 112
	sd	ra,104(sp)
	sd	s0,96(sp)
	sd	s1,88(sp)
	.cfi_offset 1, -8
	.cfi_offset 8, -16
	.cfi_offset 9, -24
	sd	a0,8(sp)
	sd	a1,0(sp)
	.loc 1 624 3
	lla	a5,caml_local_roots
	ld	s1,0(a5)
.LVL305:
	.loc 1 624 3
	.loc 1 624 3
	sd	s1,16(sp)
	addi	a4,sp,16
	sd	a4,0(a5)
	li	a5,1
	sd	a5,32(sp)
	li	a5,2
	sd	a5,24(sp)
	addi	a5,sp,8
	sd	a5,40(sp)
	sd	sp,48(sp)
.LVL306:
	.loc 1 625 3
	.loc 1 625 20 is_stmt 0
	ld	s0,8(a0)
.LVL307:
	.loc 1 627 3 is_stmt 1
	ld	a5,caml_channel_mutex_lock
	beq	a5,zero,.L172
	.loc 1 627 3 discriminator 1
	mv	a0,s0
.LVL308:
	jalr	a5
.LVL309:
.L172:
	.loc 1 628 3
	.loc 1 628 3
	ld	a4,24(s0)
	ld	a5,16(s0)
	bgeu	a4,a5,.L176
.L173:
	.loc 1 628 3 discriminator 3
	ld	a5,0(sp)
	srai	a5,a5,1
	ld	a4,24(s0)
	addi	a3,a4,1
	sd	a3,24(s0)
	sb	a5,0(a4)
	.loc 1 628 3 discriminator 3
	.loc 1 629 3 discriminator 3
	ld	a5,caml_channel_mutex_unlock
	beq	a5,zero,.L174
	.loc 1 629 3 discriminator 1
	mv	a0,s0
	jalr	a5
.LVL310:
.L174:
	.loc 1 630 3
.LBB8:
	.loc 1 630 3
	.loc 1 630 3
	sd	s1,caml_local_roots,a5
	.loc 1 630 3
.LBE8:
	.loc 1 630 3
	.loc 1 631 1 is_stmt 0
	li	a0,1
	ld	ra,104(sp)
	.cfi_remember_state
	.cfi_restore 1
	ld	s0,96(sp)
	.cfi_restore 8
.LVL311:
	ld	s1,88(sp)
	.cfi_restore 9
.LVL312:
	addi	sp,sp,112
	.cfi_def_cfa_offset 0
	jr	ra
.LVL313:
.L176:
	.cfi_restore_state
	.loc 1 628 3 is_stmt 1 discriminator 1
	mv	a0,s0
	call	caml_flush_partial
.LVL314:
	j	.L173
	.cfi_endproc
.LFE48:
	.size	caml_ml_output_char, .-caml_ml_output_char
	.align	1
	.globl	caml_ml_output_int
	.type	caml_ml_output_int, @function
caml_ml_output_int:
.LFB49:
	.loc 1 634 1
	.cfi_startproc
.LVL315:
	addi	sp,sp,-112
	.cfi_def_cfa_offset 112
	sd	ra,104(sp)
	sd	s0,96(sp)
	sd	s1,88(sp)
	.cfi_offset 1, -8
	.cfi_offset 8, -16
	.cfi_offset 9, -24
	sd	a0,8(sp)
	sd	a1,0(sp)
	.loc 1 635 3
	lla	a5,caml_local_roots
	ld	s1,0(a5)
.LVL316:
	.loc 1 635 3
	.loc 1 635 3
	sd	s1,16(sp)
	addi	a4,sp,16
	sd	a4,0(a5)
	li	a5,1
	sd	a5,32(sp)
	li	a5,2
	sd	a5,24(sp)
	addi	a5,sp,8
	sd	a5,40(sp)
	sd	sp,48(sp)
.LVL317:
	.loc 1 636 3
	.loc 1 636 20 is_stmt 0
	ld	s0,8(a0)
.LVL318:
	.loc 1 638 3 is_stmt 1
	ld	a5,caml_channel_mutex_lock
	beq	a5,zero,.L178
	.loc 1 638 3 discriminator 1
	mv	a0,s0
.LVL319:
	jalr	a5
.LVL320:
.L178:
	.loc 1 639 3
	.loc 1 639 25 is_stmt 0
	ld	a1,0(sp)
	srai	a1,a1,1
	.loc 1 639 3
	sext.w	a1,a1
	mv	a0,s0
	call	caml_putword
.LVL321:
	.loc 1 640 3 is_stmt 1
	ld	a5,caml_channel_mutex_unlock
	beq	a5,zero,.L179
	.loc 1 640 3 discriminator 1
	mv	a0,s0
	jalr	a5
.LVL322:
.L179:
	.loc 1 641 3
.LBB9:
	.loc 1 641 3
	.loc 1 641 3
	sd	s1,caml_local_roots,a5
	.loc 1 641 3
.LBE9:
	.loc 1 641 3
	.loc 1 642 1 is_stmt 0
	li	a0,1
	ld	ra,104(sp)
	.cfi_restore 1
	ld	s0,96(sp)
	.cfi_restore 8
.LVL323:
	ld	s1,88(sp)
	.cfi_restore 9
.LVL324:
	addi	sp,sp,112
	.cfi_def_cfa_offset 0
	jr	ra
	.cfi_endproc
.LFE49:
	.size	caml_ml_output_int, .-caml_ml_output_int
	.align	1
	.globl	caml_ml_output_partial
	.type	caml_ml_output_partial, @function
caml_ml_output_partial:
.LFB50:
	.loc 1 646 1 is_stmt 1
	.cfi_startproc
.LVL325:
	addi	sp,sp,-128
	.cfi_def_cfa_offset 128
	sd	ra,120(sp)
	sd	s0,112(sp)
	sd	s1,104(sp)
	sd	s2,96(sp)
	.cfi_offset 1, -8
	.cfi_offset 8, -16
	.cfi_offset 9, -24
	.cfi_offset 18, -32
	sd	a0,24(sp)
	sd	a1,16(sp)
	sd	a2,8(sp)
	sd	a3,0(sp)
	.loc 1 647 3
	lla	a5,caml_local_roots
	ld	s2,0(a5)
.LVL326:
	.loc 1 647 3
	.loc 1 647 3
	sd	s2,32(sp)
	addi	a4,sp,32
	sd	a4,0(a5)
	li	a5,1
	sd	a5,48(sp)
	li	a5,4
	sd	a5,40(sp)
	addi	a5,sp,24
	sd	a5,56(sp)
	addi	a5,sp,16
	sd	a5,64(sp)
	addi	a5,sp,8
	sd	a5,72(sp)
	sd	sp,80(sp)
.LVL327:
	.loc 1 648 3
	.loc 1 648 20 is_stmt 0
	ld	s1,8(a0)
.LVL328:
	.loc 1 649 3 is_stmt 1
	.loc 1 651 3
	ld	a5,caml_channel_mutex_lock
	beq	a5,zero,.L182
	.loc 1 651 3 discriminator 1
	mv	a0,s1
.LVL329:
	jalr	a5
.LVL330:
.L182:
	.loc 1 652 3
	.loc 1 652 33 is_stmt 0
	ld	a5,8(sp)
	srai	a5,a5,1
	.loc 1 652 9
	ld	a2,0(sp)
	srai	a2,a2,1
	ld	a1,16(sp)
	add	a1,a5,a1
	mv	a0,s1
	call	caml_putblock
.LVL331:
	mv	s0,a0
.LVL332:
	.loc 1 653 3 is_stmt 1
	ld	a5,caml_channel_mutex_unlock
	beq	a5,zero,.L183
	.loc 1 653 3 discriminator 1
	mv	a0,s1
	jalr	a5
.LVL333:
.L183:
	.loc 1 654 3
.LBB10:
	.loc 1 654 3
	slli	a0,s0,1
.LVL334:
	.loc 1 654 3
	sd	s2,caml_local_roots,a5
	.loc 1 654 3
.LBE10:
	.loc 1 654 3
	.loc 1 655 1 is_stmt 0
	addi	a0,a0,1
.LVL335:
	ld	ra,120(sp)
	.cfi_restore 1
	ld	s0,112(sp)
	.cfi_restore 8
.LVL336:
	ld	s1,104(sp)
	.cfi_restore 9
.LVL337:
	ld	s2,96(sp)
	.cfi_restore 18
.LVL338:
	addi	sp,sp,128
	.cfi_def_cfa_offset 0
	jr	ra
	.cfi_endproc
.LFE50:
	.size	caml_ml_output_partial, .-caml_ml_output_partial
	.align	1
	.globl	caml_ml_output_bytes
	.type	caml_ml_output_bytes, @function
caml_ml_output_bytes:
.LFB51:
	.loc 1 659 1 is_stmt 1
	.cfi_startproc
.LVL339:
	addi	sp,sp,-144
	.cfi_def_cfa_offset 144
	sd	ra,136(sp)
	sd	s0,128(sp)
	sd	s1,120(sp)
	sd	s2,112(sp)
	sd	s3,104(sp)
	.cfi_offset 1, -8
	.cfi_offset 8, -16
	.cfi_offset 9, -24
	.cfi_offset 18, -32
	.cfi_offset 19, -40
	sd	a0,24(sp)
	sd	a1,16(sp)
	sd	a2,8(sp)
	sd	a3,0(sp)
	.loc 1 660 3
	lla	a5,caml_local_roots
	ld	s3,0(a5)
.LVL340:
	.loc 1 660 3
	.loc 1 660 3
	sd	s3,32(sp)
	addi	a4,sp,32
	sd	a4,0(a5)
	li	a5,1
	sd	a5,48(sp)
	li	a5,4
	sd	a5,40(sp)
	addi	a5,sp,24
	sd	a5,56(sp)
	addi	a5,sp,16
	sd	a5,64(sp)
	addi	a5,sp,8
	sd	a5,72(sp)
	sd	sp,80(sp)
.LVL341:
	.loc 1 661 3
	.loc 1 661 20 is_stmt 0
	ld	s2,8(a0)
.LVL342:
	.loc 1 662 3 is_stmt 1
	.loc 1 662 10 is_stmt 0
	srai	s1,a2,1
.LVL343:
	.loc 1 663 3 is_stmt 1
	.loc 1 663 10 is_stmt 0
	srai	s0,a3,1
.LVL344:
	.loc 1 665 3 is_stmt 1
	ld	a5,caml_channel_mutex_lock
	beq	a5,zero,.L187
	.loc 1 665 3 discriminator 1
	mv	a0,s2
.LVL345:
	jalr	a5
.LVL346:
.L187:
	.loc 1 668 11
	ble	s0,zero,.L191
.LBB11:
	.loc 1 669 7
	.loc 1 669 21 is_stmt 0
	mv	a2,s0
	ld	a1,16(sp)
	add	a1,s1,a1
	mv	a0,s2
	call	caml_putblock
.LVL347:
	.loc 1 670 7 is_stmt 1
	.loc 1 670 11 is_stmt 0
	add	s1,s1,a0
.LVL348:
	.loc 1 671 7 is_stmt 1
	.loc 1 671 11 is_stmt 0
	sub	s0,s0,a0
.LVL349:
	j	.L187
.LVL350:
.L191:
.LBE11:
	.loc 1 673 3 is_stmt 1
	ld	a5,caml_channel_mutex_unlock
	beq	a5,zero,.L189
	.loc 1 673 3 discriminator 1
	mv	a0,s2
	jalr	a5
.LVL351:
.L189:
	.loc 1 674 3
.LBB12:
	.loc 1 674 3
	.loc 1 674 3
	sd	s3,caml_local_roots,a5
	.loc 1 674 3
.LBE12:
	.loc 1 674 3
	.loc 1 675 1 is_stmt 0
	li	a0,1
	ld	ra,136(sp)
	.cfi_restore 1
	ld	s0,128(sp)
	.cfi_restore 8
.LVL352:
	ld	s1,120(sp)
	.cfi_restore 9
.LVL353:
	ld	s2,112(sp)
	.cfi_restore 18
.LVL354:
	ld	s3,104(sp)
	.cfi_restore 19
.LVL355:
	addi	sp,sp,144
	.cfi_def_cfa_offset 0
	jr	ra
	.cfi_endproc
.LFE51:
	.size	caml_ml_output_bytes, .-caml_ml_output_bytes
	.align	1
	.globl	caml_ml_output
	.type	caml_ml_output, @function
caml_ml_output:
.LFB52:
	.loc 1 679 1 is_stmt 1
	.cfi_startproc
.LVL356:
	addi	sp,sp,-16
	.cfi_def_cfa_offset 16
	sd	ra,8(sp)
	.cfi_offset 1, -8
	.loc 1 680 3
	.loc 1 680 10 is_stmt 0
	call	caml_ml_output_bytes
.LVL357:
	.loc 1 681 1
	ld	ra,8(sp)
	.cfi_restore 1
	addi	sp,sp,16
	.cfi_def_cfa_offset 0
	jr	ra
	.cfi_endproc
.LFE52:
	.size	caml_ml_output, .-caml_ml_output
	.align	1
	.globl	caml_ml_seek_out
	.type	caml_ml_seek_out, @function
caml_ml_seek_out:
.LFB53:
	.loc 1 684 1 is_stmt 1
	.cfi_startproc
.LVL358:
	addi	sp,sp,-112
	.cfi_def_cfa_offset 112
	sd	ra,104(sp)
	sd	s0,96(sp)
	sd	s1,88(sp)
	.cfi_offset 1, -8
	.cfi_offset 8, -16
	.cfi_offset 9, -24
	sd	a0,8(sp)
	sd	a1,0(sp)
	.loc 1 685 3
	lla	a5,caml_local_roots
	ld	s1,0(a5)
.LVL359:
	.loc 1 685 3
	.loc 1 685 3
	sd	s1,16(sp)
	addi	a4,sp,16
	sd	a4,0(a5)
	li	a5,1
	sd	a5,32(sp)
	li	a5,2
	sd	a5,24(sp)
	addi	a5,sp,8
	sd	a5,40(sp)
	sd	sp,48(sp)
.LVL360:
	.loc 1 686 3
	.loc 1 686 20 is_stmt 0
	ld	s0,8(a0)
.LVL361:
	.loc 1 688 3 is_stmt 1
	ld	a5,caml_channel_mutex_lock
	beq	a5,zero,.L195
	.loc 1 688 3 discriminator 1
	mv	a0,s0
.LVL362:
	jalr	a5
.LVL363:
.L195:
	.loc 1 689 3
	ld	a1,0(sp)
	srai	a1,a1,1
	mv	a0,s0
	call	caml_seek_out
.LVL364:
	.loc 1 690 3
	ld	a5,caml_channel_mutex_unlock
	beq	a5,zero,.L196
	.loc 1 690 3 discriminator 1
	mv	a0,s0
	jalr	a5
.LVL365:
.L196:
	.loc 1 691 3
.LBB13:
	.loc 1 691 3
	.loc 1 691 3
	sd	s1,caml_local_roots,a5
	.loc 1 691 3
.LBE13:
	.loc 1 691 3
	.loc 1 692 1 is_stmt 0
	li	a0,1
	ld	ra,104(sp)
	.cfi_restore 1
	ld	s0,96(sp)
	.cfi_restore 8
.LVL366:
	ld	s1,88(sp)
	.cfi_restore 9
.LVL367:
	addi	sp,sp,112
	.cfi_def_cfa_offset 0
	jr	ra
	.cfi_endproc
.LFE53:
	.size	caml_ml_seek_out, .-caml_ml_seek_out
	.align	1
	.globl	caml_ml_seek_out_64
	.type	caml_ml_seek_out_64, @function
caml_ml_seek_out_64:
.LFB54:
	.loc 1 695 1 is_stmt 1
	.cfi_startproc
.LVL368:
	addi	sp,sp,-112
	.cfi_def_cfa_offset 112
	sd	ra,104(sp)
	sd	s0,96(sp)
	sd	s1,88(sp)
	.cfi_offset 1, -8
	.cfi_offset 8, -16
	.cfi_offset 9, -24
	sd	a0,8(sp)
	sd	a1,0(sp)
	.loc 1 696 3
	lla	a5,caml_local_roots
	ld	s1,0(a5)
.LVL369:
	.loc 1 696 3
	.loc 1 696 3
	sd	s1,16(sp)
	addi	a4,sp,16
	sd	a4,0(a5)
	li	a5,1
	sd	a5,32(sp)
	li	a5,2
	sd	a5,24(sp)
	addi	a5,sp,8
	sd	a5,40(sp)
	sd	sp,48(sp)
.LVL370:
	.loc 1 697 3
	.loc 1 697 20 is_stmt 0
	ld	s0,8(a0)
.LVL371:
	.loc 1 699 3 is_stmt 1
	ld	a5,caml_channel_mutex_lock
	beq	a5,zero,.L199
	.loc 1 699 3 discriminator 1
	mv	a0,s0
.LVL372:
	jalr	a5
.LVL373:
.L199:
	.loc 1 700 3
	.loc 1 700 26 is_stmt 0
	ld	a0,0(sp)
	call	caml_Int64_val
.LVL374:
	mv	a1,a0
	.loc 1 700 3
	mv	a0,s0
	call	caml_seek_out
.LVL375:
	.loc 1 701 3 is_stmt 1
	ld	a5,caml_channel_mutex_unlock
	beq	a5,zero,.L200
	.loc 1 701 3 discriminator 1
	mv	a0,s0
	jalr	a5
.LVL376:
.L200:
	.loc 1 702 3
.LBB14:
	.loc 1 702 3
	.loc 1 702 3
	sd	s1,caml_local_roots,a5
	.loc 1 702 3
.LBE14:
	.loc 1 702 3
	.loc 1 703 1 is_stmt 0
	li	a0,1
	ld	ra,104(sp)
	.cfi_restore 1
	ld	s0,96(sp)
	.cfi_restore 8
.LVL377:
	ld	s1,88(sp)
	.cfi_restore 9
.LVL378:
	addi	sp,sp,112
	.cfi_def_cfa_offset 0
	jr	ra
	.cfi_endproc
.LFE54:
	.size	caml_ml_seek_out_64, .-caml_ml_seek_out_64
	.align	1
	.globl	caml_ml_pos_out
	.type	caml_ml_pos_out, @function
caml_ml_pos_out:
.LFB55:
	.loc 1 706 1 is_stmt 1
	.cfi_startproc
.LVL379:
	addi	sp,sp,-16
	.cfi_def_cfa_offset 16
	sd	ra,8(sp)
	sd	s0,0(sp)
	.cfi_offset 1, -8
	.cfi_offset 8, -16
	.loc 1 707 3
	.loc 1 707 21 is_stmt 0
	ld	a0,8(a0)
.LVL380:
	call	caml_pos_out
.LVL381:
	mv	s0,a0
.LVL382:
	.loc 1 708 3 is_stmt 1
	.loc 1 708 6 is_stmt 0
	li	a5,-1
	srli	a5,a5,2
	bgt	a0,a5,.L205
.L203:
	.loc 1 709 3 is_stmt 1
	.loc 1 709 10 is_stmt 0
	slli	a0,s0,1
	.loc 1 710 1
	addi	a0,a0,1
	ld	ra,8(sp)
	.cfi_remember_state
	.cfi_restore 1
	ld	s0,0(sp)
	.cfi_restore 8
.LVL383:
	addi	sp,sp,16
	.cfi_def_cfa_offset 0
	jr	ra
.LVL384:
.L205:
	.cfi_restore_state
	.loc 1 708 25 is_stmt 1 discriminator 1
	.loc 1 708 31 is_stmt 0 discriminator 1
	li	a5,4
	sw	a5,errno,a4
	.loc 1 708 44 is_stmt 1 discriminator 1
	li	a0,1
	call	caml_sys_error
.LVL385:
	j	.L203
	.cfi_endproc
.LFE55:
	.size	caml_ml_pos_out, .-caml_ml_pos_out
	.align	1
	.globl	caml_ml_pos_out_64
	.type	caml_ml_pos_out_64, @function
caml_ml_pos_out_64:
.LFB56:
	.loc 1 713 1
	.cfi_startproc
.LVL386:
	addi	sp,sp,-16
	.cfi_def_cfa_offset 16
	sd	ra,8(sp)
	.cfi_offset 1, -8
	.loc 1 714 3
	.loc 1 714 10 is_stmt 0
	ld	a0,8(a0)
.LVL387:
	call	caml_pos_out
.LVL388:
	call	caml_copy_int64
.LVL389:
	.loc 1 715 1
	ld	ra,8(sp)
	.cfi_restore 1
	addi	sp,sp,16
	.cfi_def_cfa_offset 0
	jr	ra
	.cfi_endproc
.LFE56:
	.size	caml_ml_pos_out_64, .-caml_ml_pos_out_64
	.align	1
	.globl	caml_ml_input_char
	.type	caml_ml_input_char, @function
caml_ml_input_char:
.LFB57:
	.loc 1 718 1 is_stmt 1
	.cfi_startproc
.LVL390:
	addi	sp,sp,-112
	.cfi_def_cfa_offset 112
	sd	ra,104(sp)
	sd	s0,96(sp)
	sd	s1,88(sp)
	sd	s2,80(sp)
	.cfi_offset 1, -8
	.cfi_offset 8, -16
	.cfi_offset 9, -24
	.cfi_offset 18, -32
	sd	a0,8(sp)
	.loc 1 719 3
	lla	a5,caml_local_roots
	ld	s2,0(a5)
.LVL391:
	.loc 1 719 3
	.loc 1 719 3
	sd	s2,16(sp)
	addi	a4,sp,16
	sd	a4,0(a5)
	li	a5,1
	sd	a5,32(sp)
	sd	a5,24(sp)
	addi	a5,sp,8
	sd	a5,40(sp)
.LVL392:
	.loc 1 720 3
	.loc 1 720 20 is_stmt 0
	ld	s0,8(a0)
.LVL393:
	.loc 1 721 3 is_stmt 1
	.loc 1 723 3
	ld	a5,caml_channel_mutex_lock
	beq	a5,zero,.L209
	.loc 1 723 3 discriminator 1
	mv	a0,s0
.LVL394:
	jalr	a5
.LVL395:
.L209:
	.loc 1 724 3
	.loc 1 724 7 is_stmt 0
	ld	a5,24(s0)
	ld	a4,32(s0)
	.loc 1 724 5
	bgeu	a5,a4,.L214
	.loc 1 724 7 discriminator 2
	addi	a4,a5,1
	sd	a4,24(s0)
	.loc 1 724 5 discriminator 2
	lbu	s1,0(a5)
.L211:
.LVL396:
	.loc 1 725 3 is_stmt 1 discriminator 4
	ld	a5,caml_channel_mutex_unlock
	beq	a5,zero,.L212
	.loc 1 725 3 discriminator 1
	mv	a0,s0
	jalr	a5
.LVL397:
.L212:
	.loc 1 726 3
.LBB15:
	.loc 1 726 3
	slli	a0,s1,1
.LVL398:
	.loc 1 726 3
	sd	s2,caml_local_roots,a5
	.loc 1 726 3
.LBE15:
	.loc 1 726 3
	.loc 1 727 1 is_stmt 0
	addi	a0,a0,1
.LVL399:
	ld	ra,104(sp)
	.cfi_remember_state
	.cfi_restore 1
	ld	s0,96(sp)
	.cfi_restore 8
.LVL400:
	ld	s1,88(sp)
	.cfi_restore 9
.LVL401:
	ld	s2,80(sp)
	.cfi_restore 18
.LVL402:
	addi	sp,sp,112
	.cfi_def_cfa_offset 0
	jr	ra
.LVL403:
.L214:
	.cfi_restore_state
	.loc 1 724 7 discriminator 1
	mv	a0,s0
	call	caml_refill
.LVL404:
	mv	s1,a0
	j	.L211
	.cfi_endproc
.LFE57:
	.size	caml_ml_input_char, .-caml_ml_input_char
	.align	1
	.globl	caml_ml_input_int
	.type	caml_ml_input_int, @function
caml_ml_input_int:
.LFB58:
	.loc 1 730 1 is_stmt 1
	.cfi_startproc
.LVL405:
	addi	sp,sp,-112
	.cfi_def_cfa_offset 112
	sd	ra,104(sp)
	sd	s0,96(sp)
	sd	s1,88(sp)
	sd	s2,80(sp)
	.cfi_offset 1, -8
	.cfi_offset 8, -16
	.cfi_offset 9, -24
	.cfi_offset 18, -32
	sd	a0,8(sp)
	.loc 1 731 3
	lla	a5,caml_local_roots
	ld	s2,0(a5)
.LVL406:
	.loc 1 731 3
	.loc 1 731 3
	sd	s2,16(sp)
	addi	a4,sp,16
	sd	a4,0(a5)
	li	a5,1
	sd	a5,32(sp)
	sd	a5,24(sp)
	addi	a5,sp,8
	sd	a5,40(sp)
.LVL407:
	.loc 1 732 3
	.loc 1 732 20 is_stmt 0
	ld	s1,8(a0)
.LVL408:
	.loc 1 733 3 is_stmt 1
	.loc 1 735 3
	ld	a5,caml_channel_mutex_lock
	beq	a5,zero,.L216
	.loc 1 735 3 discriminator 1
	mv	a0,s1
.LVL409:
	jalr	a5
.LVL410:
.L216:
	.loc 1 736 3
	.loc 1 736 7 is_stmt 0
	mv	a0,s1
	call	caml_getword
.LVL411:
	.loc 1 736 5
	slli	s0,a0,32
	srli	s0,s0,32
.LVL412:
	.loc 1 737 3 is_stmt 1
	ld	a5,caml_channel_mutex_unlock
	beq	a5,zero,.L217
	.loc 1 737 3 discriminator 1
	mv	a0,s1
	jalr	a5
.LVL413:
.L217:
	.loc 1 739 3
	.loc 1 739 5 is_stmt 0
	sext.w	a0,s0
.LVL414:
	.loc 1 741 3 is_stmt 1
.LBB16:
	.loc 1 741 3
	slli	a0,a0,1
.LVL415:
	.loc 1 741 3
	sd	s2,caml_local_roots,a5
	.loc 1 741 3
.LBE16:
	.loc 1 741 3
	.loc 1 742 1 is_stmt 0
	addi	a0,a0,1
.LVL416:
	ld	ra,104(sp)
	.cfi_restore 1
	ld	s0,96(sp)
	.cfi_restore 8
.LVL417:
	ld	s1,88(sp)
	.cfi_restore 9
.LVL418:
	ld	s2,80(sp)
	.cfi_restore 18
.LVL419:
	addi	sp,sp,112
	.cfi_def_cfa_offset 0
	jr	ra
	.cfi_endproc
.LFE58:
	.size	caml_ml_input_int, .-caml_ml_input_int
	.align	1
	.globl	caml_ml_input
	.type	caml_ml_input, @function
caml_ml_input:
.LFB59:
	.loc 1 746 1 is_stmt 1
	.cfi_startproc
.LVL420:
	addi	sp,sp,-160
	.cfi_def_cfa_offset 160
	sd	ra,152(sp)
	sd	s0,144(sp)
	sd	s1,136(sp)
	sd	s2,128(sp)
	sd	s3,120(sp)
	sd	s4,112(sp)
	sd	s5,104(sp)
	.cfi_offset 1, -8
	.cfi_offset 8, -16
	.cfi_offset 9, -24
	.cfi_offset 18, -32
	.cfi_offset 19, -40
	.cfi_offset 20, -48
	.cfi_offset 21, -56
	sd	a0,24(sp)
	sd	a1,16(sp)
	sd	a2,8(sp)
	sd	a3,0(sp)
	.loc 1 747 3
	lla	a5,caml_local_roots
	ld	s3,0(a5)
.LVL421:
	.loc 1 747 3
	.loc 1 747 3
	sd	s3,32(sp)
	addi	a4,sp,32
	sd	a4,0(a5)
	li	a5,1
	sd	a5,48(sp)
	li	a5,4
	sd	a5,40(sp)
	addi	a5,sp,24
	sd	a5,56(sp)
	addi	a5,sp,16
	sd	a5,64(sp)
	addi	a5,sp,8
	sd	a5,72(sp)
	sd	sp,80(sp)
.LVL422:
	.loc 1 748 3
	.loc 1 748 20 is_stmt 0
	ld	s2,8(a0)
.LVL423:
	.loc 1 749 3 is_stmt 1
	.loc 1 750 3
	.loc 1 752 3
	ld	a5,caml_channel_mutex_lock
	beq	a5,zero,.L220
	.loc 1 752 3 discriminator 1
	mv	a0,s2
.LVL424:
	jalr	a5
.LVL425:
.L220:
	.loc 1 755 3
	.loc 1 755 11 is_stmt 0
	ld	a0,8(sp)
	.loc 1 755 9
	srai	s5,a0,1
.LVL426:
	.loc 1 756 3 is_stmt 1
	.loc 1 756 9 is_stmt 0
	ld	s1,0(sp)
	.loc 1 756 7
	srai	s1,s1,1
.LVL427:
	.loc 1 757 3 is_stmt 1
	.loc 1 757 32 is_stmt 0
	li	a5,-2147483648
	xori	a5,a5,-2
	bgt	s1,a5,.L227
	.loc 1 757 32 discriminator 1
	sext.w	s1,s1
.LVL428:
.L221:
	.loc 1 758 3 is_stmt 1 discriminator 4
	.loc 1 758 18 is_stmt 0 discriminator 4
	ld	s0,32(s2)
	.loc 1 758 33 discriminator 4
	ld	a1,24(s2)
	.loc 1 758 9 discriminator 4
	subw	s0,s0,a1
.LVL429:
	.loc 1 759 3 is_stmt 1 discriminator 4
	.loc 1 759 6 is_stmt 0 discriminator 4
	ble	s1,s0,.L229
	.loc 1 762 10 is_stmt 1
	.loc 1 762 13 is_stmt 0
	ble	s0,zero,.L224
	.loc 1 763 5 is_stmt 1
	mv	a2,s0
	ld	a0,16(sp)
	add	a0,s5,a0
	call	memmove
.LVL430:
	.loc 1 764 5
	.loc 1 764 19 is_stmt 0
	ld	a5,24(s2)
	add	a5,a5,s0
	sd	a5,24(s2)
	.loc 1 765 5 is_stmt 1
.LVL431:
.L223:
	.loc 1 775 3
	ld	a5,caml_channel_mutex_unlock
	beq	a5,zero,.L226
	.loc 1 775 3 discriminator 1
	mv	a0,s2
	jalr	a5
.LVL432:
.L226:
	.loc 1 776 3
.LBB17:
	.loc 1 776 3
	slli	a0,s0,1
.LVL433:
	.loc 1 776 3
	sd	s3,caml_local_roots,a5
	.loc 1 776 3
.LBE17:
	.loc 1 776 3
	.loc 1 777 1 is_stmt 0
	addi	a0,a0,1
.LVL434:
	ld	ra,152(sp)
	.cfi_remember_state
	.cfi_restore 1
	ld	s0,144(sp)
	.cfi_restore 8
.LVL435:
	ld	s1,136(sp)
	.cfi_restore 9
	ld	s2,128(sp)
	.cfi_restore 18
.LVL436:
	ld	s3,120(sp)
	.cfi_restore 19
.LVL437:
	ld	s4,112(sp)
	.cfi_restore 20
	ld	s5,104(sp)
	.cfi_restore 21
.LVL438:
	addi	sp,sp,160
	.cfi_def_cfa_offset 0
	jr	ra
.LVL439:
.L227:
	.cfi_restore_state
	.loc 1 757 32
	li	s1,-2147483648
.LVL440:
	xori	s1,s1,-1
	j	.L221
.LVL441:
.L229:
	.loc 1 760 5 is_stmt 1
	mv	a2,s1
	ld	a0,16(sp)
	add	a0,s5,a0
	call	memmove
.LVL442:
	.loc 1 761 5
	.loc 1 761 19 is_stmt 0
	ld	a5,24(s2)
	add	a5,a5,s1
	sd	a5,24(s2)
	.loc 1 757 5
	mv	s0,s1
.LVL443:
	j	.L223
.LVL444:
.L224:
	.loc 1 767 5 is_stmt 1
	.loc 1 767 62 is_stmt 0
	addi	s4,s2,80
	.loc 1 768 33
	ld	a3,16(s2)
	.loc 1 767 13
	subw	a3,a3,s4
	mv	a2,s4
	lw	a1,76(s2)
	lw	a0,0(s2)
	call	caml_read_fd
.LVL445:
	mv	s0,a0
.LVL446:
	.loc 1 769 5 is_stmt 1
	.loc 1 769 21 is_stmt 0
	ld	a5,8(s2)
	add	a5,a5,a0
	sd	a5,8(s2)
	.loc 1 770 5 is_stmt 1
	.loc 1 770 34 is_stmt 0
	add	a5,s4,a0
	.loc 1 770 18
	sd	a5,32(s2)
	.loc 1 771 5 is_stmt 1
	.loc 1 771 8 is_stmt 0
	bgt	s1,a0,.L225
	.loc 1 757 5
	mv	s0,s1
.L225:
.LVL447:
	.loc 1 772 5 is_stmt 1
	mv	a2,s0
	mv	a1,s4
	ld	a0,16(sp)
.LVL448:
	add	a0,s5,a0
	call	memmove
.LVL449:
	.loc 1 773 5
	.loc 1 773 35 is_stmt 0
	add	s4,s4,s0
	.loc 1 773 19
	sd	s4,24(s2)
	j	.L223
	.cfi_endproc
.LFE59:
	.size	caml_ml_input, .-caml_ml_input
	.align	1
	.globl	caml_ml_seek_in
	.type	caml_ml_seek_in, @function
caml_ml_seek_in:
.LFB60:
	.loc 1 780 1 is_stmt 1
	.cfi_startproc
.LVL450:
	addi	sp,sp,-112
	.cfi_def_cfa_offset 112
	sd	ra,104(sp)
	sd	s0,96(sp)
	sd	s1,88(sp)
	.cfi_offset 1, -8
	.cfi_offset 8, -16
	.cfi_offset 9, -24
	sd	a0,8(sp)
	sd	a1,0(sp)
	.loc 1 781 3
	lla	a5,caml_local_roots
	ld	s1,0(a5)
.LVL451:
	.loc 1 781 3
	.loc 1 781 3
	sd	s1,16(sp)
	addi	a4,sp,16
	sd	a4,0(a5)
	li	a5,1
	sd	a5,32(sp)
	li	a5,2
	sd	a5,24(sp)
	addi	a5,sp,8
	sd	a5,40(sp)
	sd	sp,48(sp)
.LVL452:
	.loc 1 782 3
	.loc 1 782 20 is_stmt 0
	ld	s0,8(a0)
.LVL453:
	.loc 1 784 3 is_stmt 1
	ld	a5,caml_channel_mutex_lock
	beq	a5,zero,.L231
	.loc 1 784 3 discriminator 1
	mv	a0,s0
.LVL454:
	jalr	a5
.LVL455:
.L231:
	.loc 1 785 3
	ld	a1,0(sp)
	srai	a1,a1,1
	mv	a0,s0
	call	caml_seek_in
.LVL456:
	.loc 1 786 3
	ld	a5,caml_channel_mutex_unlock
	beq	a5,zero,.L232
	.loc 1 786 3 discriminator 1
	mv	a0,s0
	jalr	a5
.LVL457:
.L232:
	.loc 1 787 3
.LBB18:
	.loc 1 787 3
	.loc 1 787 3
	sd	s1,caml_local_roots,a5
	.loc 1 787 3
.LBE18:
	.loc 1 787 3
	.loc 1 788 1 is_stmt 0
	li	a0,1
	ld	ra,104(sp)
	.cfi_restore 1
	ld	s0,96(sp)
	.cfi_restore 8
.LVL458:
	ld	s1,88(sp)
	.cfi_restore 9
.LVL459:
	addi	sp,sp,112
	.cfi_def_cfa_offset 0
	jr	ra
	.cfi_endproc
.LFE60:
	.size	caml_ml_seek_in, .-caml_ml_seek_in
	.align	1
	.globl	caml_ml_seek_in_64
	.type	caml_ml_seek_in_64, @function
caml_ml_seek_in_64:
.LFB61:
	.loc 1 791 1 is_stmt 1
	.cfi_startproc
.LVL460:
	addi	sp,sp,-112
	.cfi_def_cfa_offset 112
	sd	ra,104(sp)
	sd	s0,96(sp)
	sd	s1,88(sp)
	.cfi_offset 1, -8
	.cfi_offset 8, -16
	.cfi_offset 9, -24
	sd	a0,8(sp)
	sd	a1,0(sp)
	.loc 1 792 3
	lla	a5,caml_local_roots
	ld	s1,0(a5)
.LVL461:
	.loc 1 792 3
	.loc 1 792 3
	sd	s1,16(sp)
	addi	a4,sp,16
	sd	a4,0(a5)
	li	a5,1
	sd	a5,32(sp)
	li	a5,2
	sd	a5,24(sp)
	addi	a5,sp,8
	sd	a5,40(sp)
	sd	sp,48(sp)
.LVL462:
	.loc 1 793 3
	.loc 1 793 20 is_stmt 0
	ld	s0,8(a0)
.LVL463:
	.loc 1 795 3 is_stmt 1
	ld	a5,caml_channel_mutex_lock
	beq	a5,zero,.L235
	.loc 1 795 3 discriminator 1
	mv	a0,s0
.LVL464:
	jalr	a5
.LVL465:
.L235:
	.loc 1 796 3
	.loc 1 796 25 is_stmt 0
	ld	a0,0(sp)
	call	caml_Int64_val
.LVL466:
	mv	a1,a0
	.loc 1 796 3
	mv	a0,s0
	call	caml_seek_in
.LVL467:
	.loc 1 797 3 is_stmt 1
	ld	a5,caml_channel_mutex_unlock
	beq	a5,zero,.L236
	.loc 1 797 3 discriminator 1
	mv	a0,s0
	jalr	a5
.LVL468:
.L236:
	.loc 1 798 3
.LBB19:
	.loc 1 798 3
	.loc 1 798 3
	sd	s1,caml_local_roots,a5
	.loc 1 798 3
.LBE19:
	.loc 1 798 3
	.loc 1 799 1 is_stmt 0
	li	a0,1
	ld	ra,104(sp)
	.cfi_restore 1
	ld	s0,96(sp)
	.cfi_restore 8
.LVL469:
	ld	s1,88(sp)
	.cfi_restore 9
.LVL470:
	addi	sp,sp,112
	.cfi_def_cfa_offset 0
	jr	ra
	.cfi_endproc
.LFE61:
	.size	caml_ml_seek_in_64, .-caml_ml_seek_in_64
	.align	1
	.globl	caml_ml_pos_in
	.type	caml_ml_pos_in, @function
caml_ml_pos_in:
.LFB62:
	.loc 1 802 1 is_stmt 1
	.cfi_startproc
.LVL471:
	addi	sp,sp,-16
	.cfi_def_cfa_offset 16
	sd	ra,8(sp)
	sd	s0,0(sp)
	.cfi_offset 1, -8
	.cfi_offset 8, -16
	.loc 1 803 3
	.loc 1 803 21 is_stmt 0
	ld	a0,8(a0)
.LVL472:
	call	caml_pos_in
.LVL473:
	mv	s0,a0
.LVL474:
	.loc 1 804 3 is_stmt 1
	.loc 1 804 6 is_stmt 0
	li	a5,-1
	srli	a5,a5,2
	bgt	a0,a5,.L241
.L239:
	.loc 1 805 3 is_stmt 1
	.loc 1 805 10 is_stmt 0
	slli	a0,s0,1
	.loc 1 806 1
	addi	a0,a0,1
	ld	ra,8(sp)
	.cfi_remember_state
	.cfi_restore 1
	ld	s0,0(sp)
	.cfi_restore 8
.LVL475:
	addi	sp,sp,16
	.cfi_def_cfa_offset 0
	jr	ra
.LVL476:
.L241:
	.cfi_restore_state
	.loc 1 804 25 is_stmt 1 discriminator 1
	.loc 1 804 31 is_stmt 0 discriminator 1
	li	a5,4
	sw	a5,errno,a4
	.loc 1 804 44 is_stmt 1 discriminator 1
	li	a0,1
	call	caml_sys_error
.LVL477:
	j	.L239
	.cfi_endproc
.LFE62:
	.size	caml_ml_pos_in, .-caml_ml_pos_in
	.align	1
	.globl	caml_ml_pos_in_64
	.type	caml_ml_pos_in_64, @function
caml_ml_pos_in_64:
.LFB63:
	.loc 1 809 1
	.cfi_startproc
.LVL478:
	addi	sp,sp,-16
	.cfi_def_cfa_offset 16
	sd	ra,8(sp)
	.cfi_offset 1, -8
	.loc 1 810 3
	.loc 1 810 10 is_stmt 0
	ld	a0,8(a0)
.LVL479:
	call	caml_pos_in
.LVL480:
	call	caml_copy_int64
.LVL481:
	.loc 1 811 1
	ld	ra,8(sp)
	.cfi_restore 1
	addi	sp,sp,16
	.cfi_def_cfa_offset 0
	jr	ra
	.cfi_endproc
.LFE63:
	.size	caml_ml_pos_in_64, .-caml_ml_pos_in_64
	.align	1
	.globl	caml_ml_input_scan_line
	.type	caml_ml_input_scan_line, @function
caml_ml_input_scan_line:
.LFB64:
	.loc 1 814 1 is_stmt 1
	.cfi_startproc
.LVL482:
	addi	sp,sp,-112
	.cfi_def_cfa_offset 112
	sd	ra,104(sp)
	sd	s0,96(sp)
	sd	s1,88(sp)
	sd	s2,80(sp)
	.cfi_offset 1, -8
	.cfi_offset 8, -16
	.cfi_offset 9, -24
	.cfi_offset 18, -32
	sd	a0,8(sp)
	.loc 1 815 3
	lla	a5,caml_local_roots
	ld	s2,0(a5)
.LVL483:
	.loc 1 815 3
	.loc 1 815 3
	sd	s2,16(sp)
	addi	a4,sp,16
	sd	a4,0(a5)
	li	a5,1
	sd	a5,32(sp)
	sd	a5,24(sp)
	addi	a5,sp,8
	sd	a5,40(sp)
.LVL484:
	.loc 1 816 3
	.loc 1 816 20 is_stmt 0
	ld	s1,8(a0)
.LVL485:
	.loc 1 817 3 is_stmt 1
	.loc 1 819 3
	ld	a5,caml_channel_mutex_lock
	beq	a5,zero,.L245
	.loc 1 819 3 discriminator 1
	mv	a0,s1
.LVL486:
	jalr	a5
.LVL487:
.L245:
	.loc 1 820 3
	.loc 1 820 9 is_stmt 0
	mv	a0,s1
	call	caml_input_scan_line
.LVL488:
	mv	s0,a0
.LVL489:
	.loc 1 821 3 is_stmt 1
	ld	a5,caml_channel_mutex_unlock
	beq	a5,zero,.L246
	.loc 1 821 3 discriminator 1
	mv	a0,s1
	jalr	a5
.LVL490:
.L246:
	.loc 1 822 3
.LBB20:
	.loc 1 822 3
	slli	a0,s0,1
.LVL491:
	.loc 1 822 3
	sd	s2,caml_local_roots,a5
	.loc 1 822 3
.LBE20:
	.loc 1 822 3
	.loc 1 823 1 is_stmt 0
	addi	a0,a0,1
.LVL492:
	ld	ra,104(sp)
	.cfi_restore 1
	ld	s0,96(sp)
	.cfi_restore 8
.LVL493:
	ld	s1,88(sp)
	.cfi_restore 9
.LVL494:
	ld	s2,80(sp)
	.cfi_restore 18
.LVL495:
	addi	sp,sp,112
	.cfi_def_cfa_offset 0
	jr	ra
	.cfi_endproc
.LFE64:
	.size	caml_ml_input_scan_line, .-caml_ml_input_scan_line
	.align	1
	.globl	caml_terminfo_rows
	.type	caml_terminfo_rows, @function
caml_terminfo_rows:
.LFB65:
	.loc 1 826 1 is_stmt 1
	.cfi_startproc
.LVL496:
	addi	sp,sp,-16
	.cfi_def_cfa_offset 16
	sd	ra,8(sp)
	.cfi_offset 1, -8
	.loc 1 827 3
	.loc 1 827 10 is_stmt 0
	ld	a5,8(a0)
	lw	a0,0(a5)
.LVL497:
	call	caml_num_rows_fd
.LVL498:
	slli	a0,a0,1
	.loc 1 828 1
	addi	a0,a0,1
	ld	ra,8(sp)
	.cfi_restore 1
	addi	sp,sp,16
	.cfi_def_cfa_offset 0
	jr	ra
	.cfi_endproc
.LFE65:
	.size	caml_terminfo_rows, .-caml_terminfo_rows
	.section	.rodata.str1.8
	.align	3
.LC4:
	.string	"_chan"
	.globl	caml_all_opened_channels
	.globl	caml_channel_mutex_unlock_exn
	.globl	caml_channel_mutex_unlock
	.globl	caml_channel_mutex_lock
	.globl	caml_channel_mutex_free
	.comm	caml_major_work_credit,8,8
	.comm	caml_major_ring_index,4,4
	.comm	caml_major_ring,400,8
	.data
	.align	3
	.set	.LANCHOR0,. + 0
	.type	channel_operations, @object
	.size	channel_operations, 56
channel_operations:
	.dword	.LC4
	.dword	caml_finalize_channel
	.dword	compare_channel
	.dword	hash_channel
	.dword	0
	.dword	0
	.dword	0
	.section	.sbss,"aw",@nobits
	.align	3
	.type	caml_all_opened_channels, @object
	.size	caml_all_opened_channels, 8
caml_all_opened_channels:
	.zero	8
	.type	caml_channel_mutex_unlock_exn, @object
	.size	caml_channel_mutex_unlock_exn, 8
caml_channel_mutex_unlock_exn:
	.zero	8
	.type	caml_channel_mutex_unlock, @object
	.size	caml_channel_mutex_unlock, 8
caml_channel_mutex_unlock:
	.zero	8
	.type	caml_channel_mutex_lock, @object
	.size	caml_channel_mutex_lock, 8
caml_channel_mutex_lock:
	.zero	8
	.type	caml_channel_mutex_free, @object
	.size	caml_channel_mutex_free, 8
caml_channel_mutex_free:
	.zero	8
	.text
.Letext0:
	.file 2 "/home/sai/ocaml-freestanding-riscv/nolibc/include/stdio.h"
	.file 3 "/home/sai/Shakti-TEE-Build/riscv/lib/gcc/riscv64-unknown-elf/9.2.0/include/stddef.h"
	.file 4 "/home/sai/ocaml-freestanding-riscv/nolibc/include/errno.h"
	.file 5 "/home/sai/Shakti-TEE-Build/riscv/riscv64-unknown-elf/include/machine/_default_types.h"
	.file 6 "/home/sai/Shakti-TEE-Build/riscv/riscv64-unknown-elf/include/sys/_stdint.h"
	.file 7 "caml/config.h"
	.file 8 "caml/misc.h"
	.file 9 "caml/mlvalues.h"
	.file 10 "caml/custom.h"
	.file 11 "/home/sai/ocaml-freestanding-riscv/nolibc/include/signal.h"
	.file 12 "caml/fail.h"
	.file 13 "caml/io.h"
	.file 14 "caml/freelist.h"
	.file 15 "caml/major_gc.h"
	.file 16 "caml/address_class.h"
	.file 17 "caml/minor_gc.h"
	.file 18 "caml/memory.h"
	.file 19 "caml/signals.h"
	.file 20 "caml/sys.h"
	.file 21 "caml/osdeps.h"
	.file 22 "caml/alloc.h"
	.file 23 "/home/sai/ocaml-freestanding-riscv/nolibc/include/string.h"
	.file 24 "/home/sai/ocaml-freestanding-riscv/nolibc/include/unistd.h"
	.file 25 "<built-in>"