	.file	"md5.c"
	.option nopic
	.attribute arch, "rv64i2p0_m2p0_a2p0_f2p0_d2p0_c2p0"
	.attribute unaligned_access, 0
	.attribute stack_align, 16
	.text
.Ltext0:
	.cfi_sections	.debug_frame
	.align	1
	.globl	caml_MD5Init
	.type	caml_MD5Init, @function
caml_MD5Init:
.LFB16:
	.file 1 "md5.c"
	.loc 1 123 1
	.cfi_startproc
.LVL0:
	.loc 1 124 5
	.loc 1 124 17 is_stmt 0
	li	a5,1732583424
	addi	a5,a5,769
	sw	a5,0(a0)
	.loc 1 125 5 is_stmt 1
	.loc 1 125 17 is_stmt 0
	li	a5,-271732736
	addi	a5,a5,-1143
	sw	a5,4(a0)
	.loc 1 126 5 is_stmt 1
	.loc 1 126 17 is_stmt 0
	li	a5,-1732583424
	addi	a5,a5,-770
	sw	a5,8(a0)
	.loc 1 127 5 is_stmt 1
	.loc 1 127 17 is_stmt 0
	li	a5,271732736
	addi	a5,a5,1142
	sw	a5,12(a0)
	.loc 1 129 5 is_stmt 1
	.loc 1 129 18 is_stmt 0
	sw	zero,16(a0)
	.loc 1 130 5 is_stmt 1
	.loc 1 130 18 is_stmt 0
	sw	zero,20(a0)
	.loc 1 131 1
	ret
	.cfi_endproc
.LFE16:
	.size	caml_MD5Init, .-caml_MD5Init
	.align	1
	.globl	caml_MD5Transform
	.type	caml_MD5Transform, @function
caml_MD5Transform:
.LFB19:
	.loc 1 245 1 is_stmt 1
	.cfi_startproc
.LVL1:
	addi	sp,sp,-96
	.cfi_def_cfa_offset 96
	sd	s0,88(sp)
	sd	s1,80(sp)
	sd	s2,72(sp)
	sd	s3,64(sp)
	sd	s4,56(sp)
	sd	s5,48(sp)
	sd	s6,40(sp)
	sd	s7,32(sp)
	sd	s8,24(sp)
	sd	s9,16(sp)
	sd	s10,8(sp)
	sd	s11,0(sp)
	.cfi_offset 8, -8
	.cfi_offset 9, -16
	.cfi_offset 18, -24
	.cfi_offset 19, -32
	.cfi_offset 20, -40
	.cfi_offset 21, -48
	.cfi_offset 22, -56
	.cfi_offset 23, -64
	.cfi_offset 24, -72
	.cfi_offset 25, -80
	.cfi_offset 26, -88
	.cfi_offset 27, -96
	.loc 1 246 5
	.loc 1 248 5
	.loc 1 248 7 is_stmt 0
	lw	s9,0(a0)
.LVL2:
	.loc 1 249 5 is_stmt 1
	.loc 1 249 7 is_stmt 0
	lw	s5,4(a0)
.LVL3:
	.loc 1 250 5 is_stmt 1
	.loc 1 250 7 is_stmt 0
	lw	s7,8(a0)
.LVL4:
	.loc 1 251 5 is_stmt 1
	.loc 1 251 7 is_stmt 0
	lw	s8,12(a0)
.LVL5:
	.loc 1 253 5 is_stmt 1
	xor	a5,s7,s8
	and	a5,a5,s5
	xor	a5,s8,a5
	lw	s2,0(a1)
	addw	a5,a5,s2
	addw	a5,a5,s9
	li	s4,-680878080
	addiw	s4,s4,1144
	addw	a5,a5,s4
.LVL6:
	slliw	s4,a5,7
	srliw	a5,a5,25
.LVL7:
	or	a5,s4,a5
.LVL8:
	addw	s4,s5,a5
.LVL9:
	.loc 1 254 5
	xor	a4,s7,s5
	and	a4,a4,s4
	sext.w	a4,a4
	xor	a4,s7,a4
	lw	t4,4(a1)
	addw	a4,a4,t4
	addw	a4,a4,s8
	li	s3,-389566464
	addiw	s3,s3,1878
	addw	a4,a4,s3
.LVL10:
	slliw	s3,a4,12
	srliw	a4,a4,20
.LVL11:
	or	a4,s3,a4
.LVL12:
	addw	s3,s4,a4
.LVL13:
	.loc 1 255 5
	xor	a5,s5,s4
	sext.w	a5,a5
	and	a5,a5,s3
	sext.w	a5,a5
	xor	a5,s5,a5
	lw	a3,8(a1)
	addw	a5,a5,a3
	addw	a5,a5,s7
	li	s6,606105600
	addiw	s6,s6,219
	addw	a5,a5,s6
.LVL14:
	srliw	s6,a5,15
	slliw	a5,a5,17
.LVL15:
	or	a5,s6,a5
.LVL16:
	addw	s6,s3,a5
.LVL17:
	.loc 1 256 5
	xor	a4,s4,s3
	sext.w	a4,a4
	and	a4,a4,s6
	sext.w	a4,a4
	xor	a4,a4,s4
	lw	t6,12(a1)
	addw	a4,a4,t6
	addw	a4,a4,s5
	li	s10,-1044525056
	addiw	s10,s10,-274
	addw	a4,a4,s10
.LVL18:
	srliw	s10,a4,10
	slliw	a4,a4,22
.LVL19:
	or	a4,s10,a4
.LVL20:
	addw	s10,s6,a4
.LVL21:
	.loc 1 257 5
	xor	a2,s3,s6
	sext.w	a2,a2
	and	a2,a2,s10
	sext.w	a2,a2
	xor	a2,a2,s3
	lw	a6,16(a1)
	addw	a2,a2,a6
	addw	a2,a2,s4
	li	s4,-176418816
.LVL22:
	addiw	s4,s4,-81
	addw	a2,a2,s4
.LVL23:
	slliw	s4,a2,7
	srliw	a2,a2,25
.LVL24:
	or	a2,s4,a2
.LVL25:
	addw	s4,s10,a2
.LVL26:
	.loc 1 258 5
	xor	a5,s6,s10
	sext.w	a5,a5
	and	a5,a5,s4
	sext.w	a5,a5
	xor	a5,a5,s6
	lw	t2,20(a1)
	addw	a5,a5,t2
	addw	a5,a5,s3
	li	s3,1200078848
.LVL27:
	addiw	s3,s3,1578
	addw	a5,a5,s3
.LVL28:
	slliw	s3,a5,12
	srliw	a5,a5,20
.LVL29:
	or	a5,s3,a5
.LVL30:
	addw	s3,s4,a5
.LVL31:
	.loc 1 259 5
	xor	a4,s10,s4
	sext.w	a4,a4
	and	a4,a4,s3
	sext.w	a4,a4
	xor	a4,a4,s10
	lw	t1,24(a1)
	addw	a4,a4,t1
	addw	a4,a4,s6
	li	s6,-1473232896
.LVL32:
	addiw	s6,s6,1555
	addw	a4,a4,s6
.LVL33:
	srliw	s6,a4,15
	slliw	a4,a4,17
.LVL34:
	or	a4,s6,a4
.LVL35:
	addw	s6,s3,a4
.LVL36:
	.loc 1 260 5
	xor	a5,s4,s3
	sext.w	a5,a5
	and	a5,a5,s6
	sext.w	a5,a5
	xor	a5,a5,s4
	lw	s1,28(a1)
	addw	a5,a5,s1
	addw	a5,a5,s10
	li	s10,-45707264
.LVL37:
	addiw	s10,s10,1281
	addw	a5,a5,s10
.LVL38:
	srliw	s10,a5,10
	slliw	a5,a5,22
.LVL39:
	or	a5,s10,a5
.LVL40:
	addw	s10,s6,a5
.LVL41:
	.loc 1 261 5
	xor	a4,s3,s6
	sext.w	a4,a4
	and	a4,a4,s10
	sext.w	a4,a4
	xor	a4,a4,s3
	lw	t3,32(a1)
	addw	a4,a4,t3
	addw	a4,a4,s4
	li	s4,1770037248
.LVL42:
	addiw	s4,s4,-1832
	addw	a4,a4,s4
.LVL43:
	slliw	s4,a4,7
	srliw	a4,a4,25
.LVL44:
	or	a4,s4,a4
.LVL45:
	addw	s4,s10,a4
.LVL46:
	.loc 1 262 5
	xor	a2,s6,s10
	sext.w	a2,a2
	and	a2,a2,s4
	sext.w	a2,a2
	xor	a2,a2,s6
	lw	a4,36(a1)
	addw	a2,a2,a4
	addw	a2,a2,s3
	li	s3,-1958416384
.LVL47:
	addiw	s3,s3,1967
	addw	a2,a2,s3
.LVL48:
	slliw	s3,a2,12
	srliw	a2,a2,20
.LVL49:
	or	a2,s3,a2
.LVL50:
	addw	s3,s4,a2
.LVL51:
	.loc 1 263 5
	xor	a2,s10,s4
	sext.w	a2,a2
	and	a2,a2,s3
	sext.w	a2,a2
	xor	a2,a2,s10
	lw	t5,40(a1)
	addw	a2,a2,t5
	addw	a2,a2,s6
	li	s6,-40960
.LVL52:
	addiw	s6,s6,-1103
	addw	a2,a2,s6
.LVL53:
	srliw	s6,a2,15
	slliw	a2,a2,17
.LVL54:
	or	a2,s6,a2
.LVL55:
	addw	s6,s3,a2
.LVL56:
	.loc 1 264 5
	xor	a7,s4,s3
	sext.w	a7,a7
	and	a7,a7,s6
	sext.w	a7,a7
	xor	a7,a7,s4
	lw	a2,44(a1)
	addw	a7,a7,a2
	addw	a7,a7,s10
	li	s10,-1990406144
.LVL57:
	addiw	s10,s10,1982
	addw	a7,a7,s10
.LVL58:
	srliw	s10,a7,10
	slliw	a7,a7,22
.LVL59:
	or	a7,s10,a7
.LVL60:
	addw	s10,s6,a7
.LVL61:
	.loc 1 265 5
	xor	a5,s3,s6
	sext.w	a5,a5
	and	a5,a5,s10
	sext.w	a5,a5
	xor	a5,a5,s3
	lw	t0,48(a1)
	addw	a5,a5,t0
	addw	a5,a5,s4
	li	s4,1804603392
.LVL62:
	addiw	s4,s4,290
	addw	a5,a5,s4
.LVL63:
	slliw	s4,a5,7
	srliw	a5,a5,25
.LVL64:
	or	a5,s4,a5
.LVL65:
	addw	s4,s10,a5
.LVL66:
	.loc 1 266 5
	xor	a5,s6,s10
	sext.w	a5,a5
	and	a5,a5,s4
	sext.w	a5,a5
	xor	a5,a5,s6
	lw	a7,52(a1)
	addw	a5,a5,a7
	addw	a5,a5,s3
	li	s3,-40341504
.LVL67:
	addiw	s3,s3,403
	addw	a5,a5,s3
.LVL68:
	slliw	s3,a5,12
	srliw	a5,a5,20
.LVL69:
	or	a5,s3,a5
.LVL70:
	addw	s3,s4,a5
.LVL71:
	.loc 1 267 5
	xor	a5,s10,s4
	sext.w	a5,a5
	and	a5,a5,s3
	sext.w	a5,a5
	xor	a5,a5,s10
	lw	s0,56(a1)
	addw	a5,a5,s0
	addw	a5,a5,s6
	li	s6,-1502003200
.LVL72:
	addiw	s6,s6,910
	addw	a5,a5,s6
.LVL73:
	srliw	s6,a5,15
	slliw	a5,a5,17
.LVL74:
	or	a5,s6,a5
.LVL75:
	addw	s6,s3,a5
.LVL76:
	.loc 1 268 5
	xor	a5,s4,s3
	sext.w	a5,a5
	and	a5,a5,s6
	sext.w	a5,a5
	xor	a5,a5,s4
	lw	a1,60(a1)
.LVL77:
	addw	a5,a5,a1
	addw	a5,a5,s10
	li	s10,1236537344
.LVL78:
	addiw	s10,s10,-2015
	addw	a5,a5,s10
.LVL79:
	srliw	s10,a5,10
	slliw	a5,a5,22
.LVL80:
	or	a5,s10,a5
.LVL81:
	addw	s10,s6,a5
.LVL82:
	.loc 1 270 5
	xor	s11,s6,s10
	sext.w	s11,s11
	and	s11,s11,s3
	sext.w	s11,s11
	xor	s11,s11,s6
	addw	s11,t4,s11
	addw	s11,s11,s4
	li	s4,-165797888
.LVL83:
	addiw	s4,s4,1378
	addw	s11,s11,s4
.LVL84:
	slliw	s4,s11,5
	srliw	s11,s11,27
.LVL85:
	or	s11,s4,s11
.LVL86:
	addw	s4,s10,s11
.LVL87:
	.loc 1 271 5
	xor	s11,s10,s4
	sext.w	s11,s11
	and	s11,s11,s6
	sext.w	s11,s11
	xor	s11,s11,s10
	addw	s11,t1,s11
	addw	s11,s11,s3
	li	s3,-1069502464
.LVL88:
	addiw	s3,s3,832
	addw	s11,s11,s3
.LVL89:
	slliw	s3,s11,9
	srliw	s11,s11,23
.LVL90:
	or	s11,s3,s11
.LVL91:
	addw	s3,s4,s11
.LVL92:
	.loc 1 272 5
	xor	s11,s4,s3
	sext.w	s11,s11
	and	s11,s11,s10
	sext.w	s11,s11
	xor	s11,s11,s4
	addw	s11,a2,s11
	addw	s11,s11,s6
	li	s6,643719168
.LVL93:
	addiw	s6,s6,-1455
	addw	s11,s11,s6
.LVL94:
	slliw	s6,s11,14
	srliw	s11,s11,18
.LVL95:
	or	s11,s6,s11
.LVL96:
	addw	s6,s3,s11
.LVL97:
	.loc 1 273 5
	xor	s11,s3,s6
	sext.w	s11,s11
	and	s11,s11,s4
	sext.w	s11,s11
	xor	s11,s11,s3
	addw	s11,s2,s11
	addw	s11,s11,s10
	li	s10,-373899264
.LVL98:
	addiw	s10,s10,1962
	addw	s11,s11,s10
.LVL99:
	srliw	s10,s11,12
	slliw	s11,s11,20
.LVL100:
	or	s11,s10,s11
.LVL101:
	addw	s10,s6,s11
.LVL102:
	.loc 1 274 5
	xor	a5,s6,s10
	sext.w	a5,a5
	and	a5,a5,s3
	sext.w	a5,a5
	xor	a5,a5,s6
	addw	a5,t2,a5
	addw	a5,a5,s4
	li	s4,-701558784
.LVL103:
	addiw	s4,s4,93
	addw	a5,a5,s4
.LVL104:
	slliw	s4,a5,5
	srliw	a5,a5,27
.LVL105:
	or	a5,s4,a5
.LVL106:
	addw	s4,s10,a5
.LVL107:
	.loc 1 275 5
	xor	a5,s10,s4
	sext.w	a5,a5
	and	a5,a5,s6
	sext.w	a5,a5
	xor	a5,a5,s10
	addw	a5,t5,a5
	addw	a5,a5,s3
	li	s3,38014976
.LVL108:
	addiw	s3,s3,1107
	addw	a5,a5,s3
.LVL109:
	slliw	s3,a5,9
	srliw	a5,a5,23
.LVL110:
	or	a5,s3,a5
.LVL111:
	addw	s3,s4,a5
.LVL112:
	.loc 1 276 5
	xor	a5,s4,s3
	sext.w	a5,a5
	and	a5,a5,s10
	sext.w	a5,a5
	xor	a5,a5,s4
	addw	a5,a1,a5
	addw	a5,a5,s6
	li	s6,-660480000
.LVL113:
	addiw	s6,s6,1665
	addw	a5,a5,s6
.LVL114:
	slliw	s6,a5,14
	srliw	a5,a5,18
.LVL115:
	or	a5,s6,a5
.LVL116:
	addw	s6,s3,a5
.LVL117:
	.loc 1 277 5
	xor	a5,s3,s6
	sext.w	a5,a5
	and	a5,a5,s4
	sext.w	a5,a5
	xor	a5,a5,s3
	addw	a5,a6,a5
	addw	a5,a5,s10
	li	s10,-405536768
.LVL118:
	addiw	s10,s10,-1080
	addw	a5,a5,s10
.LVL119:
	srliw	s10,a5,12
	slliw	a5,a5,20
.LVL120:
	or	a5,s10,a5
.LVL121:
	addw	s10,s6,a5
.LVL122:
	.loc 1 278 5
	xor	s11,s6,s10
	sext.w	s11,s11
	and	s11,s11,s3
	sext.w	s11,s11
	xor	s11,s11,s6
	addw	s11,a4,s11
	addw	s11,s11,s4
	li	s4,568446976
.LVL123:
	addiw	s4,s4,-538
	addw	s11,s11,s4
.LVL124:
	slliw	s4,s11,5
	srliw	s11,s11,27
.LVL125:
	or	s11,s4,s11
.LVL126:
	addw	s4,s10,s11
.LVL127:
	.loc 1 279 5
	xor	s11,s10,s4
	sext.w	s11,s11
	and	s11,s11,s6
	sext.w	s11,s11
	xor	s11,s11,s10
	addw	s11,s0,s11
	addw	s11,s11,s3
	li	s3,-1019805696
.LVL128:
	addiw	s3,s3,2006
	addw	s11,s11,s3
.LVL129:
	slliw	s3,s11,9
	srliw	s11,s11,23
.LVL130:
	or	s11,s3,s11
.LVL131:
	addw	s3,s4,s11
.LVL132:
	.loc 1 280 5
	xor	s11,s4,s3
	sext.w	s11,s11
	and	s11,s11,s10
	sext.w	s11,s11
	xor	s11,s11,s4
	addw	s11,t6,s11
	addw	s11,s11,s6
	li	s6,-187363328
.LVL133:
	addiw	s6,s6,-633
	addw	s11,s11,s6
.LVL134:
	slliw	s6,s11,14
	srliw	s11,s11,18
.LVL135:
	or	s11,s6,s11
.LVL136:
	addw	s6,s3,s11
.LVL137:
	.loc 1 281 5
	xor	s11,s3,s6
	sext.w	s11,s11
	and	s11,s11,s4
	sext.w	s11,s11
	xor	s11,s11,s3
	addw	s11,t3,s11
	addw	s11,s11,s10
	li	s10,1163530240
.LVL138:
	addiw	s10,s10,1261
	addw	s11,s11,s10
.LVL139:
	srliw	s10,s11,12
	slliw	s11,s11,20
.LVL140:
	or	s11,s10,s11
.LVL141:
	addw	s10,s6,s11
.LVL142:
	.loc 1 282 5
	xor	a5,s6,s10
	sext.w	a5,a5
	and	a5,a5,s3
	sext.w	a5,a5
	xor	a5,a5,s6
	addw	a5,a7,a5
	addw	a5,a5,s4
	li	s4,-1444679680
.LVL143:
	addiw	s4,s4,-1787
	addw	a5,a5,s4
.LVL144:
	slliw	s4,a5,5
	srliw	a5,a5,27
.LVL145:
	or	a5,s4,a5
.LVL146:
	addw	s4,s10,a5
.LVL147:
	.loc 1 283 5
	xor	a5,s10,s4
	sext.w	a5,a5
	and	a5,a5,s6
	sext.w	a5,a5
	xor	a5,a5,s10
	addw	a5,a3,a5
	addw	a5,a5,s3
	li	s3,-51404800
.LVL148:
	addiw	s3,s3,1016
	addw	a5,a5,s3
.LVL149:
	slliw	s3,a5,9
	srliw	a5,a5,23
.LVL150:
	or	a5,s3,a5
.LVL151:
	addw	s3,s4,a5
.LVL152:
	.loc 1 284 5
	xor	a5,s4,s3
	sext.w	a5,a5
	and	a5,a5,s10
	sext.w	a5,a5
	xor	a5,a5,s4
	addw	a5,s1,a5
	addw	a5,a5,s6
	li	s6,1735327744
.LVL153:
	addiw	s6,s6,729
	addw	a5,a5,s6
.LVL154:
	slliw	s6,a5,14
	srliw	a5,a5,18
.LVL155:
	or	a5,s6,a5
.LVL156:
	addw	s6,s3,a5
.LVL157:
	.loc 1 285 5
	xor	a5,s3,s6
	sext.w	a5,a5
	and	a5,a5,s4
	sext.w	a5,a5
	xor	a5,a5,s3
	addw	a5,t0,a5
	addw	a5,a5,s10
	li	s10,-1926606848
.LVL158:
	addiw	s10,s10,-886
	addw	a5,a5,s10
.LVL159:
	srliw	s10,a5,12
	slliw	a5,a5,20
.LVL160:
	or	a5,s10,a5
.LVL161:
	addw	a5,s6,a5
.LVL162:
	.loc 1 287 5
	xor	s10,s6,a5
	sext.w	s10,s10
	xor	s10,s10,s3
	addw	s10,t2,s10
	addw	s4,s10,s4
.LVL163:
	li	s10,-376832
	addiw	s10,s10,-1726
	addw	s4,s4,s10
.LVL164:
	slliw	s10,s4,4
	srliw	s4,s4,28
.LVL165:
	or	s4,s10,s4
.LVL166:
	addw	s10,a5,s4
.LVL167:
	.loc 1 288 5
	xor	s4,a5,s10
	sext.w	s4,s4
	xor	s4,s4,s6
	addw	s4,t3,s4
	addw	s3,s4,s3
.LVL168:
	li	s4,-2022576128
	addiw	s4,s4,1665
	addw	s3,s3,s4
.LVL169:
	slliw	s4,s3,11
	srliw	s3,s3,21
.LVL170:
	or	s3,s4,s3
.LVL171:
	addw	s4,s10,s3
.LVL172:
	.loc 1 289 5
	xor	s3,s10,s4
	sext.w	s3,s3
	xor	s3,s3,a5
	addw	s3,a2,s3
	addw	s6,s3,s6
.LVL173:
	li	s3,1839030272
	addiw	s3,s3,290
	addw	s6,s6,s3
.LVL174:
	slliw	s3,s6,16
	srliw	s6,s6,16
.LVL175:
	or	s6,s3,s6
.LVL176:
	addw	s6,s4,s6
.LVL177:
	.loc 1 290 5
	xor	s3,s4,s6
	sext.w	s3,s3
	xor	s3,s3,s10
	addw	s3,s0,s3
	addw	a5,s3,a5
.LVL178:
	li	s3,-35307520
	addiw	s3,s3,-2036
	addw	a5,a5,s3
.LVL179:
	srliw	s3,a5,9
	slliw	a5,a5,23
.LVL180:
	or	a5,s3,a5
.LVL181:
	addw	a5,s6,a5
.LVL182:
	.loc 1 291 5
	xor	s3,s6,a5
	sext.w	s3,s3
	xor	s3,s3,s4
	addw	s3,t4,s3
	addw	s10,s3,s10
.LVL183:
	li	s3,-1530990592
	addiw	s3,s3,-1468
	addw	s10,s10,s3
.LVL184:
	slliw	s3,s10,4
	srliw	s10,s10,28
.LVL185:
	or	s10,s3,s10
.LVL186:
	addw	s3,a5,s10
.LVL187:
	.loc 1 292 5
	xor	s10,a5,s3
	sext.w	s10,s10
	xor	s10,s10,s6
	addw	s10,a6,s10
	addw	s4,s10,s4
.LVL188:
	li	s10,1272893440
	addiw	s10,s10,-87
	addw	s4,s4,s10
.LVL189:
	slliw	s10,s4,11
	srliw	s4,s4,21
.LVL190:
	or	s4,s10,s4
.LVL191:
	addw	s10,s3,s4
.LVL192:
	.loc 1 293 5
	xor	s4,s3,s10
	sext.w	s4,s4
	xor	s4,s4,a5
	addw	s4,s1,s4
	addw	s6,s4,s6
.LVL193:
	li	s4,-155496448
	addiw	s4,s4,-1184
	addw	s6,s6,s4
.LVL194:
	slliw	s4,s6,16
	srliw	s6,s6,16
.LVL195:
	or	s6,s4,s6
.LVL196:
	addw	s4,s10,s6
.LVL197:
	.loc 1 294 5
	xor	s6,s10,s4
	sext.w	s6,s6
	xor	s6,s6,s3
	addw	s6,t5,s6
	addw	a5,s6,a5
.LVL198:
	li	s6,-1094729728
	addiw	s6,s6,-912
	addw	a5,a5,s6
.LVL199:
	srliw	s6,a5,9
	slliw	a5,a5,23
.LVL200:
	or	a5,s6,a5
.LVL201:
	addw	a5,s4,a5
.LVL202:
	.loc 1 295 5
	xor	s11,s4,a5
	sext.w	s11,s11
	xor	s11,s11,s10
	addw	s11,a7,s11
	addw	s3,s11,s3
.LVL203:
	li	s11,681279488
	addiw	s11,s11,-314
	addw	s3,s3,s11
.LVL204:
	slliw	s11,s3,4
	srliw	s3,s3,28
.LVL205:
	or	s3,s11,s3
.LVL206:
	addw	s11,a5,s3
.LVL207:
	.loc 1 296 5
	xor	s3,a5,s11
	sext.w	s3,s3
	xor	s3,s3,s4
	addw	s3,s2,s3
	addw	s10,s3,s10
.LVL208:
	li	s3,-358539264
	addiw	s3,s3,2042
	addw	s10,s10,s3
.LVL209:
	slliw	s3,s10,11
	srliw	s10,s10,21
.LVL210:
	or	s10,s3,s10
.LVL211:
	addw	s3,s11,s10
.LVL212:
	.loc 1 297 5
	xor	s6,s11,s3
	sext.w	s6,s6
	xor	s6,s6,a5
	addw	s6,t6,s6
	addw	s4,s6,s4
.LVL213:
	li	s6,-722522112
	addiw	s6,s6,133
	addw	s4,s4,s6
.LVL214:
	slliw	s6,s4,16
	srliw	s4,s4,16
.LVL215:
	or	s4,s6,s4
.LVL216:
	addw	s6,s3,s4
.LVL217:
	.loc 1 298 5
	xor	s10,s3,s6
	sext.w	s10,s10
	xor	s10,s10,s11
	addw	s10,t1,s10
	addw	a5,s10,a5
.LVL218:
	li	s10,76029952
	addiw	s10,s10,-763
	addw	a5,a5,s10
.LVL219:
	srliw	s10,a5,9
	slliw	a5,a5,23
.LVL220:
	or	a5,s10,a5
.LVL221:
	addw	s10,s6,a5
.LVL222:
	.loc 1 299 5
	xor	s4,s6,s10
	sext.w	s4,s4
	xor	s4,s4,s3
	addw	s4,a4,s4
	addw	s11,s4,s11
.LVL223:
	li	s4,-640364544
	addiw	s4,s4,57
	addw	s11,s11,s4
.LVL224:
	slliw	s4,s11,4
	srliw	s11,s11,28
.LVL225:
	or	s11,s4,s11
.LVL226:
	addw	s4,s10,s11
.LVL227:
	.loc 1 300 5
	xor	a5,s10,s4
	sext.w	a5,a5
	xor	a5,a5,s6
	addw	a5,t0,a5
	addw	s3,a5,s3
.LVL228:
	li	a5,-421814272
	addiw	a5,a5,-1563
	addw	s3,s3,a5
.LVL229:
	slliw	a5,s3,11
	srliw	s3,s3,21
.LVL230:
	or	s3,a5,s3
.LVL231:
	addw	s3,s4,s3
.LVL232:
	.loc 1 301 5
	xor	a5,s4,s3
	sext.w	a5,a5
	xor	a5,a5,s10
	addw	a5,a1,a5
	addw	s6,a5,s6
.LVL233:
	li	a5,530743296
	addiw	a5,a5,-776
	addw	s6,s6,a5
.LVL234:
	slliw	a5,s6,16
	srliw	s6,s6,16
.LVL235:
	or	s6,a5,s6
.LVL236:
	addw	s6,s3,s6
.LVL237:
	.loc 1 302 5
	xor	a5,s3,s6
	sext.w	a5,a5
	xor	a5,a5,s4
	addw	a5,a3,a5
	addw	s10,a5,s10
.LVL238:
	li	a5,-995340288
	addiw	a5,a5,1637
	addw	a5,s10,a5
.LVL239:
	srliw	s10,a5,9
	slliw	a5,a5,23
.LVL240:
	or	a5,s10,a5
.LVL241:
	addw	s10,s6,a5
.LVL242:
	.loc 1 304 5
	not	a5,s3
	sext.w	a5,a5
	or	a5,a5,s10
	sext.w	a5,a5
	xor	a5,a5,s6
	addw	s2,s2,a5
	addw	s4,s2,s4
.LVL243:
	li	s2,-198631424
	addiw	s2,s2,580
	addw	s2,s4,s2
.LVL244:
	slliw	s4,s2,6
	srliw	s2,s2,26
.LVL245:
	or	s2,s4,s2
.LVL246:
	addw	s4,s10,s2
.LVL247:
	.loc 1 305 5
	not	a5,s6
	sext.w	a5,a5
	or	a5,a5,s4
	sext.w	a5,a5
	xor	a5,a5,s10
	addw	s1,s1,a5
	addw	s3,s1,s3
.LVL248:
	li	s1,1126891520
	addiw	s1,s1,-105
	addw	s3,s3,s1
.LVL249:
	slliw	s2,s3,10
	srliw	s3,s3,22
.LVL250:
	or	s3,s2,s3
.LVL251:
	addw	s2,s4,s3
.LVL252:
	.loc 1 306 5
	not	a5,s10
	sext.w	a5,a5
	or	a5,a5,s2
	sext.w	a5,a5
	xor	a5,a5,s4
	addw	s0,s0,a5
	addw	s6,s0,s6
.LVL253:
	li	s0,-1416355840
	addiw	s0,s0,935
	addw	s6,s6,s0
.LVL254:
	slliw	s1,s6,15
	srliw	s6,s6,17
.LVL255:
	or	s6,s1,s6
.LVL256:
	addw	s1,s2,s6
.LVL257:
	.loc 1 307 5
	not	a5,s4
	sext.w	a5,a5
	or	a5,a5,s1
	sext.w	a5,a5
	xor	a5,a5,s2
	addw	t2,t2,a5
	addw	s10,t2,s10
.LVL258:
	li	t2,-57434112
	addiw	t2,t2,57
	addw	s10,s10,t2
.LVL259:
	srliw	s0,s10,11
	slliw	s10,s10,21
.LVL260:
	or	s10,s0,s10
.LVL261:
	addw	s0,s1,s10
.LVL262:
	.loc 1 308 5
	not	a5,s2
	sext.w	a5,a5
	or	a5,a5,s0
	sext.w	a5,a5
	xor	a5,a5,s1
	addw	a5,t0,a5
	addw	a5,a5,s4
	li	t0,1700487168
	addiw	t0,t0,-1597
	addw	a5,a5,t0
.LVL263:
	slliw	t0,a5,6
	srliw	a5,a5,26
.LVL264:
	or	a5,t0,a5
.LVL265:
	addw	t0,s0,a5
.LVL266:
	.loc 1 309 5
	not	t2,s1
	sext.w	t2,t2
	or	t2,t2,t0
	sext.w	t2,t2
	xor	t2,t2,s0
	addw	t2,t6,t2
	addw	t2,t2,s2
	li	t6,-1894985728
	addiw	t6,t6,-878
	addw	t2,t2,t6
.LVL267:
	slliw	t6,t2,10
	srliw	t2,t2,22
.LVL268:
	or	t2,t6,t2
.LVL269:
	addw	t6,t0,t2
.LVL270:
	.loc 1 310 5
	not	a5,s0
	sext.w	a5,a5
	or	a5,a5,t6
	sext.w	a5,a5
	xor	a5,a5,t0
	addw	a5,t5,a5
	addw	a5,a5,s1
	li	t5,-1052672
	addiw	t5,t5,1149
	addw	a5,a5,t5
.LVL271:
	slliw	t5,a5,15
	srliw	a5,a5,17
.LVL272:
	or	a5,t5,a5
.LVL273:
	addw	t5,t6,a5
.LVL274:
	.loc 1 311 5
	not	a5,t0
	sext.w	a5,a5
	or	a5,a5,t5
	sext.w	a5,a5
	xor	a5,a5,t6
	addw	t4,t4,a5
	addw	t4,t4,s0
	li	a5,-2054922240
	addiw	a5,a5,-559
	addw	t4,t4,a5
.LVL275:
	srliw	a5,t4,11
	slliw	t4,t4,21
.LVL276:
	or	t4,a5,t4
.LVL277:
	addw	a5,t5,t4
.LVL278:
	.loc 1 312 5
	not	t4,t6
	sext.w	t4,t4
	or	t4,t4,a5
	sext.w	t4,t4
	xor	t4,t4,t5
	addw	t3,t3,t4
	addw	t3,t3,t0
	li	t4,1873313792
	addiw	t4,t4,-433
	addw	t3,t3,t4
.LVL279:
	slliw	t4,t3,6
	srliw	t3,t3,26
.LVL280:
	or	t3,t4,t3
.LVL281:
	addw	t3,a5,t3
.LVL282:
	.loc 1 313 5
	not	t4,t5
	sext.w	t4,t4
	or	t4,t4,t3
	sext.w	t4,t4
	xor	t4,t4,a5
	addw	a1,a1,t4
	addw	a1,a1,t6
	li	t4,-30613504
	addiw	t4,t4,1760
	addw	a1,a1,t4
.LVL283:
	slliw	t4,a1,10
	srliw	a1,a1,22
.LVL284:
	or	a1,t4,a1
.LVL285:
	addw	a1,t3,a1
.LVL286:
	.loc 1 314 5
	not	t4,a5
	sext.w	t4,t4
	or	t4,t4,a1
	sext.w	t4,t4
	xor	t4,t4,t3
	addw	t1,t1,t4
	addw	t1,t1,t5
	li	t4,-1560199168
	addiw	t4,t4,788
	addw	t1,t1,t4
.LVL287:
	slliw	t4,t1,15
	srliw	t1,t1,17
.LVL288:
	or	t1,t4,t1
.LVL289:
	addw	t1,a1,t1
.LVL290:
	.loc 1 315 5
	not	t4,t3
	sext.w	t4,t4
	or	t4,t4,t1
	sext.w	t4,t4
	xor	t4,t4,a1
	addw	a7,a7,t4
	addw	a7,a7,a5
	li	a5,1309151232
.LVL291:
	addiw	a5,a5,417
	addw	a7,a7,a5
.LVL292:
	srliw	a5,a7,11
	slliw	a7,a7,21
.LVL293:
	or	a7,a5,a7
.LVL294:
	addw	a7,t1,a7
.LVL295:
	.loc 1 316 5
	not	a5,a1
	sext.w	a5,a5
	or	a5,a5,a7
	sext.w	a5,a5
	xor	a5,a5,t1
	addw	a6,a6,a5
	addw	a6,a6,t3
	li	a5,-145522688
	addiw	a5,a5,-382
	addw	a6,a6,a5
.LVL296:
	slliw	a5,a6,6
	srliw	a6,a6,26
.LVL297:
	or	a6,a5,a6
.LVL298:
	addw	a6,a7,a6
.LVL299:
	.loc 1 317 5
	not	a5,t1
	sext.w	a5,a5
	or	a5,a5,a6
	sext.w	a5,a5
	xor	a5,a5,a7
	addw	a2,a2,a5
	addw	a2,a2,a1
	li	a5,-1120210944
	addiw	a5,a5,565
	addw	a2,a2,a5
.LVL300:
	slliw	a5,a2,10
	srliw	a2,a2,22
.LVL301:
	or	a2,a5,a2
.LVL302:
	addw	a2,a6,a2
.LVL303:
	.loc 1 318 5
	not	a5,a7
	sext.w	a5,a5
	or	a5,a5,a2
	sext.w	a5,a5
	xor	a5,a5,a6
	addw	a3,a3,a5
	addw	a3,a3,t1
	li	a5,718786560
	addiw	a5,a5,699
	addw	a3,a3,a5
.LVL304:
	slliw	a5,a3,15
	srliw	a3,a3,17
.LVL305:
	or	a3,a5,a3
.LVL306:
	addw	a3,a2,a3
.LVL307:
	.loc 1 319 5
	not	a5,a6
	sext.w	a5,a5
	or	a5,a5,a3
	sext.w	a5,a5
	xor	a5,a5,a2
	addw	a4,a4,a5
	addw	a4,a4,a7
	li	a5,-343486464
	addiw	a5,a5,913
	addw	a4,a4,a5
.LVL308:
	srliw	a5,a4,11
	slliw	a4,a4,21
.LVL309:
	or	a4,a5,a4
.LVL310:
	addw	a4,a3,a4
.LVL311:
	.loc 1 321 5
	.loc 1 321 12 is_stmt 0
	addw	a6,s9,a6
.LVL312:
	sw	a6,0(a0)
	.loc 1 322 5 is_stmt 1
	.loc 1 322 12 is_stmt 0
	addw	s5,s5,a4
	sw	s5,4(a0)
	.loc 1 323 5 is_stmt 1
	.loc 1 323 12 is_stmt 0
	addw	s7,s7,a3
	sw	s7,8(a0)
	.loc 1 324 5 is_stmt 1
	.loc 1 324 12 is_stmt 0
	addw	a2,s8,a2
.LVL313:
	sw	a2,12(a0)
	.loc 1 325 1
	ld	s0,88(sp)
	.cfi_restore 8
	ld	s1,80(sp)
	.cfi_restore 9
	ld	s2,72(sp)
	.cfi_restore 18
	ld	s3,64(sp)
	.cfi_restore 19
	ld	s4,56(sp)
	.cfi_restore 20
	ld	s5,48(sp)
	.cfi_restore 21
	ld	s6,40(sp)
	.cfi_restore 22
	ld	s7,32(sp)
	.cfi_restore 23
	ld	s8,24(sp)
	.cfi_restore 24
	ld	s9,16(sp)
	.cfi_restore 25
	ld	s10,8(sp)
	.cfi_restore 26
	ld	s11,0(sp)
	.cfi_restore 27
	addi	sp,sp,96
	.cfi_def_cfa_offset 0
	jr	ra
	.cfi_endproc
.LFE19:
	.size	caml_MD5Transform, .-caml_MD5Transform
	.align	1
	.globl	caml_MD5Update
	.type	caml_MD5Update, @function
caml_MD5Update:
.LFB17:
	.loc 1 139 1 is_stmt 1
	.cfi_startproc
.LVL314:
	addi	sp,sp,-48
	.cfi_def_cfa_offset 48
	sd	ra,40(sp)
	sd	s0,32(sp)
	sd	s1,24(sp)
	sd	s2,16(sp)
	sd	s3,8(sp)
	sd	s4,0(sp)
	.cfi_offset 1, -8
	.cfi_offset 8, -16
	.cfi_offset 9, -24
	.cfi_offset 18, -32
	.cfi_offset 19, -40
	.cfi_offset 20, -48
	mv	s3,a0
	mv	s2,a1
	mv	s1,a2
	.loc 1 140 5
	.loc 1 144 5
	.loc 1 144 7 is_stmt 0
	lw	a5,16(a0)
.LVL315:
	.loc 1 145 5 is_stmt 1
	.loc 1 145 45 is_stmt 0
	slliw	a4,a2,3
	.loc 1 145 27
	addw	a4,a4,a5
	sext.w	a3,a4
	.loc 1 145 23
	sw	a4,16(a0)
	.loc 1 145 8
	bgeu	a3,a5,.L5
	.loc 1 146 9 is_stmt 1
	.loc 1 146 18 is_stmt 0
	lw	a4,20(a0)
	.loc 1 146 21
	addiw	a4,a4,1
	sw	a4,20(a0)
.L5:
	.loc 1 147 5 is_stmt 1
	.loc 1 147 25 is_stmt 0
	srli	a4,s1,29
	.loc 1 147 18
	lw	a3,20(s3)
	addw	a4,a3,a4
	sw	a4,20(s3)
	.loc 1 149 5 is_stmt 1
	.loc 1 149 12 is_stmt 0
	srliw	a5,a5,3
.LVL316:
	.loc 1 149 7
	andi	a5,a5,63
.LVL317:
	.loc 1 153 5 is_stmt 1
	.loc 1 153 8 is_stmt 0
	beq	a5,zero,.L9
.LBB2:
	.loc 1 154 9 is_stmt 1
	.loc 1 154 46 is_stmt 0
	addi	s4,s3,24
	.loc 1 154 24
	add	a0,s4,a5
.LVL318:
	.loc 1 156 9 is_stmt 1
	.loc 1 156 11 is_stmt 0
	li	s0,64
	subw	a5,s0,a5
.LVL319:
	.loc 1 157 9 is_stmt 1
	.loc 1 157 17 is_stmt 0
	slli	s0,a5,32
	srli	s0,s0,32
	.loc 1 157 12
	bgtu	s0,s1,.L12
	.loc 1 161 9 is_stmt 1
	mv	a2,s0
.LVL320:
	mv	a1,s2
.LVL321:
	call	memcpy
.LVL322:
	.loc 1 162 33
	.loc 1 163 9
	mv	a1,s4
	mv	a0,s3
	call	caml_MD5Transform
.LVL323:
	.loc 1 164 9
	.loc 1 164 13 is_stmt 0
	add	s2,s2,s0
.LVL324:
	.loc 1 165 9 is_stmt 1
	.loc 1 165 13 is_stmt 0
	sub	s1,s1,s0
.LVL325:
	j	.L9
.LVL326:
.L12:
	.loc 1 158 13 is_stmt 1
	mv	a2,s1
	mv	a1,s2
.LVL327:
	call	memcpy
.LVL328:
	.loc 1 159 13
	j	.L4
.L10:
.LBE2:
	.loc 1 170 9
	.loc 1 170 19 is_stmt 0
	addi	s0,s3,24
	.loc 1 170 9
	li	a2,64
	mv	a1,s2
	mv	a0,s0
	call	memcpy
.LVL329:
	.loc 1 171 33 is_stmt 1
	.loc 1 172 9
	mv	a1,s0
	mv	a0,s3
	call	caml_MD5Transform
.LVL330:
	.loc 1 173 9
	.loc 1 173 13 is_stmt 0
	addi	s2,s2,64
.LVL331:
	.loc 1 174 9 is_stmt 1
	.loc 1 174 13 is_stmt 0
	addi	s1,s1,-64
.LVL332:
.L9:
	.loc 1 169 11 is_stmt 1
	li	a5,63
	bgtu	s1,a5,.L10
	.loc 1 179 5
	mv	a2,s1
	mv	a1,s2
	addi	a0,s3,24
	call	memcpy
.LVL333:
.L4:
	.loc 1 180 1 is_stmt 0
	ld	ra,40(sp)
	.cfi_restore 1
	ld	s0,32(sp)
	.cfi_restore 8
	ld	s1,24(sp)
	.cfi_restore 9
.LVL334:
	ld	s2,16(sp)
	.cfi_restore 18
.LVL335:
	ld	s3,8(sp)
	.cfi_restore 19
.LVL336:
	ld	s4,0(sp)
	.cfi_restore 20
	addi	sp,sp,48
	.cfi_def_cfa_offset 0
	jr	ra
	.cfi_endproc
.LFE17:
	.size	caml_MD5Update, .-caml_MD5Update
	.align	1
	.globl	caml_MD5Final
	.type	caml_MD5Final, @function
caml_MD5Final:
.LFB18:
	.loc 1 187 1 is_stmt 1
	.cfi_startproc
.LVL337:
	addi	sp,sp,-32
	.cfi_def_cfa_offset 32
	sd	ra,24(sp)
	sd	s0,16(sp)
	sd	s1,8(sp)
	sd	s2,0(sp)
	.cfi_offset 1, -8
	.cfi_offset 8, -16
	.cfi_offset 9, -24
	.cfi_offset 18, -32
	mv	s1,a0
	mv	s0,a1
	.loc 1 188 5
	.loc 1 189 5
	.loc 1 192 5
	.loc 1 192 23 is_stmt 0
	lw	a5,16(a1)
	.loc 1 192 27
	srliw	a5,a5,3
	.loc 1 192 11
	andi	a4,a5,63
.LVL338:
	.loc 1 196 5 is_stmt 1
	.loc 1 196 9 is_stmt 0
	addi	s2,a1,24
	.loc 1 196 7
	add	a5,s2,a4
.LVL339:
	.loc 1 197 5 is_stmt 1
	.loc 1 197 7 is_stmt 0
	addi	a0,a5,1
.LVL340:
	.loc 1 197 10
	li	a3,-128
	sb	a3,0(a5)
	.loc 1 200 5 is_stmt 1
	.loc 1 200 11 is_stmt 0
	li	a2,63
	subw	a2,a2,a4
	sext.w	a3,a2
.LVL341:
	.loc 1 203 5 is_stmt 1
	.loc 1 203 8 is_stmt 0
	li	a5,7
	bgtu	a3,a5,.L14
	.loc 1 205 9 is_stmt 1
	slli	a2,a2,32
.LVL342:
	srli	a2,a2,32
	li	a1,0
.LVL343:
	call	memset
.LVL344:
	.loc 1 206 33
	.loc 1 207 9
	mv	a1,s2
	mv	a0,s0
	call	caml_MD5Transform
.LVL345:
	.loc 1 210 9
	li	a2,56
	li	a1,0
	mv	a0,s2
	call	memset
.LVL346:
.L15:
	.loc 1 215 29
	.loc 1 218 5
	.loc 1 218 43 is_stmt 0
	lw	a5,16(s0)
	.loc 1 218 32
	sw	a5,80(s0)
	.loc 1 219 5 is_stmt 1
	.loc 1 219 43 is_stmt 0
	lw	a5,20(s0)
	.loc 1 219 32
	sw	a5,84(s0)
	.loc 1 221 5 is_stmt 1
	mv	a1,s2
	mv	a0,s0
	call	caml_MD5Transform
.LVL347:
	.loc 1 222 47
	.loc 1 223 5
	li	a2,16
	mv	a1,s0
	mv	a0,s1
	call	memcpy
.LVL348:
	.loc 1 224 5
	li	a2,88
	li	a1,0
	mv	a0,s0
	call	memset
.LVL349:
	.loc 1 225 1 is_stmt 0
	ld	ra,24(sp)
	.cfi_remember_state
	.cfi_restore 1
	ld	s0,16(sp)
	.cfi_restore 8
.LVL350:
	ld	s1,8(sp)
	.cfi_restore 9
.LVL351:
	ld	s2,0(sp)
	.cfi_restore 18
.LVL352:
	addi	sp,sp,32
	.cfi_def_cfa_offset 0
	jr	ra
.LVL353:
.L14:
	.cfi_restore_state
	.loc 1 213 9 is_stmt 1
	.loc 1 213 28 is_stmt 0
	li	a2,55
.LVL354:
	subw	a2,a2,a4
	.loc 1 213 9
	slli	a2,a2,32
	srli	a2,a2,32
	li	a1,0
	call	memset
.LVL355:
	j	.L15
	.cfi_endproc
.LFE18:
	.size	caml_MD5Final, .-caml_MD5Final
	.align	1
	.globl	caml_md5_string
	.type	caml_md5_string, @function
caml_md5_string:
.LFB12:
	.loc 1 30 1 is_stmt 1
	.cfi_startproc
.LVL356:
	addi	sp,sp,-128
	.cfi_def_cfa_offset 128
	sd	ra,120(sp)
	sd	s0,112(sp)
	sd	s1,104(sp)
	sd	s2,96(sp)
	.cfi_offset 1, -8
	.cfi_offset 8, -16
	.cfi_offset 9, -24
	.cfi_offset 18, -32
	mv	s1,a0
	mv	s0,a1
	mv	s2,a2
	.loc 1 31 3
	.loc 1 32 3
	.loc 1 33 3
	addi	a0,sp,8
.LVL357:
	call	caml_MD5Init
.LVL358:
	.loc 1 34 3
	.loc 1 34 25 is_stmt 0
	srai	a1,s0,1
	.loc 1 34 3
	srai	a2,s2,1
	add	a1,a1,s1
	addi	a0,sp,8
	call	caml_MD5Update
.LVL359:
	.loc 1 35 3 is_stmt 1
	.loc 1 35 9 is_stmt 0
	li	a0,16
	call	caml_alloc_string
.LVL360:
	mv	s0,a0
.LVL361:
	.loc 1 36 3 is_stmt 1
	addi	a1,sp,8
	call	caml_MD5Final
.LVL362:
	.loc 1 37 3
	.loc 1 38 1 is_stmt 0
	mv	a0,s0
	ld	ra,120(sp)
	.cfi_restore 1
	ld	s0,112(sp)
	.cfi_restore 8
.LVL363:
	ld	s1,104(sp)
	.cfi_restore 9
.LVL364:
	ld	s2,96(sp)
	.cfi_restore 18
.LVL365:
	addi	sp,sp,128
	.cfi_def_cfa_offset 0
	jr	ra
	.cfi_endproc
.LFE12:
	.size	caml_md5_string, .-caml_md5_string
	.align	1
	.globl	caml_md5_channel
	.type	caml_md5_channel, @function
caml_md5_channel:
.LFB13:
	.loc 1 41 1 is_stmt 1
	.cfi_startproc
.LVL366:
	addi	sp,sp,-144
	.cfi_def_cfa_offset 144
	sd	ra,136(sp)
	sd	s0,128(sp)
	sd	s1,120(sp)
	sd	s2,112(sp)
	sd	s3,104(sp)
	li	t1,-4096
	add	sp,sp,t1
	.cfi_def_cfa_offset 4240
	.cfi_offset 1, -8
	.cfi_offset 8, -16
	.cfi_offset 9, -24
	.cfi_offset 18, -32
	.cfi_offset 19, -40
	mv	s2,a0
	mv	s1,a1
	.loc 1 42 3
	ld	s3,caml_local_roots
.LVL367:
	.loc 1 43 3
	.loc 1 44 3
	.loc 1 45 3
	.loc 1 46 3
	.loc 1 48 3
	ld	a5,caml_channel_mutex_lock
	beq	a5,zero,.L20
	.loc 1 48 3 discriminator 1
	jalr	a5
.LVL368:
.L20:
	.loc 1 49 3
	li	a5,4096
	addi	a5,a5,8
	add	a0,sp,a5
	call	caml_MD5Init
.LVL369:
	.loc 1 50 3
	.loc 1 50 6 is_stmt 0
	bge	s1,zero,.L21
.L23:
	.loc 1 51 5 is_stmt 1
	.loc 1 52 7
	.loc 1 52 14 is_stmt 0
	li	a2,4096
	li	a1,-4096
	addi	a1,a1,-88
	li	s0,4096
	addi	a5,s0,96
	add	a5,a5,sp
	add	a1,a5,a1
	mv	a0,s2
	call	caml_getblock
.LVL370:
	mv	a2,a0
.LVL371:
	.loc 1 53 7 is_stmt 1
	.loc 1 53 10 is_stmt 0
	beq	a0,zero,.L22
	.loc 1 54 7 is_stmt 1
	li	a1,-4096
	addi	a1,a1,-88
	addi	a5,s0,96
	add	a5,a5,sp
	add	a1,a5,a1
	addi	a5,s0,8
	add	a0,sp,a5
.LVL372:
	call	caml_MD5Update
.LVL373:
	.loc 1 51 11
	.loc 1 52 12 is_stmt 0
	j	.L23
.L24:
	.loc 1 58 14
	li	a1,-4096
	addi	a1,a1,-88
	li	a5,4096
	addi	a5,a5,96
	add	a5,a5,sp
	add	a1,a5,a1
	mv	a0,s2
	call	caml_getblock
.LVL374:
	mv	s0,a0
.LVL375:
	.loc 1 60 7 is_stmt 1
	.loc 1 60 10 is_stmt 0
	beq	a0,zero,.L29
	.loc 1 61 7 is_stmt 1
	mv	a2,a0
	li	a1,-4096
	addi	a1,a1,-88
	li	a4,4096
	addi	a5,a4,96
	add	a5,a5,sp
	add	a1,a5,a1
	addi	a5,a4,8
	add	a0,sp,a5
	call	caml_MD5Update
.LVL376:
	.loc 1 62 7
	.loc 1 62 14 is_stmt 0
	sub	s1,s1,s0
.LVL377:
.L21:
	.loc 1 57 11 is_stmt 1
	ble	s1,zero,.L22
	.loc 1 58 7
	.loc 1 59 69 is_stmt 0
	mv	a2,s1
	li	a5,4096
	bleu	s1,a5,.L24
	li	a2,4096
	j	.L24
.LVL378:
.L29:
	.loc 1 60 22 is_stmt 1 discriminator 1
	call	caml_raise_end_of_file
.LVL379:
.L22:
	.loc 1 65 3
	.loc 1 65 9 is_stmt 0
	li	a0,16
	call	caml_alloc_string
.LVL380:
	mv	s0,a0
.LVL381:
	.loc 1 66 3 is_stmt 1
	li	a5,4096
	addi	a5,a5,8
	add	a1,sp,a5
	call	caml_MD5Final
.LVL382:
	.loc 1 67 3
	ld	a5,caml_channel_mutex_unlock
	beq	a5,zero,.L27
	.loc 1 67 3 discriminator 1
	mv	a0,s2
	jalr	a5
.LVL383:
.L27:
	.loc 1 68 3
.LBB3:
	.loc 1 68 3
	.loc 1 68 3
	sd	s3,caml_local_roots,a5
	.loc 1 68 3
.LBE3:
	.loc 1 68 3
	.loc 1 69 1 is_stmt 0
	mv	a0,s0
	li	t1,4096
	add	sp,sp,t1
	.cfi_def_cfa_offset 144
	ld	ra,136(sp)
	.cfi_restore 1
	ld	s0,128(sp)
	.cfi_restore 8
.LVL384:
	ld	s1,120(sp)
	.cfi_restore 9
.LVL385:
	ld	s2,112(sp)
	.cfi_restore 18
.LVL386:
	ld	s3,104(sp)
	.cfi_restore 19
.LVL387:
	addi	sp,sp,144
	.cfi_def_cfa_offset 0
	jr	ra
	.cfi_endproc
.LFE13:
	.size	caml_md5_channel, .-caml_md5_channel
	.align	1
	.globl	caml_md5_chan
	.type	caml_md5_chan, @function
caml_md5_chan:
.LFB14:
	.loc 1 72 1 is_stmt 1
	.cfi_startproc
.LVL388:
	addi	sp,sp,-112
	.cfi_def_cfa_offset 112
	sd	ra,104(sp)
	sd	s0,96(sp)
	sd	s1,88(sp)
	.cfi_offset 1, -8
	.cfi_offset 8, -16
	.cfi_offset 9, -24
	sd	a0,8(sp)
	sd	a1,0(sp)
	.loc 1 73 4
	lla	s0,caml_local_roots
	ld	s1,0(s0)
.LVL389:
	.loc 1 73 4
	.loc 1 73 4
	sd	s1,16(sp)
	addi	a5,sp,16
	sd	a5,0(s0)
	li	a5,1
	sd	a5,32(sp)
	li	a5,2
	sd	a5,24(sp)
	addi	a5,sp,8
	sd	a5,40(sp)
	sd	sp,48(sp)
.LVL390:
	.loc 1 74 4
.LBB4:
	.loc 1 74 4
	srai	a1,a1,1
.LVL391:
	ld	a0,8(a0)
.LVL392:
	call	caml_md5_channel
.LVL393:
	.loc 1 74 4
	sd	s1,0(s0)
	.loc 1 74 4
.LBE4:
	.loc 1 74 4
	.loc 1 75 1 is_stmt 0
	ld	ra,104(sp)
	.cfi_restore 1
	ld	s0,96(sp)
	.cfi_restore 8
	ld	s1,88(sp)
	.cfi_restore 9
.LVL394:
	addi	sp,sp,112
	.cfi_def_cfa_offset 0
	jr	ra
	.cfi_endproc
.LFE14:
	.size	caml_md5_chan, .-caml_md5_chan
	.align	1
	.globl	caml_md5_block
	.type	caml_md5_block, @function
caml_md5_block:
.LFB15:
	.loc 1 79 1 is_stmt 1
	.cfi_startproc
.LVL395:
	addi	sp,sp,-128
	.cfi_def_cfa_offset 128
	sd	ra,120(sp)
	sd	s0,112(sp)
	sd	s1,104(sp)
	sd	s2,96(sp)
	.cfi_offset 1, -8
	.cfi_offset 8, -16
	.cfi_offset 9, -24
	.cfi_offset 18, -32
	mv	s0,a0
	mv	s1,a1
	mv	s2,a2
	.loc 1 80 3
	.loc 1 81 3
	addi	a0,sp,8
.LVL396:
	call	caml_MD5Init
.LVL397:
	.loc 1 82 3
	mv	a2,s2
	mv	a1,s1
	addi	a0,sp,8
	call	caml_MD5Update
.LVL398:
	.loc 1 83 3
	addi	a1,sp,8
	mv	a0,s0
	call	caml_MD5Final
.LVL399:
	.loc 1 84 1 is_stmt 0
	ld	ra,120(sp)
	.cfi_restore 1
	ld	s0,112(sp)
	.cfi_restore 8
.LVL400:
	ld	s1,104(sp)
	.cfi_restore 9
.LVL401:
	ld	s2,96(sp)
	.cfi_restore 18
.LVL402:
	addi	sp,sp,128
	.cfi_def_cfa_offset 0
	jr	ra
	.cfi_endproc
.LFE15:
	.size	caml_md5_block, .-caml_md5_block
	.comm	caml_major_work_credit,8,8
	.comm	caml_major_ring_index,4,4
	.comm	caml_major_ring,400,8
.Letext0:
	.file 2 "/home/sai/Shakti-TEE-Build/riscv/lib/gcc/riscv64-unknown-elf/9.2.0/include/stddef.h"
	.file 3 "caml/config.h"
	.file 4 "caml/misc.h"
	.file 5 "caml/mlvalues.h"
	.file 6 "/home/sai/ocaml-freestanding-riscv/nolibc/include/signal.h"
	.file 7 "caml/fail.h"
	.file 8 "caml/io.h"
	.file 9 "caml/md5.h"
	.file 10 "caml/freelist.h"
	.file 11 "caml/major_gc.h"
	.file 12 "caml/address_class.h"
	.file 13 "caml/minor_gc.h"
	.file 14 "caml/memory.h"
	.file 15 "<built-in>"
	.file 16 "caml/alloc.h"