	.file	"startup.c"
	.option nopic
	.attribute arch, "rv64i2p0_m2p0_a2p0_f2p0_d2p0_c2p0"
	.attribute unaligned_access, 0
	.attribute stack_align, 16
	.text
.Ltext0:
	.cfi_sections	.debug_frame
	.section	.rodata.str1.8,"aMS",@progbits,1
	.align	3
.LC0:
	.string	"Fatal error: not enough memory for initial page table"
	.text
	.align	1
	.type	init_static, @function
init_static:
.LFB8:
	.file 1 "startup.c"
	.loc 1 56 1
	.cfi_startproc
	addi	sp,sp,-16
	.cfi_def_cfa_offset 16
	sd	ra,8(sp)
	sd	s0,0(sp)
	.cfi_offset 1, -8
	.cfi_offset 8, -16
	.loc 1 57 3
	.loc 1 58 3
	.loc 1 59 3
	.loc 1 61 3
	call	caml_init_atom_table
.LVL0:
	.loc 1 63 3
	.loc 1 63 10 is_stmt 0
	li	s0,0
.LVL1:
.L2:
	.loc 1 63 15 is_stmt 1 discriminator 1
	.loc 1 63 36 is_stmt 0 discriminator 1
	slli	a4,s0,4
	lla	a5,caml_data_segments
	add	a5,a5,a4
	ld	a1,0(a5)
	.loc 1 63 3 discriminator 1
	beq	a1,zero,.L10
	.loc 1 66 5 is_stmt 1
	.loc 1 68 50 is_stmt 0
	slli	a4,s0,4
	lla	a5,caml_data_segments
	add	a5,a5,a4
	ld	a2,8(a5)
	.loc 1 66 9
	addi	a2,a2,8
	li	a0,4
	call	caml_page_table_add
.LVL2:
	.loc 1 66 8
	bne	a0,zero,.L11
	.loc 1 63 49 is_stmt 1 discriminator 2
	.loc 1 63 50 is_stmt 0 discriminator 2
	addiw	s0,s0,1
.LVL3:
	j	.L2
.LVL4:
.L11:
	.loc 1 69 7 is_stmt 1
	lla	a0,.LC0
	call	caml_fatal_error
.LVL5:
.L10:
	.loc 1 72 3
	.loc 1 72 47 is_stmt 0
	lla	a5,caml_code_segments
	ld	a4,0(a5)
	.loc 1 72 24
	sd	a4,caml_code_area_start,a3
	.loc 1 73 3 is_stmt 1
	.loc 1 73 45 is_stmt 0
	ld	a5,8(a5)
	.loc 1 73 22
	sd	a5,caml_code_area_end,a4
	.loc 1 74 3 is_stmt 1
.LVL6:
	.loc 1 74 10 is_stmt 0
	li	a4,1
	.loc 1 74 3
	j	.L5
.LVL7:
.L7:
	.loc 1 74 49 is_stmt 1 discriminator 2
	.loc 1 74 50 is_stmt 0 discriminator 2
	addiw	a4,a4,1
.LVL8:
.L5:
	.loc 1 74 15 is_stmt 1 discriminator 1
	.loc 1 74 36 is_stmt 0 discriminator 1
	slli	a3,a4,4
	lla	a5,caml_code_segments
	add	a5,a5,a3
	ld	a5,0(a5)
	.loc 1 74 3 discriminator 1
	beq	a5,zero,.L12
	.loc 1 75 5 is_stmt 1
	.loc 1 75 37 is_stmt 0
	ld	a3,caml_code_area_start
	.loc 1 75 8
	bleu	a3,a5,.L6
	.loc 1 76 7 is_stmt 1
	.loc 1 76 28 is_stmt 0
	sd	a5,caml_code_area_start,a3
.L6:
	.loc 1 77 5 is_stmt 1
	.loc 1 77 30 is_stmt 0
	slli	a3,a4,4
	lla	a5,caml_code_segments
	add	a5,a5,a3
	ld	a5,8(a5)
	.loc 1 77 35
	ld	a3,caml_code_area_end
	.loc 1 77 8
	bleu	a5,a3,.L7
	.loc 1 78 7 is_stmt 1
	.loc 1 78 26 is_stmt 0
	sd	a5,caml_code_area_end,a3
	j	.L7
.L12:
	.loc 1 81 3 is_stmt 1
	.loc 1 81 8 is_stmt 0
	li	a0,40
	call	caml_stat_alloc
.LVL9:
	mv	s0,a0
.LVL10:
	.loc 1 82 3 is_stmt 1
	.loc 1 82 18 is_stmt 0
	ld	a5,caml_code_area_start
	sd	a5,0(a0)
	.loc 1 83 3 is_stmt 1
	.loc 1 83 16 is_stmt 0
	ld	a5,caml_code_area_end
	sd	a5,8(a0)
	.loc 1 84 3 is_stmt 1
	.loc 1 84 23 is_stmt 0
	sb	zero,32(a0)
	.loc 1 85 3 is_stmt 1
	li	a1,8
	lla	a0,caml_code_fragments_table
	call	caml_ext_table_init
.LVL11:
	.loc 1 86 3
	mv	a1,s0
	lla	a0,caml_code_fragments_table
	call	caml_ext_table_add
.LVL12:
	.loc 1 87 1 is_stmt 0
	ld	ra,8(sp)
	.cfi_restore 1
	ld	s0,0(sp)
	.cfi_restore 8
.LVL13:
	addi	sp,sp,16
	.cfi_def_cfa_offset 0
	jr	ra
	.cfi_endproc
.LFE8:
	.size	init_static, .-init_static
	.section	.rodata.str1.8
	.align	3
.LC1:
	.string	""
	.text
	.align	1
	.globl	caml_startup_common
	.type	caml_startup_common, @function
caml_startup_common:
.LFB9:
	.loc 1 108 1 is_stmt 1
	.cfi_startproc
.LVL14:
	addi	sp,sp,-48
	.cfi_def_cfa_offset 48
	sd	ra,40(sp)
	sd	s0,32(sp)
	sd	s1,24(sp)
	.cfi_offset 1, -8
	.cfi_offset 8, -16
	.cfi_offset 9, -24
	mv	s1,a0
	mv	s0,a1
	.loc 1 109 3
	.loc 1 110 3
	.loc 1 116 3
	call	caml_parse_ocamlrunparam
.LVL15:
	.loc 1 120 3
	.loc 1 120 7 is_stmt 0
	ld	a5,caml_cleanup_on_exit
	.loc 1 120 6
	beq	a5,zero,.L14
	.loc 1 121 13
	li	s0,1
.L14:
.LVL16:
	.loc 1 122 3 is_stmt 1
	.loc 1 122 8 is_stmt 0
	mv	a0,s0
	call	caml_startup_aux
.LVL17:
	.loc 1 122 6
	bne	a0,zero,.L25
	.loc 1 123 12
	li	a0,1
.LVL18:
.L13:
	.loc 1 158 1
	ld	ra,40(sp)
	.cfi_remember_state
	.cfi_restore 1
	ld	s0,32(sp)
	.cfi_restore 8
	ld	s1,24(sp)
	.cfi_restore 9
.LVL19:
	addi	sp,sp,48
	.cfi_def_cfa_offset 0
	jr	ra
.LVL20:
.L25:
	.cfi_restore_state
	.loc 1 128 3 is_stmt 1
	call	caml_init_frame_descriptors
.LVL21:
	.loc 1 129 3
	call	caml_init_ieee_floats
.LVL22:
	.loc 1 133 3
	call	caml_init_custom_operations
.LVL23:
	.loc 1 134 3
	.loc 1 134 21 is_stmt 0
	addi	a5,sp,15
	sd	a5,caml_top_of_stack,a4
	.loc 1 135 3 is_stmt 1
	ld	a5,caml_init_major_window
	ld	a4,caml_init_max_percent_free
	ld	a3,caml_init_percent_free
	ld	a2,caml_init_heap_chunk_sz
	ld	a1,caml_init_heap_wsz
	ld	a0,caml_init_minor_heap_wsz
	call	caml_init_gc
.LVL24:
	.loc 1 138 3
	call	init_static
.LVL25:
	.loc 1 139 3
	call	caml_init_signals
.LVL26:
	.loc 1 143 3
	call	caml_init_backtrace
.LVL27:
	.loc 1 144 3
	call	caml_debugger_init
.LVL28:
	.loc 1 145 3
	.loc 1 145 12 is_stmt 0
	ld	s0,0(s1)
.LVL29:
	.loc 1 146 3 is_stmt 1
	.loc 1 146 6 is_stmt 0
	beq	s0,zero,.L26
.LVL30:
.L16:
	.loc 1 147 3 is_stmt 1
	.loc 1 147 19 is_stmt 0
	call	caml_executable_name
.LVL31:
	.loc 1 148 3 is_stmt 1
	.loc 1 148 6 is_stmt 0
	beq	a0,zero,.L27
.LVL32:
.L17:
	.loc 1 152 3 is_stmt 1
	mv	a1,s1
	call	caml_sys_init
.LVL33:
	.loc 1 153 3
	.loc 1 153 7 is_stmt 0
	li	a1,0
	lw	a0,caml_termination_jmpbuf
	call	sigsetjmp
.LVL34:
	.loc 1 153 6
	beq	a0,zero,.L19
	.loc 1 154 5 is_stmt 1
	.loc 1 154 31 is_stmt 0
	ld	a5,caml_termination_hook
	.loc 1 154 8
	beq	a5,zero,.L20
	.loc 1 154 40 is_stmt 1 discriminator 1
	li	a0,0
	jalr	a5
.LVL35:
.L20:
	.loc 1 155 5
	.loc 1 155 12 is_stmt 0
	li	a0,1
	j	.L13
.LVL36:
.L26:
	.loc 1 146 34
	lla	s0,.LC1
.LVL37:
	j	.L16
.LVL38:
.L27:
	.loc 1 151 5 is_stmt 1
	.loc 1 151 16 is_stmt 0
	mv	a0,s0
.LVL39:
	call	caml_search_exe_in_path
.LVL40:
	j	.L17
.LVL41:
.L19:
	.loc 1 157 3 is_stmt 1
	.loc 1 157 10 is_stmt 0
	call	caml_start_program
.LVL42:
	j	.L13
	.cfi_endproc
.LFE9:
	.size	caml_startup_common, .-caml_startup_common
	.align	1
	.globl	caml_startup_exn
	.type	caml_startup_exn, @function
caml_startup_exn:
.LFB10:
	.loc 1 161 1 is_stmt 1
	.cfi_startproc
.LVL43:
	addi	sp,sp,-16
	.cfi_def_cfa_offset 16
	sd	ra,8(sp)
	.cfi_offset 1, -8
	.loc 1 162 3
	.loc 1 162 10 is_stmt 0
	li	a1,0
	call	caml_startup_common
.LVL44:
	.loc 1 163 1
	ld	ra,8(sp)
	.cfi_restore 1
	addi	sp,sp,16
	.cfi_def_cfa_offset 0
	jr	ra
	.cfi_endproc
.LFE10:
	.size	caml_startup_exn, .-caml_startup_exn
	.align	1
	.globl	caml_startup
	.type	caml_startup, @function
caml_startup:
.LFB11:
	.loc 1 166 1 is_stmt 1
	.cfi_startproc
.LVL45:
	addi	sp,sp,-16
	.cfi_def_cfa_offset 16
	sd	ra,8(sp)
	.cfi_offset 1, -8
	.loc 1 167 3
	.loc 1 167 15 is_stmt 0
	call	caml_startup_exn
.LVL46:
	.loc 1 168 3 is_stmt 1
	.loc 1 168 7 is_stmt 0
	andi	a4,a0,3
	.loc 1 168 6
	li	a5,2
	beq	a4,a5,.L33
	.loc 1 170 1
	ld	ra,8(sp)
	.cfi_remember_state
	.cfi_restore 1
	addi	sp,sp,16
	.cfi_def_cfa_offset 0
	jr	ra
.L33:
	.cfi_restore_state
	.loc 1 169 5 is_stmt 1
	andi	a0,a0,-4
.LVL47:
	call	caml_fatal_uncaught_exception
.LVL48:
	.cfi_endproc
.LFE11:
	.size	caml_startup, .-caml_startup
	.align	1
	.globl	caml_main
	.type	caml_main, @function
caml_main:
.LFB12:
	.loc 1 173 1
	.cfi_startproc
.LVL49:
	addi	sp,sp,-16
	.cfi_def_cfa_offset 16
	sd	ra,8(sp)
	.cfi_offset 1, -8
	.loc 1 174 3
	call	caml_startup
.LVL50:
	.loc 1 175 1 is_stmt 0
	ld	ra,8(sp)
	.cfi_restore 1
	addi	sp,sp,16
	.cfi_def_cfa_offset 0
	jr	ra
	.cfi_endproc
.LFE12:
	.size	caml_main, .-caml_main
	.align	1
	.globl	caml_startup_pooled_exn
	.type	caml_startup_pooled_exn, @function
caml_startup_pooled_exn:
.LFB13:
	.loc 1 178 1 is_stmt 1
	.cfi_startproc
.LVL51:
	addi	sp,sp,-16
	.cfi_def_cfa_offset 16
	sd	ra,8(sp)
	.cfi_offset 1, -8
	.loc 1 179 3
	.loc 1 179 10 is_stmt 0
	li	a1,1
	call	caml_startup_common
.LVL52:
	.loc 1 180 1
	ld	ra,8(sp)
	.cfi_restore 1
	addi	sp,sp,16
	.cfi_def_cfa_offset 0
	jr	ra
	.cfi_endproc
.LFE13:
	.size	caml_startup_pooled_exn, .-caml_startup_pooled_exn
	.align	1
	.globl	caml_startup_pooled
	.type	caml_startup_pooled, @function
caml_startup_pooled:
.LFB14:
	.loc 1 183 1 is_stmt 1
	.cfi_startproc
.LVL53:
	addi	sp,sp,-16
	.cfi_def_cfa_offset 16
	sd	ra,8(sp)
	.cfi_offset 1, -8
	.loc 1 184 3
	.loc 1 184 15 is_stmt 0
	call	caml_startup_pooled_exn
.LVL54:
	.loc 1 185 3 is_stmt 1
	.loc 1 185 7 is_stmt 0
	andi	a4,a0,3
	.loc 1 185 6
	li	a5,2
	beq	a4,a5,.L41
	.loc 1 187 1
	ld	ra,8(sp)
	.cfi_remember_state
	.cfi_restore 1
	addi	sp,sp,16
	.cfi_def_cfa_offset 0
	jr	ra
.L41:
	.cfi_restore_state
	.loc 1 186 5 is_stmt 1
	andi	a0,a0,-4
.LVL55:
	call	caml_fatal_uncaught_exception
.LVL56:
	.cfi_endproc
.LFE14:
	.size	caml_startup_pooled, .-caml_startup_pooled
	.globl	caml_termination_hook
	.comm	caml_termination_jmpbuf,4,8
	.comm	caml_code_area_end,8,8
	.comm	caml_code_area_start,8,8
	.comm	caml_atom_table,2048,8
	.comm	caml_major_work_credit,8,8
	.comm	caml_major_ring_index,4,4
	.comm	caml_major_ring,400,8
	.comm	caml_code_fragments_table,16,8
	.section	.sbss,"aw",@nobits
	.align	3
	.type	caml_termination_hook, @object
	.size	caml_termination_hook, 8
caml_termination_hook:
	.zero	8
	.text
.Letext0:
	.file 2 "/home/sai/ocaml-freestanding-riscv/nolibc/include/stdio.h"
	.file 3 "/home/sai/Shakti-TEE-Build/riscv/lib/gcc/riscv64-unknown-elf/9.2.0/include/stddef.h"
	.file 4 "caml/config.h"
	.file 5 "caml/misc.h"
	.file 6 "caml/mlvalues.h"
	.file 7 "caml/callback.h"
	.file 8 "caml/backtrace.h"
	.file 9 "caml/custom.h"
	.file 10 "caml/debugger.h"
	.file 11 "/home/sai/ocaml-freestanding-riscv/nolibc/include/signal.h"
	.file 12 "caml/fail.h"
	.file 13 "caml/freelist.h"
	.file 14 "caml/gc_ctrl.h"
	.file 15 "caml/io.h"
	.file 16 "caml/intext.h"
	.file 17 "caml/major_gc.h"
	.file 18 "caml/address_class.h"
	.file 19 "caml/minor_gc.h"
	.file 20 "caml/memory.h"
	.file 21 "caml/stack.h"
	.file 22 "caml/startup_aux.h"
	.file 23 "caml/sys.h"
	.file 24 "caml/printexc.h"
	.file 25 "caml/osdeps.h"