	.file	"str.c"
	.option nopic
	.attribute arch, "rv64i2p0_m2p0_a2p0_f2p0_d2p0_c2p0"
	.attribute unaligned_access, 0
	.attribute stack_align, 16
	.text
.Ltext0:
	.cfi_sections	.debug_frame
	.align	1
	.globl	caml_string_length
	.type	caml_string_length, @function
caml_string_length:
.LFB12:
	.file 1 "str.c"
	.loc 1 32 1
	.cfi_startproc
.LVL0:
	.loc 1 33 3
	.loc 1 34 3
	.loc 1 34 10 is_stmt 0
	ld	a5,-8(a0)
	srli	a5,a5,10
	slli	a5,a5,3
	.loc 1 34 8
	addi	a5,a5,-1
.LVL1:
	.loc 1 35 3 is_stmt 1
	.loc 1 36 3
	.loc 1 36 17 is_stmt 0
	add	a0,a0,a5
.LVL2:
	lbu	a0,0(a0)
	.loc 1 37 1
	sub	a0,a5,a0
	ret
	.cfi_endproc
.LFE12:
	.size	caml_string_length, .-caml_string_length
	.align	1
	.globl	caml_ml_string_length
	.type	caml_ml_string_length, @function
caml_ml_string_length:
.LFB13:
	.loc 1 41 1 is_stmt 1
	.cfi_startproc
.LVL3:
	.loc 1 42 3
	.loc 1 43 3
	.loc 1 43 10 is_stmt 0
	ld	a5,-8(a0)
	srli	a5,a5,10
	slli	a5,a5,3
	.loc 1 43 8
	addi	a5,a5,-1
.LVL4:
	.loc 1 44 3 is_stmt 1
	.loc 1 45 3
	.loc 1 45 10 is_stmt 0
	add	a0,a0,a5
.LVL5:
	lbu	a0,0(a0)
	sub	a0,a5,a0
	slli	a0,a0,1
	.loc 1 46 1
	addi	a0,a0,1
	ret
	.cfi_endproc
.LFE13:
	.size	caml_ml_string_length, .-caml_ml_string_length
	.align	1
	.globl	caml_ml_bytes_length
	.type	caml_ml_bytes_length, @function
caml_ml_bytes_length:
.LFB14:
	.loc 1 49 1 is_stmt 1
	.cfi_startproc
.LVL6:
	addi	sp,sp,-16
	.cfi_def_cfa_offset 16
	sd	ra,8(sp)
	.cfi_offset 1, -8
	.loc 1 50 3
	.loc 1 50 10 is_stmt 0
	call	caml_ml_string_length
.LVL7:
	.loc 1 51 1
	ld	ra,8(sp)
	.cfi_restore 1
	addi	sp,sp,16
	.cfi_def_cfa_offset 0
	jr	ra
	.cfi_endproc
.LFE14:
	.size	caml_ml_bytes_length, .-caml_ml_bytes_length
	.align	1
	.globl	caml_string_is_c_safe
	.type	caml_string_is_c_safe, @function
caml_string_is_c_safe:
.LFB15:
	.loc 1 54 1 is_stmt 1
	.cfi_startproc
.LVL8:
	addi	sp,sp,-32
	.cfi_def_cfa_offset 32
	sd	ra,24(sp)
	sd	s0,16(sp)
	sd	s1,8(sp)
	.cfi_offset 1, -8
	.cfi_offset 8, -16
	.cfi_offset 9, -24
	mv	s1,a0
	.loc 1 55 3
	.loc 1 55 10 is_stmt 0
	call	strlen
.LVL9:
	mv	s0,a0
	.loc 1 55 35
	mv	a0,s1
	call	caml_string_length
.LVL10:
	.loc 1 55 32
	sub	a0,s0,a0
	.loc 1 56 1
	seqz	a0,a0
	ld	ra,24(sp)
	.cfi_restore 1
	ld	s0,16(sp)
	.cfi_restore 8
	ld	s1,8(sp)
	.cfi_restore 9
.LVL11:
	addi	sp,sp,32
	.cfi_def_cfa_offset 0
	jr	ra
	.cfi_endproc
.LFE15:
	.size	caml_string_is_c_safe, .-caml_string_is_c_safe
	.section	.rodata.str1.8,"aMS",@progbits,1
	.align	3
.LC0:
	.string	"String.create"
	.text
	.align	1
	.globl	caml_create_string
	.type	caml_create_string, @function
caml_create_string:
.LFB16:
	.loc 1 63 1 is_stmt 1
	.cfi_startproc
.LVL12:
	addi	sp,sp,-16
	.cfi_def_cfa_offset 16
	sd	ra,8(sp)
	.cfi_offset 1, -8
	.loc 1 64 3
	.loc 1 64 19 is_stmt 0
	srai	a0,a0,1
.LVL13:
	.loc 1 65 3 is_stmt 1
	.loc 1 65 6 is_stmt 0
	li	a5,-1025
	srli	a5,a5,7
	bgtu	a0,a5,.L10
	.loc 1 68 3 is_stmt 1
	.loc 1 68 10 is_stmt 0
	call	caml_alloc_string
.LVL14:
	.loc 1 69 1
	ld	ra,8(sp)
	.cfi_remember_state
	.cfi_restore 1
	addi	sp,sp,16
	.cfi_def_cfa_offset 0
	jr	ra
.LVL15:
.L10:
	.cfi_restore_state
	.loc 1 66 5 is_stmt 1
	lla	a0,.LC0
.LVL16:
	call	caml_invalid_argument
.LVL17:
	.cfi_endproc
.LFE16:
	.size	caml_create_string, .-caml_create_string
	.section	.rodata.str1.8
	.align	3
.LC1:
	.string	"Bytes.create"
	.text
	.align	1
	.globl	caml_create_bytes
	.type	caml_create_bytes, @function
caml_create_bytes:
.LFB17:
	.loc 1 73 1
	.cfi_startproc
.LVL18:
	addi	sp,sp,-16
	.cfi_def_cfa_offset 16
	sd	ra,8(sp)
	.cfi_offset 1, -8
	.loc 1 74 3
	.loc 1 74 19 is_stmt 0
	srai	a0,a0,1
.LVL19:
	.loc 1 75 3 is_stmt 1
	.loc 1 75 6 is_stmt 0
	li	a5,-1025
	srli	a5,a5,7
	bgtu	a0,a5,.L14
	.loc 1 78 3 is_stmt 1
	.loc 1 78 10 is_stmt 0
	call	caml_alloc_string
.LVL20:
	.loc 1 79 1
	ld	ra,8(sp)
	.cfi_remember_state
	.cfi_restore 1
	addi	sp,sp,16
	.cfi_def_cfa_offset 0
	jr	ra
.LVL21:
.L14:
	.cfi_restore_state
	.loc 1 76 5 is_stmt 1
	lla	a0,.LC1
.LVL22:
	call	caml_invalid_argument
.LVL23:
	.cfi_endproc
.LFE17:
	.size	caml_create_bytes, .-caml_create_bytes
	.align	1
	.globl	caml_string_get
	.type	caml_string_get, @function
caml_string_get:
.LFB18:
	.loc 1 84 1
	.cfi_startproc
.LVL24:
	addi	sp,sp,-32
	.cfi_def_cfa_offset 32
	sd	ra,24(sp)
	sd	s0,16(sp)
	sd	s1,8(sp)
	.cfi_offset 1, -8
	.cfi_offset 8, -16
	.cfi_offset 9, -24
	.loc 1 85 3
.LVL25:
	.loc 1 86 3
	.loc 1 86 6 is_stmt 0
	blt	a1,zero,.L16
	mv	s0,a0
	srai	s1,a1,1
.LVL26:
	.loc 1 86 25 discriminator 2
	call	caml_string_length
.LVL27:
	.loc 1 86 15 discriminator 2
	bleu	a0,s1,.L16
	.loc 1 87 3 is_stmt 1
	.loc 1 87 10 is_stmt 0
	add	s0,s0,s1
.LVL28:
	lbu	a0,0(s0)
	slli	a0,a0,1
	.loc 1 88 1
	addi	a0,a0,1
	ld	ra,24(sp)
	.cfi_remember_state
	.cfi_restore 1
	ld	s0,16(sp)
	.cfi_restore 8
	ld	s1,8(sp)
	.cfi_restore 9
.LVL29:
	addi	sp,sp,32
	.cfi_def_cfa_offset 0
	jr	ra
.L16:
	.cfi_restore_state
	.loc 1 86 50 is_stmt 1 discriminator 3
	call	caml_array_bound_error
.LVL30:
	.cfi_endproc
.LFE18:
	.size	caml_string_get, .-caml_string_get
	.align	1
	.globl	caml_bytes_get
	.type	caml_bytes_get, @function
caml_bytes_get:
.LFB19:
	.loc 1 91 1
	.cfi_startproc
.LVL31:
	addi	sp,sp,-16
	.cfi_def_cfa_offset 16
	sd	ra,8(sp)
	.cfi_offset 1, -8
	.loc 1 92 3
	.loc 1 92 10 is_stmt 0
	call	caml_string_get
.LVL32:
	.loc 1 93 1
	ld	ra,8(sp)
	.cfi_restore 1
	addi	sp,sp,16
	.cfi_def_cfa_offset 0
	jr	ra
	.cfi_endproc
.LFE19:
	.size	caml_bytes_get, .-caml_bytes_get
	.align	1
	.globl	caml_bytes_set
	.type	caml_bytes_set, @function
caml_bytes_set:
.LFB20:
	.loc 1 96 1 is_stmt 1
	.cfi_startproc
.LVL33:
	addi	sp,sp,-32
	.cfi_def_cfa_offset 32
	sd	ra,24(sp)
	sd	s0,16(sp)
	sd	s1,8(sp)
	sd	s2,0(sp)
	.cfi_offset 1, -8
	.cfi_offset 8, -16
	.cfi_offset 9, -24
	.cfi_offset 18, -32
	.loc 1 97 3
.LVL34:
	.loc 1 98 3
	.loc 1 98 6 is_stmt 0
	blt	a1,zero,.L22
	mv	s0,a0
	mv	s1,a2
	srai	s2,a1,1
.LVL35:
	.loc 1 98 25 discriminator 2
	call	caml_string_length
.LVL36:
	.loc 1 98 15 discriminator 2
	bleu	a0,s2,.L22
	.loc 1 99 3 is_stmt 1
	.loc 1 99 22 is_stmt 0
	srai	a2,s1,1
	.loc 1 99 3
	add	s0,s0,s2
.LVL37:
	.loc 1 99 20
	sb	a2,0(s0)
	.loc 1 100 3 is_stmt 1
	.loc 1 101 1 is_stmt 0
	li	a0,1
	ld	ra,24(sp)
	.cfi_remember_state
	.cfi_restore 1
	ld	s0,16(sp)
	.cfi_restore 8
	ld	s1,8(sp)
	.cfi_restore 9
.LVL38:
	ld	s2,0(sp)
	.cfi_restore 18
.LVL39:
	addi	sp,sp,32
	.cfi_def_cfa_offset 0
	jr	ra
.L22:
	.cfi_restore_state
	.loc 1 98 50 is_stmt 1 discriminator 3
	call	caml_array_bound_error
.LVL40:
	.cfi_endproc
.LFE20:
	.size	caml_bytes_set, .-caml_bytes_set
	.align	1
	.globl	caml_string_set
	.type	caml_string_set, @function
caml_string_set:
.LFB21:
	.loc 1 108 1
	.cfi_startproc
.LVL41:
	addi	sp,sp,-16
	.cfi_def_cfa_offset 16
	sd	ra,8(sp)
	.cfi_offset 1, -8
	.loc 1 109 3
	.loc 1 109 10 is_stmt 0
	call	caml_bytes_set
.LVL42:
	.loc 1 110 1
	ld	ra,8(sp)
	.cfi_restore 1
	addi	sp,sp,16
	.cfi_def_cfa_offset 0
	jr	ra
	.cfi_endproc
.LFE21:
	.size	caml_string_set, .-caml_string_set
	.align	1
	.globl	caml_string_get16
	.type	caml_string_get16, @function
caml_string_get16:
.LFB22:
	.loc 1 114 1 is_stmt 1
	.cfi_startproc
.LVL43:
	addi	sp,sp,-32
	.cfi_def_cfa_offset 32
	sd	ra,24(sp)
	sd	s0,16(sp)
	sd	s1,8(sp)
	sd	s2,0(sp)
	.cfi_offset 1, -8
	.cfi_offset 8, -16
	.cfi_offset 9, -24
	.cfi_offset 18, -32
	.loc 1 115 3
	.loc 1 116 3
	.loc 1 117 3
.LVL44:
	.loc 1 118 3
	.loc 1 118 6 is_stmt 0
	blt	a1,zero,.L28
	mv	s1,a0
	srai	s0,a1,1
.LVL45:
	.loc 1 118 22 discriminator 2
	addi	s2,s0,1
	.loc 1 118 29 discriminator 2
	call	caml_string_length
.LVL46:
	.loc 1 118 15 discriminator 2
	bgeu	s2,a0,.L28
	.loc 1 119 3 is_stmt 1
	.loc 1 119 8 is_stmt 0
	add	s0,s0,s1
.LVL47:
	.loc 1 119 6
	lbu	a5,0(s0)
.LVL48:
	.loc 1 120 3 is_stmt 1
	.loc 1 120 6 is_stmt 0
	lbu	a0,1(s0)
.LVL49:
	.loc 1 124 3 is_stmt 1
	.loc 1 124 12 is_stmt 0
	slli	a0,a0,8
.LVL50:
	.loc 1 124 17
	or	a0,a0,a5
.LVL51:
	.loc 1 126 3 is_stmt 1
	.loc 1 126 10 is_stmt 0
	slli	a0,a0,1
.LVL52:
	.loc 1 127 1
	addi	a0,a0,1
	ld	ra,24(sp)
	.cfi_remember_state
	.cfi_restore 1
	ld	s0,16(sp)
	.cfi_restore 8
.LVL53:
	ld	s1,8(sp)
	.cfi_restore 9
.LVL54:
	ld	s2,0(sp)
	.cfi_restore 18
.LVL55:
	addi	sp,sp,32
	.cfi_def_cfa_offset 0
	jr	ra
.LVL56:
.L28:
	.cfi_restore_state
	.loc 1 118 54 is_stmt 1 discriminator 3
	call	caml_array_bound_error
.LVL57:
	.cfi_endproc
.LFE22:
	.size	caml_string_get16, .-caml_string_get16
	.align	1
	.globl	caml_bytes_get16
	.type	caml_bytes_get16, @function
caml_bytes_get16:
.LFB23:
	.loc 1 130 1
	.cfi_startproc
.LVL58:
	addi	sp,sp,-16
	.cfi_def_cfa_offset 16
	sd	ra,8(sp)
	.cfi_offset 1, -8
	.loc 1 131 3
	.loc 1 131 10 is_stmt 0
	call	caml_string_get16
.LVL59:
	.loc 1 132 1
	ld	ra,8(sp)
	.cfi_restore 1
	addi	sp,sp,16
	.cfi_def_cfa_offset 0
	jr	ra
	.cfi_endproc
.LFE23:
	.size	caml_bytes_get16, .-caml_bytes_get16
	.align	1
	.globl	caml_string_get32
	.type	caml_string_get32, @function
caml_string_get32:
.LFB24:
	.loc 1 135 1 is_stmt 1
	.cfi_startproc
.LVL60:
	addi	sp,sp,-32
	.cfi_def_cfa_offset 32
	sd	ra,24(sp)
	sd	s0,16(sp)
	sd	s1,8(sp)
	sd	s2,0(sp)
	.cfi_offset 1, -8
	.cfi_offset 8, -16
	.cfi_offset 9, -24
	.cfi_offset 18, -32
	.loc 1 136 3
	.loc 1 137 3
	.loc 1 138 3
.LVL61:
	.loc 1 139 3
	.loc 1 139 6 is_stmt 0
	blt	a1,zero,.L34
	mv	s1,a0
	srai	s0,a1,1
.LVL62:
	.loc 1 139 22 discriminator 2
	addi	s2,s0,3
	.loc 1 139 29 discriminator 2
	call	caml_string_length
.LVL63:
	.loc 1 139 15 discriminator 2
	bgeu	s2,a0,.L34
	.loc 1 140 3 is_stmt 1
	.loc 1 140 8 is_stmt 0
	add	a5,s0,s1
	.loc 1 140 6
	lbu	a0,0(a5)
.LVL64:
	.loc 1 141 3 is_stmt 1
	.loc 1 141 6 is_stmt 0
	lbu	a4,1(a5)
.LVL65:
	.loc 1 142 3 is_stmt 1
	.loc 1 142 6 is_stmt 0
	lbu	a3,2(a5)
.LVL66:
	.loc 1 143 3 is_stmt 1
	.loc 1 143 6 is_stmt 0
	lbu	a5,3(a5)
.LVL67:
	.loc 1 147 3 is_stmt 1
	.loc 1 147 12 is_stmt 0
	slliw	a5,a5,24
.LVL68:
	.loc 1 147 23
	slli	a3,a3,16
.LVL69:
	.loc 1 147 18
	or	a5,a5,a3
	.loc 1 147 34
	slli	a4,a4,8
.LVL70:
	.loc 1 147 29
	or	a5,a5,a4
.LVL71:
	.loc 1 149 3 is_stmt 1
	.loc 1 149 10 is_stmt 0
	or	a0,a5,a0
.LVL72:
	call	caml_copy_int32
.LVL73:
	.loc 1 150 1
	ld	ra,24(sp)
	.cfi_remember_state
	.cfi_restore 1
	ld	s0,16(sp)
	.cfi_restore 8
.LVL74:
	ld	s1,8(sp)
	.cfi_restore 9
.LVL75:
	ld	s2,0(sp)
	.cfi_restore 18
.LVL76:
	addi	sp,sp,32
	.cfi_def_cfa_offset 0
	jr	ra
.L34:
	.cfi_restore_state
	.loc 1 139 54 is_stmt 1 discriminator 3
	call	caml_array_bound_error
.LVL77:
	.cfi_endproc
.LFE24:
	.size	caml_string_get32, .-caml_string_get32
	.align	1
	.globl	caml_bytes_get32
	.type	caml_bytes_get32, @function
caml_bytes_get32:
.LFB25:
	.loc 1 153 1
	.cfi_startproc
.LVL78:
	addi	sp,sp,-16
	.cfi_def_cfa_offset 16
	sd	ra,8(sp)
	.cfi_offset 1, -8
	.loc 1 154 3
	.loc 1 154 10 is_stmt 0
	call	caml_string_get32
.LVL79:
	.loc 1 155 1
	ld	ra,8(sp)
	.cfi_restore 1
	addi	sp,sp,16
	.cfi_def_cfa_offset 0
	jr	ra
	.cfi_endproc
.LFE25:
	.size	caml_bytes_get32, .-caml_bytes_get32
	.align	1
	.globl	caml_string_get64
	.type	caml_string_get64, @function
caml_string_get64:
.LFB26:
	.loc 1 158 1 is_stmt 1
	.cfi_startproc
.LVL80:
	addi	sp,sp,-32
	.cfi_def_cfa_offset 32
	sd	ra,24(sp)
	sd	s0,16(sp)
	sd	s1,8(sp)
	sd	s2,0(sp)
	.cfi_offset 1, -8
	.cfi_offset 8, -16
	.cfi_offset 9, -24
	.cfi_offset 18, -32
	.loc 1 159 3
	.loc 1 160 3
	.loc 1 161 3
.LVL81:
	.loc 1 162 3
	.loc 1 162 6 is_stmt 0
	blt	a1,zero,.L40
	mv	s1,a0
	srai	s0,a1,1
.LVL82:
	.loc 1 162 22 discriminator 2
	addi	s2,s0,7
	.loc 1 162 29 discriminator 2
	call	caml_string_length
.LVL83:
	.loc 1 162 15 discriminator 2
	bgeu	s2,a0,.L40
	.loc 1 163 3 is_stmt 1
	.loc 1 163 8 is_stmt 0
	add	a3,s0,s1
	.loc 1 163 6
	lbu	a0,0(a3)
.LVL84:
	.loc 1 164 3 is_stmt 1
	.loc 1 164 6 is_stmt 0
	lbu	a2,1(a3)
.LVL85:
	.loc 1 165 3 is_stmt 1
	.loc 1 165 6 is_stmt 0
	lbu	a1,2(a3)
.LVL86:
	.loc 1 166 3 is_stmt 1
	.loc 1 166 6 is_stmt 0
	lbu	a6,3(a3)
.LVL87:
	.loc 1 167 3 is_stmt 1
	.loc 1 167 6 is_stmt 0
	lbu	a7,4(a3)
.LVL88:
	.loc 1 168 3 is_stmt 1
	.loc 1 168 6 is_stmt 0
	lbu	a5,5(a3)
.LVL89:
	.loc 1 169 3 is_stmt 1
	.loc 1 169 6 is_stmt 0
	lbu	t1,6(a3)
.LVL90:
	.loc 1 170 3 is_stmt 1
	.loc 1 170 6 is_stmt 0
	lbu	a4,7(a3)
.LVL91:
	.loc 1 177 3 is_stmt 1
	.loc 1 177 23 is_stmt 0
	slli	a4,a4,56
.LVL92:
	.loc 1 177 45
	slli	a3,t1,48
.LVL93:
	.loc 1 177 29
	or	a4,a4,a3
	.loc 1 178 25
	slli	a5,a5,40
.LVL94:
	.loc 1 178 9
	or	a5,a4,a5
	.loc 1 178 47
	slli	a4,a7,32
	.loc 1 178 31
	or	a5,a5,a4
	.loc 1 179 25
	slli	a4,a6,24
	.loc 1 179 9
	or	a5,a5,a4
	.loc 1 179 47
	slli	a4,a1,16
	.loc 1 179 31
	or	a5,a5,a4
	.loc 1 180 25
	slli	a4,a2,8
	.loc 1 180 9
	or	a5,a5,a4
.LVL95:
	.loc 1 182 3 is_stmt 1
	.loc 1 182 10 is_stmt 0
	or	a0,a5,a0
.LVL96:
	call	caml_copy_int64
.LVL97:
	.loc 1 183 1
	ld	ra,24(sp)
	.cfi_remember_state
	.cfi_restore 1
	ld	s0,16(sp)
	.cfi_restore 8
.LVL98:
	ld	s1,8(sp)
	.cfi_restore 9
.LVL99:
	ld	s2,0(sp)
	.cfi_restore 18
.LVL100:
	addi	sp,sp,32
	.cfi_def_cfa_offset 0
	jr	ra
.L40:
	.cfi_restore_state
	.loc 1 162 54 is_stmt 1 discriminator 3
	call	caml_array_bound_error
.LVL101:
	.cfi_endproc
.LFE26:
	.size	caml_string_get64, .-caml_string_get64
	.align	1
	.globl	caml_bytes_get64
	.type	caml_bytes_get64, @function
caml_bytes_get64:
.LFB27:
	.loc 1 186 1
	.cfi_startproc
.LVL102:
	addi	sp,sp,-16
	.cfi_def_cfa_offset 16
	sd	ra,8(sp)
	.cfi_offset 1, -8
	.loc 1 187 3
	.loc 1 187 10 is_stmt 0
	call	caml_string_get64
.LVL103:
	.loc 1 188 1
	ld	ra,8(sp)
	.cfi_restore 1
	addi	sp,sp,16
	.cfi_def_cfa_offset 0
	jr	ra
	.cfi_endproc
.LFE27:
	.size	caml_bytes_get64, .-caml_bytes_get64
	.align	1
	.globl	caml_bytes_set16
	.type	caml_bytes_set16, @function
caml_bytes_set16:
.LFB28:
	.loc 1 191 1 is_stmt 1
	.cfi_startproc
.LVL104:
	addi	sp,sp,-48
	.cfi_def_cfa_offset 48
	sd	ra,40(sp)
	sd	s0,32(sp)
	sd	s1,24(sp)
	sd	s2,16(sp)
	sd	s3,8(sp)
	.cfi_offset 1, -8
	.cfi_offset 8, -16
	.cfi_offset 9, -24
	.cfi_offset 18, -32
	.cfi_offset 19, -40
	.loc 1 192 3
	.loc 1 193 3
	.loc 1 194 3
.LVL105:
	.loc 1 195 3
	.loc 1 195 6 is_stmt 0
	blt	a1,zero,.L46
	mv	s2,a0
	mv	s0,a2
	srai	s1,a1,1
.LVL106:
	.loc 1 195 22 discriminator 2
	addi	s3,s1,1
	.loc 1 195 29 discriminator 2
	call	caml_string_length
.LVL107:
	.loc 1 195 15 discriminator 2
	bgeu	s3,a0,.L46
	.loc 1 196 3 is_stmt 1
	.loc 1 196 7 is_stmt 0
	srai	a5,s0,1
.LVL108:
	.loc 1 201 3 is_stmt 1
	.loc 1 201 19 is_stmt 0
	srai	s0,s0,9
.LVL109:
	.loc 1 202 3 is_stmt 1
	.loc 1 204 3
	add	s1,s1,s2
.LVL110:
	.loc 1 204 20 is_stmt 0
	sb	a5,0(s1)
	.loc 1 205 3 is_stmt 1
	.loc 1 205 24 is_stmt 0
	sb	s0,1(s1)
	.loc 1 206 3 is_stmt 1
	.loc 1 207 1 is_stmt 0
	li	a0,1
	ld	ra,40(sp)
	.cfi_remember_state
	.cfi_restore 1
	ld	s0,32(sp)
	.cfi_restore 8
.LVL111:
	ld	s1,24(sp)
	.cfi_restore 9
.LVL112:
	ld	s2,16(sp)
	.cfi_restore 18
.LVL113:
	ld	s3,8(sp)
	.cfi_restore 19
.LVL114:
	addi	sp,sp,48
	.cfi_def_cfa_offset 0
	jr	ra
.LVL115:
.L46:
	.cfi_restore_state
	.loc 1 195 54 is_stmt 1 discriminator 3
	call	caml_array_bound_error
.LVL116:
	.cfi_endproc
.LFE28:
	.size	caml_bytes_set16, .-caml_bytes_set16
	.align	1
	.globl	caml_bytes_set32
	.type	caml_bytes_set32, @function
caml_bytes_set32:
.LFB29:
	.loc 1 210 1
	.cfi_startproc
.LVL117:
	addi	sp,sp,-48
	.cfi_def_cfa_offset 48
	sd	ra,40(sp)
	sd	s0,32(sp)
	sd	s1,24(sp)
	sd	s2,16(sp)
	sd	s3,8(sp)
	.cfi_offset 1, -8
	.cfi_offset 8, -16
	.cfi_offset 9, -24
	.cfi_offset 18, -32
	.cfi_offset 19, -40
	.loc 1 211 3
	.loc 1 212 3
	.loc 1 213 3
.LVL118:
	.loc 1 214 3
	.loc 1 214 6 is_stmt 0
	blt	a1,zero,.L50
	mv	s1,a0
	mv	s2,a2
	srai	s0,a1,1
.LVL119:
	.loc 1 214 22 discriminator 2
	addi	s3,s0,3
	.loc 1 214 29 discriminator 2
	call	caml_string_length
.LVL120:
	.loc 1 214 15 discriminator 2
	bgeu	s3,a0,.L50
	.loc 1 215 3 is_stmt 1
	.loc 1 215 9 is_stmt 0
	lw	a5,8(s2)
.LVL121:
	.loc 1 222 3 is_stmt 1
	.loc 1 222 6 is_stmt 0
	srliw	a4,a5,24
.LVL122:
	.loc 1 223 3 is_stmt 1
	.loc 1 223 19 is_stmt 0
	srai	a3,a5,16
.LVL123:
	.loc 1 224 3 is_stmt 1
	.loc 1 224 19 is_stmt 0
	srai	a2,a5,8
.LVL124:
	.loc 1 225 3 is_stmt 1
	.loc 1 227 3
	add	a0,s0,s1
	.loc 1 227 20 is_stmt 0
	sb	a5,0(a0)
	.loc 1 228 3 is_stmt 1
	.loc 1 228 24 is_stmt 0
	sb	a2,1(a0)
	.loc 1 229 3 is_stmt 1
	.loc 1 229 24 is_stmt 0
	sb	a3,2(a0)
	.loc 1 230 3 is_stmt 1
	.loc 1 230 24 is_stmt 0
	sb	a4,3(a0)
	.loc 1 231 3 is_stmt 1
	.loc 1 232 1 is_stmt 0
	li	a0,1
	ld	ra,40(sp)
	.cfi_remember_state
	.cfi_restore 1
	ld	s0,32(sp)
	.cfi_restore 8
.LVL125:
	ld	s1,24(sp)
	.cfi_restore 9
.LVL126:
	ld	s2,16(sp)
	.cfi_restore 18
.LVL127:
	ld	s3,8(sp)
	.cfi_restore 19
.LVL128:
	addi	sp,sp,48
	.cfi_def_cfa_offset 0
	jr	ra
.LVL129:
.L50:
	.cfi_restore_state
	.loc 1 214 54 is_stmt 1 discriminator 3
	call	caml_array_bound_error
.LVL130:
	.cfi_endproc
.LFE29:
	.size	caml_bytes_set32, .-caml_bytes_set32
	.align	1
	.globl	caml_bytes_set64
	.type	caml_bytes_set64, @function
caml_bytes_set64:
.LFB30:
	.loc 1 235 1
	.cfi_startproc
.LVL131:
	addi	sp,sp,-48
	.cfi_def_cfa_offset 48
	sd	ra,40(sp)
	sd	s0,32(sp)
	sd	s1,24(sp)
	sd	s2,16(sp)
	sd	s3,8(sp)
	.cfi_offset 1, -8
	.cfi_offset 8, -16
	.cfi_offset 9, -24
	.cfi_offset 18, -32
	.cfi_offset 19, -40
	.loc 1 236 3
	.loc 1 237 3
	.loc 1 238 3
.LVL132:
	.loc 1 239 3
	.loc 1 239 6 is_stmt 0
	blt	a1,zero,.L54
	mv	s1,a0
	mv	s2,a2
	srai	s0,a1,1
.LVL133:
	.loc 1 239 22 discriminator 2
	addi	s3,s0,7
	.loc 1 239 29 discriminator 2
	call	caml_string_length
.LVL134:
	.loc 1 239 15 discriminator 2
	bgeu	s3,a0,.L54
	.loc 1 240 3 is_stmt 1
	.loc 1 240 9 is_stmt 0
	mv	a0,s2
	call	caml_Int64_val
.LVL135:
	.loc 1 251 3 is_stmt 1
	.loc 1 251 6 is_stmt 0
	srli	a4,a0,56
.LVL136:
	.loc 1 252 3 is_stmt 1
	.loc 1 252 19 is_stmt 0
	srai	a3,a0,48
.LVL137:
	.loc 1 253 3 is_stmt 1
	.loc 1 253 19 is_stmt 0
	srai	a2,a0,40
.LVL138:
	.loc 1 254 3 is_stmt 1
	.loc 1 254 19 is_stmt 0
	srai	a1,a0,32
.LVL139:
	.loc 1 255 3 is_stmt 1
	.loc 1 255 6 is_stmt 0
	srliw	a6,a0,24
.LVL140:
	.loc 1 256 3 is_stmt 1
	.loc 1 256 19 is_stmt 0
	srai	a7,a0,16
.LVL141:
	.loc 1 257 3 is_stmt 1
	.loc 1 257 19 is_stmt 0
	srai	t1,a0,8
.LVL142:
	.loc 1 258 3 is_stmt 1
	.loc 1 260 3
	add	a5,s0,s1
	.loc 1 260 20 is_stmt 0
	sb	a0,0(a5)
	.loc 1 261 3 is_stmt 1
	.loc 1 261 24 is_stmt 0
	sb	t1,1(a5)
	.loc 1 262 3 is_stmt 1
	.loc 1 262 24 is_stmt 0
	sb	a7,2(a5)
	.loc 1 263 3 is_stmt 1
	.loc 1 263 24 is_stmt 0
	sb	a6,3(a5)
	.loc 1 264 3 is_stmt 1
	.loc 1 264 24 is_stmt 0
	sb	a1,4(a5)
	.loc 1 265 3 is_stmt 1
	.loc 1 265 24 is_stmt 0
	sb	a2,5(a5)
	.loc 1 266 3 is_stmt 1
	.loc 1 266 24 is_stmt 0
	sb	a3,6(a5)
	.loc 1 267 3 is_stmt 1
	.loc 1 267 24 is_stmt 0
	sb	a4,7(a5)
	.loc 1 268 3 is_stmt 1
	.loc 1 269 1 is_stmt 0
	li	a0,1
.LVL143:
	ld	ra,40(sp)
	.cfi_remember_state
	.cfi_restore 1
	ld	s0,32(sp)
	.cfi_restore 8
.LVL144:
	ld	s1,24(sp)
	.cfi_restore 9
.LVL145:
	ld	s2,16(sp)
	.cfi_restore 18
.LVL146:
	ld	s3,8(sp)
	.cfi_restore 19
.LVL147:
	addi	sp,sp,48
	.cfi_def_cfa_offset 0
	jr	ra
.LVL148:
.L54:
	.cfi_restore_state
	.loc 1 239 54 is_stmt 1 discriminator 3
	call	caml_array_bound_error
.LVL149:
	.cfi_endproc
.LFE30:
	.size	caml_bytes_set64, .-caml_bytes_set64
	.align	1
	.globl	caml_string_equal
	.type	caml_string_equal, @function
caml_string_equal:
.LFB31:
	.loc 1 272 1
	.cfi_startproc
.LVL150:
	.loc 1 273 3
	.loc 1 274 3
	.loc 1 276 3
	.loc 1 276 6 is_stmt 0
	beq	a0,a1,.L61
	.loc 1 277 3 is_stmt 1
	.loc 1 277 9 is_stmt 0
	ld	a5,-8(a0)
	.loc 1 277 7
	srli	a5,a5,10
.LVL151:
	.loc 1 278 3 is_stmt 1
	.loc 1 278 9 is_stmt 0
	ld	a4,-8(a1)
	.loc 1 278 7
	srli	a4,a4,10
.LVL152:
	.loc 1 279 3 is_stmt 1
	.loc 1 279 6 is_stmt 0
	bne	a5,a4,.L62
.LVL153:
.L59:
	.loc 1 280 41 is_stmt 1 discriminator 1
	.loc 1 280 3 is_stmt 0 discriminator 1
	beq	a5,zero,.L64
	.loc 1 281 5 is_stmt 1
	.loc 1 281 9 is_stmt 0
	ld	a3,0(a0)
	.loc 1 281 16
	ld	a4,0(a1)
	.loc 1 281 8
	bne	a3,a4,.L63
	.loc 1 280 50 is_stmt 1 discriminator 2
	.loc 1 280 53 is_stmt 0 discriminator 2
	addi	a5,a5,-1
.LVL154:
	.loc 1 280 59 discriminator 2
	addi	a0,a0,8
.LVL155:
	.loc 1 280 65 discriminator 2
	addi	a1,a1,8
.LVL156:
	j	.L59
.L64:
	.loc 1 282 10
	li	a0,3
.LVL157:
	ret
.LVL158:
.L61:
	.loc 1 276 24
	li	a0,3
.LVL159:
	ret
.LVL160:
.L62:
	.loc 1 279 26
	li	a0,1
.LVL161:
	ret
.LVL162:
.L63:
	.loc 1 281 28
	li	a0,1
.LVL163:
	.loc 1 283 1
	ret
	.cfi_endproc
.LFE31:
	.size	caml_string_equal, .-caml_string_equal
	.align	1
	.globl	caml_bytes_equal
	.type	caml_bytes_equal, @function
caml_bytes_equal:
.LFB32:
	.loc 1 286 1 is_stmt 1
	.cfi_startproc
.LVL164:
	addi	sp,sp,-16
	.cfi_def_cfa_offset 16
	sd	ra,8(sp)
	.cfi_offset 1, -8
	.loc 1 287 3
	.loc 1 287 10 is_stmt 0
	call	caml_string_equal
.LVL165:
	.loc 1 288 1
	ld	ra,8(sp)
	.cfi_restore 1
	addi	sp,sp,16
	.cfi_def_cfa_offset 0
	jr	ra
	.cfi_endproc
.LFE32:
	.size	caml_bytes_equal, .-caml_bytes_equal
	.align	1
	.globl	caml_string_notequal
	.type	caml_string_notequal, @function
caml_string_notequal:
.LFB33:
	.loc 1 291 1 is_stmt 1
	.cfi_startproc
.LVL166:
	addi	sp,sp,-16
	.cfi_def_cfa_offset 16
	sd	ra,8(sp)
	.cfi_offset 1, -8
	.loc 1 292 3
	.loc 1 292 10 is_stmt 0
	call	caml_string_equal
.LVL167:
	.loc 1 293 1
	li	a5,4
	sub	a0,a5,a0
	ld	ra,8(sp)
	.cfi_restore 1
	addi	sp,sp,16
	.cfi_def_cfa_offset 0
	jr	ra
	.cfi_endproc
.LFE33:
	.size	caml_string_notequal, .-caml_string_notequal
	.align	1
	.globl	caml_bytes_notequal
	.type	caml_bytes_notequal, @function
caml_bytes_notequal:
.LFB34:
	.loc 1 296 1 is_stmt 1
	.cfi_startproc
.LVL168:
	addi	sp,sp,-16
	.cfi_def_cfa_offset 16
	sd	ra,8(sp)
	.cfi_offset 1, -8
	.loc 1 297 3
	.loc 1 297 10 is_stmt 0
	call	caml_string_notequal
.LVL169:
	.loc 1 298 1
	ld	ra,8(sp)
	.cfi_restore 1
	addi	sp,sp,16
	.cfi_def_cfa_offset 0
	jr	ra
	.cfi_endproc
.LFE34:
	.size	caml_bytes_notequal, .-caml_bytes_notequal
	.align	1
	.globl	caml_string_compare
	.type	caml_string_compare, @function
caml_string_compare:
.LFB35:
	.loc 1 301 1 is_stmt 1
	.cfi_startproc
.LVL170:
	.loc 1 302 3
	.loc 1 303 3
	.loc 1 305 3
	.loc 1 305 6 is_stmt 0
	beq	a0,a1,.L75
	.loc 1 301 1
	addi	sp,sp,-48
	.cfi_def_cfa_offset 48
	sd	ra,40(sp)
	sd	s0,32(sp)
	sd	s1,24(sp)
	sd	s2,16(sp)
	sd	s3,8(sp)
	.cfi_offset 1, -8
	.cfi_offset 8, -16
	.cfi_offset 9, -24
	.cfi_offset 18, -32
	.cfi_offset 19, -40
	mv	s0,a0
	mv	s1,a1
	.loc 1 306 3 is_stmt 1
	.loc 1 306 10 is_stmt 0
	call	caml_string_length
.LVL171:
	mv	s2,a0
.LVL172:
	.loc 1 307 3 is_stmt 1
	.loc 1 307 10 is_stmt 0
	mv	a0,s1
.LVL173:
	call	caml_string_length
.LVL174:
	mv	s3,a0
.LVL175:
	.loc 1 308 3 is_stmt 1
	.loc 1 308 9 is_stmt 0
	mv	a2,s2
	bleu	s2,a0,.L74
	mv	a2,a0
.L74:
	mv	a1,s1
	mv	a0,s0
.LVL176:
	call	memcmp
.LVL177:
	.loc 1 309 3 is_stmt 1
	.loc 1 309 6 is_stmt 0
	blt	a0,zero,.L76
	.loc 1 310 3 is_stmt 1
	.loc 1 310 6 is_stmt 0
	bgt	a0,zero,.L77
	.loc 1 311 3 is_stmt 1
	.loc 1 311 6 is_stmt 0
	bltu	s2,s3,.L78
	.loc 1 312 3 is_stmt 1
	.loc 1 312 6 is_stmt 0
	bgtu	s2,s3,.L79
	.loc 1 313 10
	li	a0,1
.LVL178:
.L71:
	.loc 1 314 1
	ld	ra,40(sp)
	.cfi_restore 1
	ld	s0,32(sp)
	.cfi_restore 8
.LVL179:
	ld	s1,24(sp)
	.cfi_restore 9
.LVL180:
	ld	s2,16(sp)
	.cfi_restore 18
.LVL181:
	ld	s3,8(sp)
	.cfi_restore 19
.LVL182:
	addi	sp,sp,48
	.cfi_def_cfa_offset 0
	jr	ra
.LVL183:
.L75:
	.loc 1 305 24
	li	a0,1
.LVL184:
	.loc 1 314 1
	ret
.LVL185:
.L76:
	.cfi_def_cfa_offset 48
	.cfi_offset 1, -8
	.cfi_offset 8, -16
	.cfi_offset 9, -24
	.cfi_offset 18, -32
	.cfi_offset 19, -40
	.loc 1 309 23
	li	a0,-1
.LVL186:
	j	.L71
.LVL187:
.L77:
	.loc 1 310 23
	li	a0,3
.LVL188:
	j	.L71
.LVL189:
.L78:
	.loc 1 311 27
	li	a0,-1
.LVL190:
	j	.L71
.LVL191:
.L79:
	.loc 1 312 27
	li	a0,3
.LVL192:
	j	.L71
	.cfi_endproc
.LFE35:
	.size	caml_string_compare, .-caml_string_compare
	.align	1
	.globl	caml_bytes_compare
	.type	caml_bytes_compare, @function
caml_bytes_compare:
.LFB36:
	.loc 1 317 1 is_stmt 1
	.cfi_startproc
.LVL193:
	addi	sp,sp,-16
	.cfi_def_cfa_offset 16
	sd	ra,8(sp)
	.cfi_offset 1, -8
	.loc 1 318 3
	.loc 1 318 10 is_stmt 0
	call	caml_string_compare
.LVL194:
	.loc 1 319 1
	ld	ra,8(sp)
	.cfi_restore 1
	addi	sp,sp,16
	.cfi_def_cfa_offset 0
	jr	ra
	.cfi_endproc
.LFE36:
	.size	caml_bytes_compare, .-caml_bytes_compare
	.align	1
	.globl	caml_string_lessthan
	.type	caml_string_lessthan, @function
caml_string_lessthan:
.LFB37:
	.loc 1 322 1 is_stmt 1
	.cfi_startproc
.LVL195:
	addi	sp,sp,-16
	.cfi_def_cfa_offset 16
	sd	ra,8(sp)
	.cfi_offset 1, -8
	.loc 1 323 3
	.loc 1 323 10 is_stmt 0
	call	caml_string_compare
.LVL196:
	.loc 1 323 62
	ble	a0,zero,.L90
	li	a0,1
.L86:
	.loc 1 324 1
	ld	ra,8(sp)
	.cfi_remember_state
	.cfi_restore 1
	addi	sp,sp,16
	.cfi_def_cfa_offset 0
	jr	ra
.L90:
	.cfi_restore_state
	.loc 1 323 62
	li	a0,3
	j	.L86
	.cfi_endproc
.LFE37:
	.size	caml_string_lessthan, .-caml_string_lessthan
	.align	1
	.globl	caml_bytes_lessthan
	.type	caml_bytes_lessthan, @function
caml_bytes_lessthan:
.LFB38:
	.loc 1 327 1 is_stmt 1
	.cfi_startproc
.LVL197:
	addi	sp,sp,-16
	.cfi_def_cfa_offset 16
	sd	ra,8(sp)
	.cfi_offset 1, -8
	.loc 1 328 3
	.loc 1 328 10 is_stmt 0
	call	caml_string_lessthan
.LVL198:
	.loc 1 329 1
	ld	ra,8(sp)
	.cfi_restore 1
	addi	sp,sp,16
	.cfi_def_cfa_offset 0
	jr	ra
	.cfi_endproc
.LFE38:
	.size	caml_bytes_lessthan, .-caml_bytes_lessthan
	.align	1
	.globl	caml_string_lessequal
	.type	caml_string_lessequal, @function
caml_string_lessequal:
.LFB39:
	.loc 1 333 1 is_stmt 1
	.cfi_startproc
.LVL199:
	addi	sp,sp,-16
	.cfi_def_cfa_offset 16
	sd	ra,8(sp)
	.cfi_offset 1, -8
	.loc 1 334 3
	.loc 1 334 10 is_stmt 0
	call	caml_string_compare
.LVL200:
	.loc 1 334 63
	li	a5,1
	ble	a0,a5,.L97
	li	a0,1
.L93:
	.loc 1 335 1
	ld	ra,8(sp)
	.cfi_remember_state
	.cfi_restore 1
	addi	sp,sp,16
	.cfi_def_cfa_offset 0
	jr	ra
.L97:
	.cfi_restore_state
	.loc 1 334 63
	li	a0,3
	j	.L93
	.cfi_endproc
.LFE39:
	.size	caml_string_lessequal, .-caml_string_lessequal
	.align	1
	.globl	caml_bytes_lessequal
	.type	caml_bytes_lessequal, @function
caml_bytes_lessequal:
.LFB40:
	.loc 1 338 1 is_stmt 1
	.cfi_startproc
.LVL201:
	addi	sp,sp,-16
	.cfi_def_cfa_offset 16
	sd	ra,8(sp)
	.cfi_offset 1, -8
	.loc 1 339 3
	.loc 1 339 10 is_stmt 0
	call	caml_string_lessequal
.LVL202:
	.loc 1 340 1
	ld	ra,8(sp)
	.cfi_restore 1
	addi	sp,sp,16
	.cfi_def_cfa_offset 0
	jr	ra
	.cfi_endproc
.LFE40:
	.size	caml_bytes_lessequal, .-caml_bytes_lessequal
	.align	1
	.globl	caml_string_greaterthan
	.type	caml_string_greaterthan, @function
caml_string_greaterthan:
.LFB41:
	.loc 1 344 1 is_stmt 1
	.cfi_startproc
.LVL203:
	addi	sp,sp,-16
	.cfi_def_cfa_offset 16
	sd	ra,8(sp)
	.cfi_offset 1, -8
	.loc 1 345 3
	.loc 1 345 10 is_stmt 0
	call	caml_string_compare
.LVL204:
	.loc 1 345 62
	li	a5,1
	bgt	a0,a5,.L104
	li	a0,1
.L100:
	.loc 1 346 1
	ld	ra,8(sp)
	.cfi_remember_state
	.cfi_restore 1
	addi	sp,sp,16
	.cfi_def_cfa_offset 0
	jr	ra
.L104:
	.cfi_restore_state
	.loc 1 345 62
	li	a0,3
	j	.L100
	.cfi_endproc
.LFE41:
	.size	caml_string_greaterthan, .-caml_string_greaterthan
	.align	1
	.globl	caml_bytes_greaterthan
	.type	caml_bytes_greaterthan, @function
caml_bytes_greaterthan:
.LFB42:
	.loc 1 349 1 is_stmt 1
	.cfi_startproc
.LVL205:
	addi	sp,sp,-16
	.cfi_def_cfa_offset 16
	sd	ra,8(sp)
	.cfi_offset 1, -8
	.loc 1 350 3
	.loc 1 350 10 is_stmt 0
	call	caml_string_greaterthan
.LVL206:
	.loc 1 351 1
	ld	ra,8(sp)
	.cfi_restore 1
	addi	sp,sp,16
	.cfi_def_cfa_offset 0
	jr	ra
	.cfi_endproc
.LFE42:
	.size	caml_bytes_greaterthan, .-caml_bytes_greaterthan
	.align	1
	.globl	caml_string_greaterequal
	.type	caml_string_greaterequal, @function
caml_string_greaterequal:
.LFB43:
	.loc 1 354 1 is_stmt 1
	.cfi_startproc
.LVL207:
	addi	sp,sp,-16
	.cfi_def_cfa_offset 16
	sd	ra,8(sp)
	.cfi_offset 1, -8
	.loc 1 355 3
	.loc 1 355 10 is_stmt 0
	call	caml_string_compare
.LVL208:
	.loc 1 355 63
	bgt	a0,zero,.L111
	li	a0,1
.L107:
	.loc 1 356 1
	ld	ra,8(sp)
	.cfi_remember_state
	.cfi_restore 1
	addi	sp,sp,16
	.cfi_def_cfa_offset 0
	jr	ra
.L111:
	.cfi_restore_state
	.loc 1 355 63
	li	a0,3
	j	.L107
	.cfi_endproc
.LFE43:
	.size	caml_string_greaterequal, .-caml_string_greaterequal
	.align	1
	.globl	caml_bytes_greaterequal
	.type	caml_bytes_greaterequal, @function
caml_bytes_greaterequal:
.LFB44:
	.loc 1 359 1 is_stmt 1
	.cfi_startproc
.LVL209:
	addi	sp,sp,-16
	.cfi_def_cfa_offset 16
	sd	ra,8(sp)
	.cfi_offset 1, -8
	.loc 1 360 3
	.loc 1 360 10 is_stmt 0
	call	caml_string_greaterequal
.LVL210:
	.loc 1 361 1
	ld	ra,8(sp)
	.cfi_restore 1
	addi	sp,sp,16
	.cfi_def_cfa_offset 0
	jr	ra
	.cfi_endproc
.LFE44:
	.size	caml_bytes_greaterequal, .-caml_bytes_greaterequal
	.align	1
	.globl	caml_blit_bytes
	.type	caml_blit_bytes, @function
caml_blit_bytes:
.LFB45:
	.loc 1 365 1 is_stmt 1
	.cfi_startproc
.LVL211:
	addi	sp,sp,-16
	.cfi_def_cfa_offset 16
	sd	ra,8(sp)
	.cfi_offset 1, -8
	mv	a5,a2
	.loc 1 366 3
	.loc 1 366 12 is_stmt 0
	srai	a3,a3,1
.LVL212:
	.loc 1 366 39
	srai	a1,a1,1
.LVL213:
	.loc 1 366 3
	srai	a2,a4,1
.LVL214:
	add	a1,a1,a0
	add	a0,a3,a5
.LVL215:
	call	memmove
.LVL216:
	.loc 1 367 3 is_stmt 1
	.loc 1 368 1 is_stmt 0
	li	a0,1
	ld	ra,8(sp)
	.cfi_restore 1
	addi	sp,sp,16
	.cfi_def_cfa_offset 0
	jr	ra
	.cfi_endproc
.LFE45:
	.size	caml_blit_bytes, .-caml_blit_bytes
	.align	1
	.globl	caml_blit_string
	.type	caml_blit_string, @function
caml_blit_string:
.LFB46:
	.loc 1 372 1 is_stmt 1
	.cfi_startproc
.LVL217:
	addi	sp,sp,-16
	.cfi_def_cfa_offset 16
	sd	ra,8(sp)
	.cfi_offset 1, -8
	.loc 1 373 3
	.loc 1 373 10 is_stmt 0
	call	caml_blit_bytes
.LVL218:
	.loc 1 374 1
	ld	ra,8(sp)
	.cfi_restore 1
	addi	sp,sp,16
	.cfi_def_cfa_offset 0
	jr	ra
	.cfi_endproc
.LFE46:
	.size	caml_blit_string, .-caml_blit_string
	.align	1
	.globl	caml_fill_bytes
	.type	caml_fill_bytes, @function
caml_fill_bytes:
.LFB47:
	.loc 1 377 1 is_stmt 1
	.cfi_startproc
.LVL219:
	addi	sp,sp,-16
	.cfi_def_cfa_offset 16
	sd	ra,8(sp)
	.cfi_offset 1, -8
	.loc 1 378 3
	.loc 1 378 11 is_stmt 0
	srai	a5,a1,1
	.loc 1 378 38
	srai	a1,a3,1
.LVL220:
	.loc 1 378 3
	srai	a2,a2,1
.LVL221:
	sext.w	a1,a1
	add	a0,a5,a0
.LVL222:
	call	memset
.LVL223:
	.loc 1 379 3 is_stmt 1
	.loc 1 380 1 is_stmt 0
	li	a0,1
	ld	ra,8(sp)
	.cfi_restore 1
	addi	sp,sp,16
	.cfi_def_cfa_offset 0
	jr	ra
	.cfi_endproc
.LFE47:
	.size	caml_fill_bytes, .-caml_fill_bytes
	.align	1
	.globl	caml_fill_string
	.type	caml_fill_string, @function
caml_fill_string:
.LFB48:
	.loc 1 386 1 is_stmt 1
	.cfi_startproc
.LVL224:
	addi	sp,sp,-16
	.cfi_def_cfa_offset 16
	sd	ra,8(sp)
	.cfi_offset 1, -8
	.loc 1 387 3
	.loc 1 387 10 is_stmt 0
	call	caml_fill_bytes
.LVL225:
	.loc 1 388 1
	ld	ra,8(sp)
	.cfi_restore 1
	addi	sp,sp,16
	.cfi_def_cfa_offset 0
	jr	ra
	.cfi_endproc
.LFE48:
	.size	caml_fill_string, .-caml_fill_string
	.align	1
	.globl	caml_alloc_sprintf
	.type	caml_alloc_sprintf, @function
caml_alloc_sprintf:
.LFB49:
	.loc 1 391 1 is_stmt 1
	.cfi_startproc
.LVL226:
	addi	sp,sp,-240
	.cfi_def_cfa_offset 240
	sd	ra,168(sp)
	sd	s0,160(sp)
	sd	s1,152(sp)
	sd	s2,144(sp)
	.cfi_offset 1, -72
	.cfi_offset 8, -80
	.cfi_offset 9, -88
	.cfi_offset 18, -96
	mv	s1,a0
	sd	a1,184(sp)
	sd	a2,192(sp)
	sd	a3,200(sp)
	sd	a4,208(sp)
	sd	a5,216(sp)
	sd	a6,224(sp)
	sd	a7,232(sp)
	.loc 1 392 3
	.loc 1 393 3
	.loc 1 394 3
	.loc 1 395 3
	.loc 1 399 3
	addi	a3,sp,184
	sd	a3,136(sp)
	.loc 1 404 3
	.loc 1 404 7 is_stmt 0
	mv	a2,a0
	li	a1,128
	addi	a0,sp,8
.LVL227:
	call	vsnprintf
.LVL228:
	mv	s0,a0
.LVL229:
	.loc 1 405 3 is_stmt 1
	.loc 1 406 3
	.loc 1 406 9 is_stmt 0
	sext.w	a4,a0
	.loc 1 406 6
	li	a5,127
	bgtu	a4,a5,.L123
	.loc 1 410 5 is_stmt 1
	.loc 1 410 11 is_stmt 0
	addi	a1,sp,8
	call	caml_alloc_initialized_string
.LVL230:
	mv	s1,a0
.LVL231:
.L122:
	.loc 1 464 1
	mv	a0,s1
	ld	ra,168(sp)
	.cfi_remember_state
	.cfi_restore 1
	ld	s0,160(sp)
	.cfi_restore 8
	ld	s1,152(sp)
	.cfi_restore 9
.LVL232:
	ld	s2,144(sp)
	.cfi_restore 18
	addi	sp,sp,240
	.cfi_def_cfa_offset 0
	jr	ra
.LVL233:
.L123:
	.cfi_restore_state
.LBB2:
	.loc 1 415 5 is_stmt 1
	.loc 1 415 27 is_stmt 0
	mv	a0,s1
.LVL234:
	call	caml_stat_strdup
.LVL235:
	mv	s2,a0
.LVL236:
	.loc 1 417 5 is_stmt 1
	.loc 1 417 11 is_stmt 0
	mv	a0,s0
.LVL237:
	call	caml_alloc_string
.LVL238:
	mv	s1,a0
.LVL239:
	.loc 1 421 5 is_stmt 1
	addi	a3,sp,184
	sd	a3,136(sp)
	.loc 1 422 5
	mv	a2,s2
	addiw	a1,s0,1
	call	vsnprintf
.LVL240:
	.loc 1 423 5
	.loc 1 424 5
	mv	a0,s2
	call	caml_stat_free
.LVL241:
.LBE2:
	.loc 1 426 3
	.loc 1 426 10 is_stmt 0
	j	.L122
	.cfi_endproc
.LFE49:
	.size	caml_alloc_sprintf, .-caml_alloc_sprintf
	.align	1
	.globl	caml_string_of_bytes
	.type	caml_string_of_bytes, @function
caml_string_of_bytes:
.LFB50:
	.loc 1 467 1 is_stmt 1
	.cfi_startproc
.LVL242:
	.loc 1 468 3
	.loc 1 469 1 is_stmt 0
	ret
	.cfi_endproc
.LFE50:
	.size	caml_string_of_bytes, .-caml_string_of_bytes
	.align	1
	.globl	caml_bytes_of_string
	.type	caml_bytes_of_string, @function
caml_bytes_of_string:
.LFB51:
	.loc 1 472 1 is_stmt 1
	.cfi_startproc
.LVL243:
	.loc 1 473 3
	.loc 1 474 1 is_stmt 0
	ret
	.cfi_endproc
.LFE51:
	.size	caml_bytes_of_string, .-caml_bytes_of_string
	.comm	caml_major_work_credit,8,8
	.comm	caml_major_ring_index,4,4
	.comm	caml_major_ring,400,8
.Letext0:
	.file 2 "/home/sai/Shakti-TEE-Build/riscv/lib/gcc/riscv64-unknown-elf/9.2.0/include/stddef.h"
	.file 3 "/home/sai/Shakti-TEE-Build/riscv/lib/gcc/riscv64-unknown-elf/9.2.0/include/stdarg.h"
	.file 4 "/home/sai/ocaml-freestanding-riscv/nolibc/include/stdio.h"
	.file 5 "caml/config.h"
	.file 6 "caml/misc.h"
	.file 7 "caml/mlvalues.h"
	.file 8 "/home/sai/ocaml-freestanding-riscv/nolibc/include/signal.h"
	.file 9 "caml/fail.h"
	.file 10 "caml/freelist.h"
	.file 11 "caml/major_gc.h"
	.file 12 "caml/address_class.h"
	.file 13 "caml/minor_gc.h"
	.file 14 "caml/memory.h"
	.file 15 "caml/alloc.h"
	.file 16 "/home/sai/ocaml-freestanding-riscv/nolibc/include/string.h"