	.file	"dtoa.c"
	.option nopic
	.attribute arch, "rv64i2p0_m2p0_a2p0_f2p0_d2p0_c2p0"
	.attribute unaligned_access, 0
	.attribute stack_align, 16
	.text
.Ltext0:
	.cfi_sections	.debug_frame
	.align	1
	.type	hi0bits, @function
hi0bits:
.LFB4:
	.file 1 "dtoa.c"
	.loc 1 1767 1
	.cfi_startproc
.LVL0:
	mv	a5,a0
	.loc 1 1768 2
.LVL1:
	.loc 1 1770 2
	.loc 1 1770 10 is_stmt 0
	li	a4,-65536
	and	a4,a0,a4
	sext.w	a4,a4
	.loc 1 1770 5
	bne	a4,zero,.L7
	.loc 1 1771 3 is_stmt 1
.LVL2:
	.loc 1 1772 3
	.loc 1 1772 5 is_stmt 0
	slliw	a5,a0,16
.LVL3:
	.loc 1 1771 5
	li	a0,16
.LVL4:
.L2:
	.loc 1 1774 2 is_stmt 1
	.loc 1 1774 10 is_stmt 0
	li	a4,-16777216
	and	a4,a5,a4
	sext.w	a4,a4
	.loc 1 1774 5
	bne	a4,zero,.L3
	.loc 1 1775 3 is_stmt 1
	.loc 1 1775 5 is_stmt 0
	addiw	a0,a0,8
.LVL5:
	.loc 1 1776 3 is_stmt 1
	.loc 1 1776 5 is_stmt 0
	slliw	a5,a5,8
.LVL6:
.L3:
	.loc 1 1778 2 is_stmt 1
	.loc 1 1778 10 is_stmt 0
	li	a4,-268435456
	and	a4,a5,a4
	sext.w	a4,a4
	.loc 1 1778 5
	bne	a4,zero,.L4
	.loc 1 1779 3 is_stmt 1
	.loc 1 1779 5 is_stmt 0
	addiw	a0,a0,4
.LVL7:
	.loc 1 1780 3 is_stmt 1
	.loc 1 1780 5 is_stmt 0
	slliw	a5,a5,4
.LVL8:
.L4:
	.loc 1 1782 2 is_stmt 1
	.loc 1 1782 10 is_stmt 0
	li	a4,-1073741824
	and	a4,a5,a4
	sext.w	a4,a4
	.loc 1 1782 5
	bne	a4,zero,.L5
	.loc 1 1783 3 is_stmt 1
	.loc 1 1783 5 is_stmt 0
	addiw	a0,a0,2
.LVL9:
	.loc 1 1784 3 is_stmt 1
	.loc 1 1784 5 is_stmt 0
	slliw	a5,a5,2
.LVL10:
.L5:
	.loc 1 1786 2 is_stmt 1
	.loc 1 1786 5 is_stmt 0
	blt	a5,zero,.L6
	.loc 1 1787 3 is_stmt 1
	.loc 1 1787 4 is_stmt 0
	addiw	a0,a0,1
.LVL11:
	.loc 1 1788 3 is_stmt 1
	.loc 1 1788 11 is_stmt 0
	li	a4,1073741824
	and	a5,a5,a4
.LVL12:
	sext.w	a5,a5
	.loc 1 1788 6
	beq	a5,zero,.L9
.L6:
	.loc 1 1792 2
	ret
.LVL13:
.L7:
	.loc 1 1768 6
	li	a0,0
.LVL14:
	j	.L2
.LVL15:
.L9:
	.loc 1 1789 11
	li	a0,32
	j	.L6
	.cfi_endproc
.LFE4:
	.size	hi0bits, .-hi0bits
	.align	1
	.type	lo0bits, @function
lo0bits:
.LFB5:
	.loc 1 1796 1 is_stmt 1
	.cfi_startproc
.LVL16:
	mv	a4,a0
	.loc 1 1797 2
	.loc 1 1798 2
	.loc 1 1798 8 is_stmt 0
	lw	a5,0(a0)
.LVL17:
	.loc 1 1800 2 is_stmt 1
	.loc 1 1800 8 is_stmt 0
	andi	a3,a5,7
	.loc 1 1800 5
	beq	a3,zero,.L11
	.loc 1 1801 3 is_stmt 1
	.loc 1 1801 9 is_stmt 0
	andi	a3,a5,1
	.loc 1 1801 6
	bne	a3,zero,.L19
	.loc 1 1803 3 is_stmt 1
	.loc 1 1803 9 is_stmt 0
	andi	a3,a5,2
	.loc 1 1803 6
	beq	a3,zero,.L13
	.loc 1 1804 4 is_stmt 1
	.loc 1 1804 11 is_stmt 0
	srliw	a5,a5,1
.LVL18:
	.loc 1 1804 7
	sw	a5,0(a0)
.LVL19:
	.loc 1 1805 4 is_stmt 1
	.loc 1 1805 11 is_stmt 0
	li	a0,1
.LVL20:
	ret
.LVL21:
.L13:
	.loc 1 1807 3 is_stmt 1
	.loc 1 1807 10 is_stmt 0
	srliw	a5,a5,2
.LVL22:
	.loc 1 1807 6
	sw	a5,0(a0)
.LVL23:
	.loc 1 1808 3 is_stmt 1
	.loc 1 1808 10 is_stmt 0
	li	a0,2
.LVL24:
	ret
.LVL25:
.L11:
	.loc 1 1810 2 is_stmt 1
	.loc 1 1811 2
	.loc 1 1811 10 is_stmt 0
	slli	a3,a5,48
	srli	a3,a3,48
	.loc 1 1811 5
	bne	a3,zero,.L20
	.loc 1 1812 3 is_stmt 1
.LVL26:
	.loc 1 1813 3
	.loc 1 1813 5 is_stmt 0
	srliw	a5,a5,16
.LVL27:
	.loc 1 1812 5
	li	a0,16
.LVL28:
	j	.L14
.LVL29:
.L20:
	.loc 1 1810 4
	li	a0,0
.LVL30:
.L14:
	.loc 1 1815 2 is_stmt 1
	.loc 1 1815 10 is_stmt 0
	andi	a3,a5,0xff
	.loc 1 1815 5
	bne	a3,zero,.L15
	.loc 1 1816 3 is_stmt 1
	.loc 1 1816 5 is_stmt 0
	addiw	a0,a0,8
.LVL31:
	.loc 1 1817 3 is_stmt 1
	.loc 1 1817 5 is_stmt 0
	srliw	a5,a5,8
.LVL32:
.L15:
	.loc 1 1819 2 is_stmt 1
	.loc 1 1819 10 is_stmt 0
	andi	a3,a5,15
	.loc 1 1819 5
	bne	a3,zero,.L16
	.loc 1 1820 3 is_stmt 1
	.loc 1 1820 5 is_stmt 0
	addiw	a0,a0,4
.LVL33:
	.loc 1 1821 3 is_stmt 1
	.loc 1 1821 5 is_stmt 0
	srliw	a5,a5,4
.LVL34:
.L16:
	.loc 1 1823 2 is_stmt 1
	.loc 1 1823 10 is_stmt 0
	andi	a3,a5,3
	.loc 1 1823 5
	bne	a3,zero,.L17
	.loc 1 1824 3 is_stmt 1
	.loc 1 1824 5 is_stmt 0
	addiw	a0,a0,2
.LVL35:
	.loc 1 1825 3 is_stmt 1
	.loc 1 1825 5 is_stmt 0
	srliw	a5,a5,2
.LVL36:
.L17:
	.loc 1 1827 2 is_stmt 1
	.loc 1 1827 10 is_stmt 0
	andi	a3,a5,1
	.loc 1 1827 5
	bne	a3,zero,.L18
	.loc 1 1828 3 is_stmt 1
	.loc 1 1828 4 is_stmt 0
	addiw	a0,a0,1
.LVL37:
	.loc 1 1829 3 is_stmt 1
	.loc 1 1829 5 is_stmt 0
	srliw	a5,a5,1
.LVL38:
	.loc 1 1830 3 is_stmt 1
	.loc 1 1830 6 is_stmt 0
	beq	a5,zero,.L21
.L18:
.LVL39:
	.loc 1 1833 2 is_stmt 1
	.loc 1 1833 5 is_stmt 0
	sw	a5,0(a4)
	.loc 1 1834 2 is_stmt 1
	.loc 1 1834 9 is_stmt 0
	ret
.LVL40:
.L19:
	.loc 1 1802 11
	li	a0,0
.LVL41:
	ret
.LVL42:
.L21:
	.loc 1 1831 11
	li	a0,32
	.loc 1 1835 2
	ret
	.cfi_endproc
.LFE5:
	.size	lo0bits, .-lo0bits
	.align	1
	.type	cmp, @function
cmp:
.LFB10:
	.loc 1 2077 1 is_stmt 1
	.cfi_startproc
.LVL43:
	mv	a6,a0
	.loc 1 2078 2
	.loc 1 2079 2
	.loc 1 2081 2
	.loc 1 2081 4 is_stmt 0
	lw	a0,20(a0)
.LVL44:
	.loc 1 2082 2 is_stmt 1
	.loc 1 2082 4 is_stmt 0
	lw	a5,20(a1)
.LVL45:
	.loc 1 2089 2 is_stmt 1
	.loc 1 2089 8 is_stmt 0
	subw	a0,a0,a5
.LVL46:
	.loc 1 2089 5
	bne	a0,zero,.L23
	.loc 1 2091 2 is_stmt 1
	.loc 1 2091 6 is_stmt 0
	addi	a6,a6,24
.LVL47:
	.loc 1 2092 2 is_stmt 1
	.loc 1 2092 11 is_stmt 0
	slli	a5,a5,2
.LVL48:
	.loc 1 2092 5
	add	a4,a6,a5
.LVL49:
	.loc 1 2093 2 is_stmt 1
	.loc 1 2093 6 is_stmt 0
	addi	a1,a1,24
.LVL50:
	.loc 1 2094 2 is_stmt 1
	.loc 1 2094 5 is_stmt 0
	add	a5,a1,a5
.LVL51:
.L26:
	.loc 1 2095 2 is_stmt 1
	.loc 1 2096 3
	.loc 1 2096 6 is_stmt 0
	addi	a4,a4,-4
.LVL52:
	.loc 1 2096 7
	lw	a2,0(a4)
	.loc 1 2096 6
	addi	a5,a5,-4
.LVL53:
	.loc 1 2096 16
	lw	a3,0(a5)
	.loc 1 2096 6
	bne	a2,a3,.L28
	.loc 1 2098 3 is_stmt 1
	.loc 1 2098 6 is_stmt 0
	bltu	a6,a4,.L26
.LVL54:
.L23:
	.loc 1 2102 2
	ret
.LVL55:
.L28:
	.loc 1 2097 4 is_stmt 1
	.loc 1 2097 26 is_stmt 0
	bgeu	a2,a3,.L27
	li	a0,-1
	ret
.L27:
	li	a0,1
	ret
	.cfi_endproc
.LFE10:
	.size	cmp, .-cmp
	.align	1
	.type	ulp, @function
ulp:
.LFB12:
	.loc 1 2195 1 is_stmt 1
	.cfi_startproc
.LVL56:
	.loc 1 2196 2
	.loc 1 2197 2
	.loc 1 2199 2
	.loc 1 2199 7 is_stmt 0
	lw	a5,4(a0)
	.loc 1 2199 16
	li	a4,2146435072
	and	a4,a5,a4
	.loc 1 2199 28
	li	a5,-54525952
	addw	a5,a5,a4
.LVL57:
	.loc 1 2208 3 is_stmt 1
	.loc 1 2209 3
	.loc 1 2209 13 is_stmt 0
	slli	a5,a5,32
.LVL58:
	.loc 1 2227 2 is_stmt 1
	.loc 1 2228 2 is_stmt 0
	fmv.d.x	fa0,a5
	ret
	.cfi_endproc
.LFE12:
	.size	ulp, .-ulp
	.align	1
	.type	b2d, @function
b2d:
.LFB13:
	.loc 1 2232 1 is_stmt 1
	.cfi_startproc
.LVL59:
	addi	sp,sp,-48
	.cfi_def_cfa_offset 48
	sd	ra,40(sp)
	sd	s0,32(sp)
	sd	s1,24(sp)
	sd	s2,16(sp)
	sd	s3,8(sp)
	sd	s4,0(sp)
	.cfi_offset 1, -8
	.cfi_offset 8, -16
	.cfi_offset 9, -24
	.cfi_offset 18, -32
	.cfi_offset 19, -40
	.cfi_offset 20, -48
	mv	s4,a1
	.loc 1 2233 2
	.loc 1 2234 2
	.loc 1 2235 2
	.loc 1 2243 2
	.loc 1 2243 6 is_stmt 0
	addi	s1,a0,24
.LVL60:
	.loc 1 2244 2 is_stmt 1
	.loc 1 2244 14 is_stmt 0
	lw	s0,20(a0)
	.loc 1 2244 11
	slli	s0,s0,2
	.loc 1 2244 5
	add	s0,s1,s0
.LVL61:
	.loc 1 2245 2 is_stmt 1
	.loc 1 2245 4 is_stmt 0
	addi	s2,s0,-4
.LVL62:
	lw	s3,-4(s0)
.LVL63:
	.loc 1 2249 2 is_stmt 1
	.loc 1 2249 6 is_stmt 0
	mv	a0,s3
.LVL64:
	call	hi0bits
.LVL65:
	.loc 1 2250 2 is_stmt 1
	.loc 1 2250 10 is_stmt 0
	li	a5,32
	subw	a5,a5,a0
	.loc 1 2250 5
	sw	a5,0(s4)
	.loc 1 2252 2 is_stmt 1
	.loc 1 2252 5 is_stmt 0
	li	a5,10
	ble	a0,a5,.L41
	.loc 1 2258 2 is_stmt 1
	.loc 1 2258 23 is_stmt 0
	bgeu	s1,s2,.L38
.LVL66:
	.loc 1 2258 23 discriminator 1
	addi	s2,s0,-8
.LVL67:
	lw	a4,-8(s0)
	j	.L34
.L41:
	.loc 1 2253 3 is_stmt 1
	.loc 1 2253 28 is_stmt 0
	li	a4,11
	subw	a4,a4,a0
	.loc 1 2253 18
	srlw	a5,s3,a4
	.loc 1 2253 14
	li	a3,1072693248
	or	a5,a5,a3
	.loc 1 2253 6
	slli	a5,a5,32
.LVL68:
	.loc 1 2254 3 is_stmt 1
	.loc 1 2254 24 is_stmt 0
	bgeu	s1,s2,.L37
.LVL69:
	.loc 1 2254 24 discriminator 1
	lw	a3,-8(s0)
.LVL70:
.L32:
	.loc 1 2255 3 is_stmt 1 discriminator 4
	.loc 1 2255 25 is_stmt 0 discriminator 4
	addiw	a0,a0,21
.LVL71:
	.loc 1 2255 10 discriminator 4
	sllw	a0,s3,a0
	.loc 1 2255 34 discriminator 4
	srlw	a4,a3,a4
	.loc 1 2255 30 discriminator 4
	or	a0,a0,a4
	.loc 1 2255 6 discriminator 4
	slli	a0,a0,32
	srli	a0,a0,32
	li	a4,-1
	slli	a4,a4,32
.LVL72:
	and	a5,a5,a4
.LVL73:
	or	a5,a5,a0
	.loc 1 2256 3 is_stmt 1 discriminator 4
.LVL74:
.L33:
	.loc 1 2292 2
	.loc 1 2293 2 is_stmt 0
	fmv.d.x	fa0,a5
	ld	ra,40(sp)
	.cfi_remember_state
	.cfi_restore 1
	ld	s0,32(sp)
	.cfi_restore 8
	ld	s1,24(sp)
	.cfi_restore 9
.LVL75:
	ld	s2,16(sp)
	.cfi_restore 18
	ld	s3,8(sp)
	.cfi_restore 19
	ld	s4,0(sp)
	.cfi_restore 20
.LVL76:
	addi	sp,sp,48
	.cfi_def_cfa_offset 0
	jr	ra
.LVL77:
.L37:
	.cfi_restore_state
	.loc 1 2254 24
	li	a3,0
	j	.L32
.L38:
	.loc 1 2258 23
	li	a4,0
.L34:
.LVL78:
	.loc 1 2259 2 is_stmt 1 discriminator 4
	.loc 1 2259 8 is_stmt 0 discriminator 4
	addiw	a0,a0,-11
.LVL79:
	sext.w	a3,a0
.LVL80:
	.loc 1 2259 5 discriminator 4
	beq	a3,zero,.L35
	.loc 1 2260 3 is_stmt 1
	.loc 1 2260 18 is_stmt 0
	sllw	a5,s3,a3
	.loc 1 2260 34
	li	a2,32
	subw	a0,a2,a0
.LVL81:
	.loc 1 2260 27
	srlw	a2,a4,a0
	.loc 1 2260 23
	or	a5,a5,a2
	li	a2,1072693248
	or	a5,a5,a2
	.loc 1 2260 6
	slli	a5,a5,32
	.loc 1 2261 3 is_stmt 1
	.loc 1 2261 24 is_stmt 0
	bleu	s2,s1,.L39
.LVL82:
	.loc 1 2261 24 discriminator 1
	lw	a2,-4(s2)
.LVL83:
.L36:
	.loc 1 2262 3 is_stmt 1 discriminator 4
	.loc 1 2262 10 is_stmt 0 discriminator 4
	sllw	a4,a4,a3
.LVL84:
	.loc 1 2262 19 discriminator 4
	srlw	a0,a2,a0
	.loc 1 2262 15 discriminator 4
	or	a4,a4,a0
	.loc 1 2262 6 discriminator 4
	slli	a4,a4,32
	srli	a4,a4,32
	li	a3,-1
.LVL85:
	slli	a3,a3,32
.LVL86:
	and	a5,a5,a3
.LVL87:
	or	a5,a5,a4
	j	.L33
.LVL88:
.L39:
	.loc 1 2261 24
	li	a2,0
	j	.L36
.LVL89:
.L35:
	.loc 1 2265 3 is_stmt 1
	.loc 1 2265 14 is_stmt 0
	li	a5,1072693248
	or	a5,s3,a5
	.loc 1 2266 3 is_stmt 1
	.loc 1 2266 6 is_stmt 0
	slli	a4,a4,32
.LVL90:
	srli	a4,a4,32
	slli	a5,a5,32
	or	a5,a5,a4
	j	.L33
	.cfi_endproc
.LFE13:
	.size	b2d, .-b2d
	.align	1
	.type	ratio, @function
ratio:
.LFB15:
	.loc 1 2426 1 is_stmt 1
	.cfi_startproc
.LVL91:
	addi	sp,sp,-64
	.cfi_def_cfa_offset 64
	sd	ra,56(sp)
	sd	s0,48(sp)
	sd	s1,40(sp)
	sd	s2,32(sp)
	sd	s3,24(sp)
	.cfi_offset 1, -8
	.cfi_offset 8, -16
	.cfi_offset 9, -24
	.cfi_offset 18, -32
	.cfi_offset 19, -40
	mv	s3,a0
	mv	s2,a1
	.loc 1 2427 2
	.loc 1 2428 2
	.loc 1 2430 2
	.loc 1 2430 14 is_stmt 0
	addi	a1,sp,12
.LVL92:
	call	b2d
.LVL93:
	fmv.x.d	s1,fa0
	.loc 1 2431 2 is_stmt 1
	.loc 1 2431 14 is_stmt 0
	addi	a1,sp,8
	mv	a0,s2
	call	b2d
.LVL94:
	fmv.x.d	a2,fa0
	.loc 1 2433 2 is_stmt 1
	.loc 1 2433 9 is_stmt 0
	lw	a5,12(sp)
	lw	a4,8(sp)
	subw	a5,a5,a4
	.loc 1 2433 21
	lw	a4,20(s3)
	.loc 1 2433 30
	lw	a1,20(s2)
	.loc 1 2433 27
	subw	a4,a4,a1
	.loc 1 2433 18
	slliw	a4,a4,5
	.loc 1 2433 4
	addw	a5,a5,a4
	sext.w	a4,a5
.LVL95:
	.loc 1 2450 2 is_stmt 1
	.loc 1 2450 5 is_stmt 0
	ble	a4,zero,.L43
	mv	a3,a2
.LVL96:
	.loc 1 2451 3 is_stmt 1
	.loc 1 2451 18 is_stmt 0
	slliw	a5,a5,20
.LVL97:
	.loc 1 2451 14
	srli	s0,s1,32
	addw	a5,s0,a5
	slli	a5,a5,32
	li	s0,-1
	srli	s0,s0,32
	and	s0,s0,s1
	or	s0,s0,a5
.LVL98:
.L44:
	.loc 1 2457 2 is_stmt 1
	.loc 1 2458 2 is_stmt 0
	fmv.d.x	fa5,s0
.LVL99:
	fmv.d.x	fa4,a3
	fdiv.d	fa0,fa5,fa4
	ld	ra,56(sp)
	.cfi_remember_state
	.cfi_restore 1
	ld	s0,48(sp)
	.cfi_restore 8
.LVL100:
	ld	s1,40(sp)
	.cfi_restore 9
	ld	s2,32(sp)
	.cfi_restore 18
.LVL101:
	ld	s3,24(sp)
	.cfi_restore 19
.LVL102:
	addi	sp,sp,64
	.cfi_def_cfa_offset 0
	jr	ra
.LVL103:
.L43:
	.cfi_restore_state
	mv	s0,s1
	.loc 1 2453 3 is_stmt 1
.LVL104:
	.loc 1 2454 3
	.loc 1 2454 18 is_stmt 0
	negw	a5,a5
.LVL105:
	slliw	a5,a5,20
.LVL106:
	.loc 1 2454 14
	srli	a3,a2,32
	addw	a5,a3,a5
	slli	a5,a5,32
	li	a3,-1
	srli	a3,a3,32
	and	a3,a3,a2
	or	a3,a3,a5
	j	.L44
	.cfi_endproc
.LFE15:
	.size	ratio, .-ratio
	.align	1
	.type	match, @function
match:
.LFB16:
	.loc 1 2565 1 is_stmt 1
	.cfi_startproc
.LVL107:
	.loc 1 2566 2
	.loc 1 2567 2
	.loc 1 2567 14 is_stmt 0
	ld	a4,0(a0)
.LVL108:
	.loc 1 2569 2 is_stmt 1
	.loc 1 2569 7 is_stmt 0
	j	.L47
.LVL109:
.L48:
	.loc 1 2572 3 is_stmt 1
	.loc 1 2572 6 is_stmt 0
	bne	a5,a3,.L51
.LVL110:
.L47:
	.loc 1 2569 7 is_stmt 1
	.loc 1 2569 11 is_stmt 0
	lbu	a3,0(a1)
	addi	a1,a1,1
.LVL111:
	.loc 1 2569 7
	beq	a3,zero,.L52
	.loc 1 2570 3 is_stmt 1
	.loc 1 2570 6 is_stmt 0
	addi	a4,a4,1
.LVL112:
	.loc 1 2570 10
	lbu	a5,0(a4)
.LVL113:
	.loc 1 2570 6
	li	a2,64
	ble	a5,a2,.L48
	.loc 1 2570 25 discriminator 1
	li	a2,90
	bgt	a5,a2,.L48
	.loc 1 2571 4 is_stmt 1
	.loc 1 2571 6 is_stmt 0
	addi	a5,a5,32
.LVL114:
	j	.L48
.LVL115:
.L52:
	.loc 1 2575 2 is_stmt 1
	.loc 1 2575 10 is_stmt 0
	addi	a4,a4,1
.LVL116:
	.loc 1 2575 6
	sd	a4,0(a0)
	.loc 1 2576 2 is_stmt 1
	.loc 1 2576 9 is_stmt 0
	li	a0,1
.LVL117:
	ret
.LVL118:
.L51:
	.loc 1 2573 11
	li	a0,0
.LVL119:
	.loc 1 2577 2
	ret
	.cfi_endproc
.LFE16:
	.size	match, .-match
	.align	1
	.type	hexnan, @function
hexnan:
.LFB17:
	.loc 1 2582 1 is_stmt 1
	.cfi_startproc
.LVL120:
	addi	sp,sp,-16
	.cfi_def_cfa_offset 16
	.loc 1 2583 2
	.loc 1 2584 2
	.loc 1 2585 2
	.loc 1 2588 2
	.loc 1 2588 14 is_stmt 0
	sw	zero,12(sp)
	.loc 1 2588 7
	sw	zero,8(sp)
	.loc 1 2589 2 is_stmt 1
.LVL121:
	.loc 1 2590 2
	.loc 1 2591 2
	.loc 1 2591 4 is_stmt 0
	ld	a5,0(a1)
.LVL122:
	.loc 1 2593 2 is_stmt 1
.L54:
	.loc 1 2593 7
	.loc 1 2593 13 is_stmt 0
	lbu	a4,1(a5)
	.loc 1 2593 11
	sext.w	a3,a4
.LVL123:
	.loc 1 2593 7
	beq	a4,zero,.L55
	.loc 1 2593 43 discriminator 1
	li	a2,32
	bgtu	a3,a2,.L55
	.loc 1 2594 3 is_stmt 1
	addi	a5,a5,1
.LVL124:
	j	.L54
.L55:
	.loc 1 2595 2
	.loc 1 2595 5 is_stmt 0
	li	a3,48
.LVL125:
	beq	a4,a3,.L74
.LVL126:
.L57:
	.loc 1 2625 11
	li	a2,0
	li	a6,1
	li	t1,0
	j	.L68
.LVL127:
.L74:
	.loc 1 2595 23 discriminator 1
	lbu	a4,2(a5)
.LVL128:
	.loc 1 2595 18 discriminator 1
	li	a3,120
	beq	a4,a3,.L58
	.loc 1 2595 34 discriminator 2
	li	a3,88
	bne	a4,a3,.L57
.L58:
	.loc 1 2596 3 is_stmt 1
	.loc 1 2596 5 is_stmt 0
	addi	a5,a5,2
.LVL129:
	j	.L57
.LVL130:
.L59:
	.loc 1 2600 8 is_stmt 1
	.loc 1 2600 11 is_stmt 0
	li	a3,32
	bleu	a4,a3,.L75
.L62:
	.loc 1 2616 4 is_stmt 1
	.loc 1 2617 5
	.loc 1 2617 8 is_stmt 0
	li	a3,41
	beq	a4,a3,.L76
	.loc 1 2621 12 is_stmt 1
	.loc 1 2621 5 is_stmt 0
	addi	a5,a5,1
.LVL131:
	.loc 1 2621 16
	lbu	a4,0(a5)
.LVL132:
	.loc 1 2621 5
	bne	a4,zero,.L62
	j	.L66
.L75:
	.loc 1 2601 4 is_stmt 1
	.loc 1 2601 7 is_stmt 0
	beq	a6,zero,.L68
	.loc 1 2601 13 discriminator 1
	beq	t1,zero,.L68
	.loc 1 2603 12
	mv	a2,t1
.LVL133:
	.loc 1 2602 10
	mv	a6,a7
.LVL134:
	.loc 1 2605 4 is_stmt 1
	j	.L68
.LVL135:
.L76:
	.loc 1 2618 6
	.loc 1 2618 14 is_stmt 0
	addi	a5,a5,1
.LVL136:
	.loc 1 2618 10
	sd	a5,0(a1)
	.loc 1 2619 6 is_stmt 1
.LVL137:
.L66:
	.loc 1 2635 2
	.loc 1 2635 12 is_stmt 0
	lw	a5,8(sp)
	li	a4,1048576
.LVL138:
	addi	a4,a4,-1
	and	a5,a5,a4
	sext.w	a5,a5
	.loc 1 2635 5
	bne	a5,zero,.L70
	.loc 1 2635 28 discriminator 1
	lw	a4,12(sp)
	.loc 1 2635 24 discriminator 1
	beq	a4,zero,.L53
.L70:
	.loc 1 2636 3 is_stmt 1
	.loc 1 2636 25 is_stmt 0
	li	a4,2146435072
	or	a5,a5,a4
	.loc 1 2636 14
	sw	a5,4(a0)
	.loc 1 2637 3 is_stmt 1
	.loc 1 2637 17 is_stmt 0
	lw	a5,12(sp)
	.loc 1 2637 14
	sw	a5,0(a0)
.L53:
	.loc 1 2639 2
	addi	sp,sp,16
	.cfi_remember_state
	.cfi_def_cfa_offset 0
	jr	ra
.LVL139:
.L60:
	.cfi_restore_state
	.loc 1 2627 4 is_stmt 1
	.loc 1 2628 4
	.loc 1 2628 12 is_stmt 0
	lw	a4,12(sp)
	.loc 1 2628 9
	sw	a4,8(sp)
	.loc 1 2629 4 is_stmt 1
	.loc 1 2629 9 is_stmt 0
	sw	zero,12(sp)
	.loc 1 2627 11
	li	a2,0
	j	.L61
.LVL140:
.L67:
	.loc 1 2633 3 is_stmt 1
	.loc 1 2633 12 is_stmt 0
	lw	a4,12(sp)
	.loc 1 2633 16
	slliw	a4,a4,4
	.loc 1 2633 22
	or	a3,a4,a3
.LVL141:
	.loc 1 2633 8
	sw	a3,12(sp)
	.loc 1 2625 11
	li	t1,1
.LVL142:
.L68:
	.loc 1 2597 7 is_stmt 1
	addi	a5,a5,1
.LVL143:
	.loc 1 2597 11 is_stmt 0
	lbu	a4,0(a5)
.LVL144:
	.loc 1 2597 7
	beq	a4,zero,.L66
	.loc 1 2598 3 is_stmt 1
	.loc 1 2598 19 is_stmt 0
	lla	a3,.LANCHOR0
	add	a3,a3,a4
	lbu	a3,0(a3)
	.loc 1 2598 11
	sext.w	a7,a3
.LVL145:
	.loc 1 2598 6
	beq	a3,zero,.L59
	.loc 1 2599 4 is_stmt 1
	.loc 1 2599 7 is_stmt 0
	andi	a3,a3,15
.LVL146:
	.loc 1 2625 3 is_stmt 1
	.loc 1 2626 3
	.loc 1 2626 6 is_stmt 0
	bne	a2,zero,.L60
.LVL147:
.L61:
	.loc 1 2631 3 is_stmt 1
	.loc 1 2631 6 is_stmt 0
	beq	a6,zero,.L67
	.loc 1 2632 4 is_stmt 1
	.loc 1 2632 13 is_stmt 0
	lw	a4,8(sp)
	.loc 1 2632 17
	slliw	a4,a4,4
	.loc 1 2632 27
	lw	a7,12(sp)
.LVL148:
	.loc 1 2632 31
	srliw	a7,a7,28
	.loc 1 2632 23
	or	a4,a4,a7
	.loc 1 2632 9
	sw	a4,8(sp)
	j	.L67
	.cfi_endproc
.LFE17:
	.size	hexnan, .-hexnan
	.align	1
	.type	rshift, @function
rshift:
.LFB19:
	.loc 1 2687 1 is_stmt 1
	.cfi_startproc
.LVL149:
	.loc 1 2688 2
	.loc 1 2689 2
	.loc 1 2691 2
	.loc 1 2691 9 is_stmt 0
	addi	a7,a0,24
.LVL150:
	.loc 1 2692 2 is_stmt 1
	.loc 1 2692 4 is_stmt 0
	sraiw	a4,a1,5
.LVL151:
	.loc 1 2693 2 is_stmt 1
	.loc 1 2693 11 is_stmt 0
	lw	a2,20(a0)
	.loc 1 2693 5
	ble	a2,a4,.L84
	.loc 1 2694 3 is_stmt 1
	.loc 1 2694 10 is_stmt 0
	slli	a2,a2,2
	.loc 1 2694 6
	add	a2,a7,a2
.LVL152:
	.loc 1 2695 3 is_stmt 1
	.loc 1 2695 5 is_stmt 0
	slli	a4,a4,2
	add	a4,a7,a4
.LVL153:
	.loc 1 2696 3 is_stmt 1
	.loc 1 2696 9 is_stmt 0
	andi	a6,a1,31
.LVL154:
	.loc 1 2696 6
	beq	a6,zero,.L85
	.loc 1 2697 4 is_stmt 1
	.loc 1 2697 6 is_stmt 0
	li	t1,32
	subw	t1,t1,a6
.LVL155:
	.loc 1 2698 4 is_stmt 1
	.loc 1 2698 10 is_stmt 0
	addi	a3,a4,4
.LVL156:
	.loc 1 2698 8
	lw	a4,0(a4)
	.loc 1 2698 6
	srlw	a4,a4,a6
.LVL157:
	.loc 1 2699 4 is_stmt 1
	.loc 1 2691 9 is_stmt 0
	mv	a5,a7
.LVL158:
.L80:
	.loc 1 2699 9 is_stmt 1
	bgeu	a3,a2,.L86
	.loc 1 2700 5
	.loc 1 2700 19 is_stmt 0
	lw	a1,0(a3)
	.loc 1 2700 22
	sllw	a1,a1,t1
.LVL159:
	.loc 1 2700 29
	or	a4,a4,a1
.LVL160:
	.loc 1 2700 11
	sw	a4,0(a5)
	.loc 1 2701 5 is_stmt 1
.LVL161:
	.loc 1 2701 9 is_stmt 0
	lw	a4,0(a3)
	.loc 1 2701 7
	srlw	a4,a4,a6
.LVL162:
	.loc 1 2700 8
	addi	a5,a5,4
.LVL163:
	.loc 1 2701 11
	addi	a3,a3,4
.LVL164:
	j	.L80
.LVL165:
.L86:
	.loc 1 2703 4 is_stmt 1
	.loc 1 2703 13 is_stmt 0
	sw	a4,0(a5)
	.loc 1 2703 7
	beq	a4,zero,.L78
	.loc 1 2704 5 is_stmt 1
	.loc 1 2704 7 is_stmt 0
	addi	a5,a5,4
.LVL166:
	j	.L78
.LVL167:
.L85:
	.loc 1 2691 9
	mv	a5,a7
.LVL168:
.L79:
	.loc 1 2707 9 is_stmt 1
	bgeu	a4,a2,.L78
	.loc 1 2708 5
.LVL169:
	.loc 1 2708 13 is_stmt 0
	lw	a3,0(a4)
	.loc 1 2708 11
	sw	a3,0(a5)
	.loc 1 2708 8
	addi	a5,a5,4
.LVL170:
	.loc 1 2708 15
	addi	a4,a4,4
.LVL171:
	j	.L79
.LVL172:
.L84:
	.loc 1 2691 9
	mv	a5,a7
.LVL173:
.L78:
	.loc 1 2710 2 is_stmt 1
	.loc 1 2710 19 is_stmt 0
	sub	a5,a5,a7
.LVL174:
	srai	a5,a5,2
	.loc 1 2710 14
	sext.w	a5,a5
	sw	a5,20(a0)
	.loc 1 2710 5
	bne	a5,zero,.L77
	.loc 1 2711 3 is_stmt 1
	.loc 1 2711 11 is_stmt 0
	sw	zero,24(a0)
.L77:
	.loc 1 2712 2
	ret
	.cfi_endproc
.LFE19:
	.size	rshift, .-rshift
	.align	1
	.type	any_on, @function
any_on:
.LFB20:
	.loc 1 2716 1 is_stmt 1
	.cfi_startproc
.LVL175:
	.loc 1 2717 2
	.loc 1 2718 2
	.loc 1 2720 2
	.loc 1 2720 4 is_stmt 0
	addi	a3,a0,24
.LVL176:
	.loc 1 2721 2 is_stmt 1
	.loc 1 2721 7 is_stmt 0
	lw	a5,20(a0)
.LVL177:
	.loc 1 2722 2 is_stmt 1
	.loc 1 2722 4 is_stmt 0
	sraiw	a4,a1,5
.LVL178:
	.loc 1 2723 2 is_stmt 1
	.loc 1 2723 5 is_stmt 0
	blt	a5,a4,.L88
	.loc 1 2725 7 is_stmt 1
	.loc 1 2725 10 is_stmt 0
	ble	a5,a4,.L92
	.loc 1 2725 26 discriminator 1
	andi	a1,a1,31
.LVL179:
	.loc 1 2725 20 discriminator 1
	beq	a1,zero,.L93
	.loc 1 2726 3 is_stmt 1
	.loc 1 2726 14 is_stmt 0
	slli	a5,a4,2
.LVL180:
	add	a5,a3,a5
	.loc 1 2726 11
	lw	a2,0(a5)
.LVL181:
	.loc 1 2727 3 is_stmt 1
	.loc 1 2727 6 is_stmt 0
	srlw	a5,a2,a1
.LVL182:
	.loc 1 2728 3 is_stmt 1
	.loc 1 2728 6 is_stmt 0
	sllw	a1,a5,a1
.LVL183:
	.loc 1 2729 3 is_stmt 1
	.loc 1 2729 6 is_stmt 0
	bne	a2,a1,.L94
	.loc 1 2722 4
	mv	a5,a4
	j	.L88
.LVL184:
.L92:
	mv	a5,a4
.LVL185:
.L88:
	.loc 1 2732 2 is_stmt 1
	.loc 1 2733 2
	.loc 1 2733 4 is_stmt 0
	slli	a5,a5,2
.LVL186:
	add	a5,a3,a5
.LVL187:
	.loc 1 2734 2 is_stmt 1
.L90:
	.loc 1 2734 7
	bleu	a5,a3,.L96
	.loc 1 2735 3
	.loc 1 2735 6 is_stmt 0
	addi	a5,a5,-4
.LVL188:
	.loc 1 2735 7
	lw	a4,0(a5)
	.loc 1 2735 6
	beq	a4,zero,.L90
	.loc 1 2736 11
	li	a0,1
.LVL189:
	.loc 1 2738 2
	ret
.LVL190:
.L93:
	.loc 1 2722 4
	mv	a5,a4
.LVL191:
	j	.L88
.LVL192:
.L96:
	.loc 1 2737 9
	li	a0,0
.LVL193:
	ret
.LVL194:
.L94:
	.loc 1 2730 11
	li	a0,1
.LVL195:
	ret
	.cfi_endproc
.LFE20:
	.size	any_on, .-any_on
	.align	1
	.type	dshift, @function
dshift:
.LFB22:
	.loc 1 3113 1 is_stmt 1
	.cfi_startproc
.LVL196:
	addi	sp,sp,-16
	.cfi_def_cfa_offset 16
	sd	ra,8(sp)
	sd	s0,0(sp)
	.cfi_offset 1, -8
	.cfi_offset 8, -16
	mv	s0,a1
	.loc 1 3114 2
	.loc 1 3114 25 is_stmt 0
	lw	a5,20(a0)
	.loc 1 3114 30
	addiw	a5,a5,-1
	.loc 1 3114 11
	addi	a5,a5,4
	slli	a5,a5,2
	add	a0,a0,a5
.LVL197:
	lw	a0,8(a0)
	call	hi0bits
.LVL198:
	.loc 1 3114 6
	addiw	a5,a0,-4
	sext.w	a0,a5
.LVL199:
	.loc 1 3115 2 is_stmt 1
	.loc 1 3115 5 is_stmt 0
	ble	s0,zero,.L98
	.loc 1 3116 3 is_stmt 1
	.loc 1 3116 6 is_stmt 0
	subw	a0,a5,s0
.LVL200:
.L98:
	.loc 1 3117 2 is_stmt 1
	.loc 1 3118 2 is_stmt 0
	andi	a0,a0,31
.LVL201:
	ld	ra,8(sp)
	.cfi_restore 1
	ld	s0,0(sp)
	.cfi_restore 8
	addi	sp,sp,16
	.cfi_def_cfa_offset 0
	jr	ra
	.cfi_endproc
.LFE22:
	.size	dshift, .-dshift
	.align	1
	.type	quorem, @function
quorem:
.LFB23:
	.loc 1 3122 1 is_stmt 1
	.cfi_startproc
.LVL202:
	addi	sp,sp,-64
	.cfi_def_cfa_offset 64
	sd	ra,56(sp)
	sd	s0,48(sp)
	sd	s1,40(sp)
	sd	s2,32(sp)
	sd	s3,24(sp)
	sd	s4,16(sp)
	sd	s5,8(sp)
	sd	s6,0(sp)
	.cfi_offset 1, -8
	.cfi_offset 8, -16
	.cfi_offset 9, -24
	.cfi_offset 18, -32
	.cfi_offset 19, -40
	.cfi_offset 20, -48
	.cfi_offset 21, -56
	.cfi_offset 22, -64
	.loc 1 3123 2
	.loc 1 3124 2
	.loc 1 3126 2
	.loc 1 3134 2
	.loc 1 3134 4 is_stmt 0
	lw	s1,20(a1)
.LVL203:
	.loc 1 3139 2 is_stmt 1
	.loc 1 3139 7 is_stmt 0
	lw	a5,20(a0)
	.loc 1 3139 5
	blt	a5,s1,.L112
	mv	s5,a0
	.loc 1 3141 2 is_stmt 1
	.loc 1 3141 5 is_stmt 0
	addi	s0,a1,24
.LVL204:
	.loc 1 3142 2 is_stmt 1
	.loc 1 3142 6 is_stmt 0
	addiw	s1,s1,-1
.LVL205:
	.loc 1 3142 11
	slli	a6,s1,2
	.loc 1 3142 6
	add	s2,s0,a6
.LVL206:
	.loc 1 3143 2 is_stmt 1
	.loc 1 3143 5 is_stmt 0
	addi	s4,a0,24
.LVL207:
	.loc 1 3144 2 is_stmt 1
	.loc 1 3144 6 is_stmt 0
	add	a6,s4,a6
.LVL208:
	.loc 1 3145 2 is_stmt 1
	.loc 1 3145 6 is_stmt 0
	lw	a5,0(a6)
	.loc 1 3145 14
	lw	s6,0(s2)
	.loc 1 3145 19
	addiw	s6,s6,1
	sext.w	a4,s6
	.loc 1 3145 4
	divuw	s6,a5,s6
	sext.w	s3,s6
.LVL209:
	.loc 1 3156 2 is_stmt 1
	.loc 1 3156 5 is_stmt 0
	bltu	a5,a4,.L102
	.loc 1 3141 5
	mv	a0,s0
.LVL210:
	.loc 1 3143 5
	mv	a2,s4
	.loc 1 3158 9
	li	a7,0
	.loc 1 3157 10
	li	a3,0
.LVL211:
.L103:
	.loc 1 3159 3 is_stmt 1 discriminator 1
	.loc 1 3161 4 discriminator 1
	mv	a5,a0
	.loc 1 3161 12 is_stmt 0 discriminator 1
	addi	a0,a0,4
.LVL212:
	.loc 1 3161 9 discriminator 1
	lwu	a5,0(a5)
	.loc 1 3161 17 discriminator 1
	slli	a4,s3,32
	srli	a4,a4,32
	.loc 1 3161 15 discriminator 1
	mul	a5,a5,a4
	.loc 1 3161 7 discriminator 1
	add	a5,a5,a7
.LVL213:
	.loc 1 3162 4 is_stmt 1 discriminator 1
	.loc 1 3162 10 is_stmt 0 discriminator 1
	srli	a7,a5,32
.LVL214:
	.loc 1 3163 4 is_stmt 1 discriminator 1
	.loc 1 3163 8 is_stmt 0 discriminator 1
	lwu	a4,0(a2)
	.loc 1 3163 18 discriminator 1
	slli	a5,a5,32
.LVL215:
	srli	a5,a5,32
	.loc 1 3163 12 discriminator 1
	sub	a5,a4,a5
	.loc 1 3163 6 discriminator 1
	sub	a5,a5,a3
.LVL216:
	.loc 1 3164 4 is_stmt 1 discriminator 1
	.loc 1 3164 15 is_stmt 0 discriminator 1
	srli	a3,a5,32
.LVL217:
	.loc 1 3164 11 discriminator 1
	andi	a3,a3,1
.LVL218:
	.loc 1 3165 4 is_stmt 1 discriminator 1
	.loc 1 3165 10 is_stmt 0 discriminator 1
	sw	a5,0(a2)
	addi	a2,a2,4
.LVL219:
	.loc 1 3186 9 is_stmt 1 discriminator 1
	.loc 1 3186 4 is_stmt 0 discriminator 1
	bgeu	s2,a0,.L103
	.loc 1 3187 3 is_stmt 1
	.loc 1 3187 8 is_stmt 0
	lw	a5,0(a6)
.LVL220:
	.loc 1 3187 6
	beq	a5,zero,.L104
.LVL221:
.L102:
	.loc 1 3194 2 is_stmt 1
	.loc 1 3194 6 is_stmt 0
	mv	a0,s5
	call	cmp
.LVL222:
	.loc 1 3194 5
	blt	a0,zero,.L107
	.loc 1 3195 3 is_stmt 1
	.loc 1 3195 4 is_stmt 0
	addiw	s3,s6,1
.LVL223:
	.loc 1 3196 3 is_stmt 1
	.loc 1 3197 3
	.loc 1 3198 3
	.loc 1 3199 3
	.loc 1 3198 6 is_stmt 0
	mv	a2,s4
	.loc 1 3197 9
	li	a1,0
	.loc 1 3196 10
	li	a3,0
.LVL224:
.L108:
	.loc 1 3200 3 is_stmt 1 discriminator 1
	.loc 1 3202 4 discriminator 1
	mv	a5,s0
	.loc 1 3202 12 is_stmt 0 discriminator 1
	addi	s0,s0,4
.LVL225:
	.loc 1 3202 9 discriminator 1
	lwu	a4,0(a5)
	.loc 1 3202 7 discriminator 1
	add	a4,a4,a1
.LVL226:
	.loc 1 3203 4 is_stmt 1 discriminator 1
	.loc 1 3203 10 is_stmt 0 discriminator 1
	srli	a1,a4,32
.LVL227:
	.loc 1 3204 4 is_stmt 1 discriminator 1
	.loc 1 3204 8 is_stmt 0 discriminator 1
	lwu	a5,0(a2)
	.loc 1 3204 18 discriminator 1
	slli	a4,a4,32
.LVL228:
	srli	a4,a4,32
	.loc 1 3204 12 discriminator 1
	sub	a5,a5,a4
	.loc 1 3204 6 discriminator 1
	sub	a5,a5,a3
.LVL229:
	.loc 1 3205 4 is_stmt 1 discriminator 1
	.loc 1 3205 15 is_stmt 0 discriminator 1
	srli	a3,a5,32
.LVL230:
	.loc 1 3205 11 discriminator 1
	andi	a3,a3,1
.LVL231:
	.loc 1 3206 4 is_stmt 1 discriminator 1
	.loc 1 3206 10 is_stmt 0 discriminator 1
	sw	a5,0(a2)
	addi	a2,a2,4
.LVL232:
	.loc 1 3227 9 is_stmt 1 discriminator 1
	.loc 1 3227 4 is_stmt 0 discriminator 1
	bgeu	s2,s0,.L108
	.loc 1 3228 3 is_stmt 1
.LVL233:
	.loc 1 3229 3
	.loc 1 3229 12 is_stmt 0
	slli	a5,s1,2
.LVL234:
	.loc 1 3229 7
	add	a5,s4,a5
.LVL235:
	.loc 1 3230 3 is_stmt 1
	.loc 1 3230 8 is_stmt 0
	lw	a4,0(a5)
	.loc 1 3230 6
	beq	a4,zero,.L109
.LVL236:
.L107:
	.loc 1 3236 2 is_stmt 1
	.loc 1 3236 9 is_stmt 0
	sext.w	a0,s3
.LVL237:
.L101:
	.loc 1 3237 2
	ld	ra,56(sp)
	.cfi_remember_state
	.cfi_restore 1
	ld	s0,48(sp)
	.cfi_restore 8
	ld	s1,40(sp)
	.cfi_restore 9
.LVL238:
	ld	s2,32(sp)
	.cfi_restore 18
	ld	s3,24(sp)
	.cfi_restore 19
	ld	s4,16(sp)
	.cfi_restore 20
	ld	s5,8(sp)
	.cfi_restore 21
	ld	s6,0(sp)
	.cfi_restore 22
	addi	sp,sp,64
	.cfi_def_cfa_offset 0
	jr	ra
.LVL239:
.L106:
	.cfi_restore_state
	.loc 1 3190 5 is_stmt 1
	addiw	s1,s1,-1
.LVL240:
.L104:
	.loc 1 3189 9
	addi	a6,a6,-4
.LVL241:
	bgeu	s4,a6,.L105
	.loc 1 3189 25 is_stmt 0 discriminator 1
	lw	a5,0(a6)
	.loc 1 3189 21 discriminator 1
	beq	a5,zero,.L106
.L105:
	.loc 1 3191 4 is_stmt 1
	.loc 1 3191 11 is_stmt 0
	sw	s1,20(s5)
	j	.L102
.LVL242:
.L109:
	.loc 1 3231 9 is_stmt 1
	addi	a5,a5,-4
.LVL243:
	bgeu	s4,a5,.L110
	.loc 1 3231 25 is_stmt 0 discriminator 1
	lw	a4,0(a5)
	.loc 1 3231 21 discriminator 1
	bne	a4,zero,.L110
	.loc 1 3232 5 is_stmt 1
	addiw	s1,s1,-1
.LVL244:
	j	.L109
.LVL245:
.L110:
	.loc 1 3233 4
	.loc 1 3233 11 is_stmt 0
	sw	s1,20(s5)
	j	.L107
.LVL246:
.L112:
	.loc 1 3140 10
	li	a0,0
.LVL247:
	j	.L101
	.cfi_endproc
.LFE23:
	.size	quorem, .-quorem
	.align	1
	.type	sulp, @function
sulp:
.LFB24:
	.loc 1 3242 1 is_stmt 1
	.cfi_startproc
.LVL248:
	addi	sp,sp,-32
	.cfi_def_cfa_offset 32
	sd	ra,24(sp)
	sd	s0,16(sp)
	sd	s1,8(sp)
	.cfi_offset 1, -8
	.cfi_offset 8, -16
	.cfi_offset 9, -24
	mv	s1,a0
	mv	s0,a1
	.loc 1 3243 2
	.loc 1 3244 2
	.loc 1 3245 2
	.loc 1 3247 2
	.loc 1 3247 7 is_stmt 0
	call	ulp
.LVL249:
	.loc 1 3248 2 is_stmt 1
	.loc 1 3248 9 is_stmt 0
	lw	a5,36(s0)
	.loc 1 3248 5
	beq	a5,zero,.L114
	.loc 1 3248 37 discriminator 1
	lw	a5,4(s1)
	.loc 1 3248 58 discriminator 1
	srliw	a5,a5,20
	andi	a4,a5,2047
	.loc 1 3248 33 discriminator 1
	li	a5,107
	subw	a5,a5,a4
	.loc 1 3248 23 discriminator 1
	sext.w	a4,a5
.LVL250:
	.loc 1 3248 17 discriminator 1
	ble	a4,zero,.L114
	.loc 1 3250 2 is_stmt 1
	.loc 1 3250 25 is_stmt 0
	slliw	a5,a5,20
.LVL251:
	.loc 1 3250 20
	li	a4,1072693248
.LVL252:
	addw	a5,a4,a5
	.loc 1 3251 2 is_stmt 1
	.loc 1 3251 12 is_stmt 0
	slli	a5,a5,32
.LVL253:
	.loc 1 3252 2 is_stmt 1
	.loc 1 3252 12 is_stmt 0
	fmv.d.x	fa5,a5
	fmul.d	fa0,fa0,fa5
.LVL254:
.L114:
	.loc 1 3253 2
	ld	ra,24(sp)
	.cfi_restore 1
	ld	s0,16(sp)
	.cfi_restore 8
.LVL255:
	ld	s1,8(sp)
	.cfi_restore 9
.LVL256:
	addi	sp,sp,32
	.cfi_def_cfa_offset 0
	jr	ra
	.cfi_endproc
.LFE24:
	.size	sulp, .-sulp
	.align	1
	.type	Balloc, @function
Balloc:
.LFB0:
	.loc 1 1604 1 is_stmt 1
	.cfi_startproc
.LVL257:
	addi	sp,sp,-32
	.cfi_def_cfa_offset 32
	sd	ra,24(sp)
	sd	s0,16(sp)
	sd	s1,8(sp)
	.cfi_offset 1, -8
	.cfi_offset 8, -16
	.cfi_offset 9, -24
	mv	s0,a0
	.loc 1 1605 2
	.loc 1 1606 2
	.loc 1 1608 2
	.loc 1 1620 2
	.loc 1 1620 5 is_stmt 0
	li	a5,7
	bgt	a0,a5,.L118
	.loc 1 1620 23 discriminator 1
	slli	a4,a0,3
	lla	a5,.LANCHOR1
	add	a5,a5,a4
	ld	a0,0(a5)
.LVL258:
	.loc 1 1620 16 discriminator 1
	beq	a0,zero,.L118
	.loc 1 1621 3 is_stmt 1
	.loc 1 1621 19 is_stmt 0
	ld	a4,0(a0)
	.loc 1 1621 15
	slli	s0,s0,3
	lla	a5,.LANCHOR1
	add	s0,a5,s0
	sd	a4,0(s0)
	j	.L119
.LVL259:
.L118:
	.loc 1 1623 3 is_stmt 1
	.loc 1 1623 5 is_stmt 0
	li	s1,1
	sllw	s1,s1,s0
.LVL260:
	.loc 1 1627 3 is_stmt 1
	.loc 1 1627 29 is_stmt 0
	addiw	a5,s1,-1
	.loc 1 1627 47
	addi	a5,a5,10
	slli	a5,a5,2
	.loc 1 1627 64
	addi	a5,a5,-1
	.loc 1 1628 4
	srli	a5,a5,3
.LVL261:
	.loc 1 1629 3 is_stmt 1
	.loc 1 1629 6 is_stmt 0
	li	a4,7
	bgt	s0,a4,.L120
	.loc 1 1629 30 discriminator 1
	ld	a0,pmem_next
	lla	a4,private_mem
	sub	a4,a0,a4
	srai	a4,a4,3
	slli	a3,a5,32
	srli	a3,a3,32
	.loc 1 1629 44 discriminator 1
	add	a4,a3,a4
	.loc 1 1629 17 discriminator 1
	li	a2,288
	bgtu	a4,a2,.L120
	.loc 1 1634 4 is_stmt 1
.LVL262:
	.loc 1 1635 4
	.loc 1 1635 14 is_stmt 0
	slli	a3,a3,3
	add	a3,a0,a3
	sd	a3,pmem_next,a5
.LVL263:
	j	.L121
.LVL264:
.L120:
	.loc 1 1638 4 is_stmt 1
	.loc 1 1638 18 is_stmt 0
	slli	a5,a5,32
.LVL265:
	srli	a5,a5,32
	slli	a0,a5,3
	call	malloc
.LVL266:
.L121:
	.loc 1 1640 3 is_stmt 1
	.loc 1 1640 9 is_stmt 0
	sw	s0,8(a0)
	.loc 1 1641 3 is_stmt 1
	.loc 1 1641 14 is_stmt 0
	sw	s1,12(a0)
.LVL267:
.L119:
	.loc 1 1647 2 is_stmt 1
	.loc 1 1647 21 is_stmt 0
	sw	zero,20(a0)
	.loc 1 1647 11
	sw	zero,16(a0)
	.loc 1 1648 2 is_stmt 1
	.loc 1 1649 2 is_stmt 0
	ld	ra,24(sp)
	.cfi_restore 1
	ld	s0,16(sp)
	.cfi_restore 8
	ld	s1,8(sp)
	.cfi_restore 9
	addi	sp,sp,32
	.cfi_def_cfa_offset 0
	jr	ra
	.cfi_endproc
.LFE0:
	.size	Balloc, .-Balloc
	.align	1
	.type	d2b, @function
d2b:
.LFB14:
	.loc 1 2297 1 is_stmt 1
	.cfi_startproc
.LVL268:
	addi	sp,sp,-80
	.cfi_def_cfa_offset 80
	sd	ra,72(sp)
	sd	s0,64(sp)
	sd	s1,56(sp)
	sd	s2,48(sp)
	sd	s3,40(sp)
	sd	s4,32(sp)
	sd	s5,24(sp)
	sd	s6,16(sp)
	.cfi_offset 1, -8
	.cfi_offset 8, -16
	.cfi_offset 9, -24
	.cfi_offset 18, -32
	.cfi_offset 19, -40
	.cfi_offset 20, -48
	.cfi_offset 21, -56
	.cfi_offset 22, -64
	mv	s2,a0
	mv	s4,a1
	mv	s3,a2
	.loc 1 2298 2
	.loc 1 2299 2
	.loc 1 2300 2
	.loc 1 2302 2
	.loc 1 2314 2
	.loc 1 2314 6 is_stmt 0
	li	a0,1
.LVL269:
	call	Balloc
.LVL270:
	mv	s1,a0
.LVL271:
	.loc 1 2318 2 is_stmt 1
	.loc 1 2318 4 is_stmt 0
	addi	s5,a0,24
.LVL272:
	.loc 1 2320 2 is_stmt 1
	.loc 1 2320 6 is_stmt 0
	lw	a4,4(s2)
	.loc 1 2320 9
	li	a5,1048576
	addi	a5,a5,-1
	and	a5,a4,a5
	.loc 1 2320 4
	sw	a5,8(sp)
	.loc 1 2321 2 is_stmt 1
	.loc 1 2321 5 is_stmt 0
	li	a3,-2147483648
	xori	a3,a3,-1
	and	a4,a4,a3
	sw	a4,4(s2)
	.loc 1 2328 2 is_stmt 1
	.loc 1 2328 21 is_stmt 0
	srliw	s6,a4,20
	.loc 1 2328 10
	srliw	s0,a4,20
.LVL273:
	.loc 1 2328 5
	beq	s0,zero,.L124
	.loc 1 2329 3 is_stmt 1
	.loc 1 2329 5 is_stmt 0
	li	a4,1048576
	or	a5,a5,a4
	sw	a5,8(sp)
.L124:
	.loc 1 2332 2 is_stmt 1
	.loc 1 2332 11 is_stmt 0
	lw	a5,0(s2)
	.loc 1 2332 9
	sw	a5,12(sp)
	.loc 1 2332 5
	beq	a5,zero,.L125
	.loc 1 2333 3 is_stmt 1
	.loc 1 2333 12 is_stmt 0
	addi	a0,sp,12
	call	lo0bits
.LVL274:
	.loc 1 2333 6
	beq	a0,zero,.L126
	.loc 1 2334 4 is_stmt 1
	.loc 1 2334 17 is_stmt 0
	lw	a4,8(sp)
	.loc 1 2334 24
	li	a5,32
	subw	a5,a5,a0
	.loc 1 2334 17
	sllw	a5,a4,a5
	.loc 1 2334 13
	lw	a3,12(sp)
	or	a5,a3,a5
	.loc 1 2334 9
	sw	a5,24(s1)
	.loc 1 2335 4 is_stmt 1
	.loc 1 2335 6 is_stmt 0
	srlw	a4,a4,a0
	sw	a4,8(sp)
.L127:
	.loc 1 2340 3 is_stmt 1
	.loc 1 2342 22 is_stmt 0
	lw	a5,8(sp)
	sw	a5,28(s1)
	.loc 1 2342 31
	beq	a5,zero,.L132
	li	a5,2
.L128:
	.loc 1 2342 14 discriminator 4
	sw	a5,20(s1)
.LVL275:
.L129:
	.loc 1 2399 2 is_stmt 1
	.loc 1 2399 5 is_stmt 0
	beq	s0,zero,.L130
	.loc 1 2405 3 is_stmt 1
	.loc 1 2405 18 is_stmt 0
	addiw	s6,s6,-1075
.LVL276:
	.loc 1 2405 26
	addw	s6,s6,a0
.LVL277:
	.loc 1 2405 6
	sw	s6,0(s4)
	.loc 1 2406 3 is_stmt 1
	.loc 1 2406 13 is_stmt 0
	li	s6,53
	subw	a0,s6,a0
.LVL278:
	.loc 1 2406 9
	sw	a0,0(s3)
.LVL279:
.L123:
	.loc 1 2420 2
	mv	a0,s1
	ld	ra,72(sp)
	.cfi_remember_state
	.cfi_restore 1
	ld	s0,64(sp)
	.cfi_restore 8
	ld	s1,56(sp)
	.cfi_restore 9
.LVL280:
	ld	s2,48(sp)
	.cfi_restore 18
.LVL281:
	ld	s3,40(sp)
	.cfi_restore 19
.LVL282:
	ld	s4,32(sp)
	.cfi_restore 20
.LVL283:
	ld	s5,24(sp)
	.cfi_restore 21
.LVL284:
	ld	s6,16(sp)
	.cfi_restore 22
	addi	sp,sp,80
	.cfi_def_cfa_offset 0
	jr	ra
.LVL285:
.L126:
	.cfi_restore_state
	.loc 1 2338 4 is_stmt 1
	.loc 1 2338 9 is_stmt 0
	lw	a5,12(sp)
	sw	a5,24(s1)
	j	.L127
.L132:
	.loc 1 2342 31
	li	a5,1
	j	.L128
.LVL286:
.L125:
	.loc 1 2345 3 is_stmt 1
	.loc 1 2345 7 is_stmt 0
	addi	a0,sp,8
	call	lo0bits
.LVL287:
	.loc 1 2346 3 is_stmt 1
	.loc 1 2346 8 is_stmt 0
	lw	a5,8(sp)
	sw	a5,24(s1)
	.loc 1 2348 3 is_stmt 1
	.loc 1 2350 14 is_stmt 0
	li	a5,1
	sw	a5,20(s1)
.LVL288:
	.loc 1 2351 3 is_stmt 1
	.loc 1 2351 5 is_stmt 0
	addiw	a0,a0,32
.LVL289:
	j	.L129
.LVL290:
.L130:
	.loc 1 2411 3 is_stmt 1
	.loc 1 2411 26 is_stmt 0
	addiw	s6,s6,-1074
.LVL291:
	.loc 1 2411 30
	addw	a0,s6,a0
.LVL292:
	.loc 1 2411 6
	sw	a0,0(s4)
	.loc 1 2413 3 is_stmt 1
	.loc 1 2413 13 is_stmt 0
	slliw	s0,a5,5
	.loc 1 2413 27
	slli	a5,a5,2
.LVL293:
	addi	a5,a5,-4
	add	a5,s5,a5
	.loc 1 2413 18
	lw	a0,0(a5)
	call	hi0bits
.LVL294:
	.loc 1 2413 16
	subw	s0,s0,a0
	.loc 1 2413 9
	sw	s0,0(s3)
	.loc 1 2419 2 is_stmt 1
	.loc 1 2419 9 is_stmt 0
	j	.L123
	.cfi_endproc
.LFE14:
	.size	d2b, .-d2b
	.align	1
	.type	i2b, @function
i2b:
.LFB6:
	.loc 1 1839 1 is_stmt 1
	.cfi_startproc
.LVL295:
	addi	sp,sp,-16
	.cfi_def_cfa_offset 16
	sd	ra,8(sp)
	sd	s0,0(sp)
	.cfi_offset 1, -8
	.cfi_offset 8, -16
	mv	s0,a0
	.loc 1 1840 2
	.loc 1 1842 2
	.loc 1 1842 6 is_stmt 0
	li	a0,1
.LVL296:
	call	Balloc
.LVL297:
	.loc 1 1843 2 is_stmt 1
	.loc 1 1843 10 is_stmt 0
	sw	s0,24(a0)
	.loc 1 1844 2 is_stmt 1
	.loc 1 1844 9 is_stmt 0
	li	a4,1
	sw	a4,20(a0)
	.loc 1 1845 2 is_stmt 1
	.loc 1 1846 2 is_stmt 0
	ld	ra,8(sp)
	.cfi_restore 1
	ld	s0,0(sp)
	.cfi_restore 8
	addi	sp,sp,16
	.cfi_def_cfa_offset 0
	jr	ra
	.cfi_endproc
.LFE6:
	.size	i2b, .-i2b
	.align	1
	.type	mult, @function
mult:
.LFB7:
	.loc 1 1850 1 is_stmt 1
	.cfi_startproc
.LVL298:
	addi	sp,sp,-48
	.cfi_def_cfa_offset 48
	sd	ra,40(sp)
	sd	s0,32(sp)
	sd	s1,24(sp)
	sd	s2,16(sp)
	sd	s3,8(sp)
	sd	s4,0(sp)
	.cfi_offset 1, -8
	.cfi_offset 8, -16
	.cfi_offset 9, -24
	.cfi_offset 18, -32
	.cfi_offset 19, -40
	.cfi_offset 20, -48
	mv	s0,a0
	mv	s4,a1
	.loc 1 1851 2
	.loc 1 1852 2
	.loc 1 1853 2
	.loc 1 1854 2
	.loc 1 1856 2
	.loc 1 1864 2
	.loc 1 1864 7 is_stmt 0
	lw	a4,20(a0)
	.loc 1 1864 16
	lw	a5,20(a1)
	.loc 1 1864 5
	blt	a4,a5,.L137
	mv	s4,a0
	mv	s0,a1
.L137:
.LVL299:
	.loc 1 1869 2 is_stmt 1
	.loc 1 1869 4 is_stmt 0
	lw	a0,8(s4)
.LVL300:
	.loc 1 1870 2 is_stmt 1
	.loc 1 1870 5 is_stmt 0
	lw	s2,20(s4)
.LVL301:
	.loc 1 1871 2 is_stmt 1
	.loc 1 1871 5 is_stmt 0
	lw	s3,20(s0)
.LVL302:
	.loc 1 1872 2 is_stmt 1
	.loc 1 1872 5 is_stmt 0
	addw	s1,s2,s3
.LVL303:
	.loc 1 1873 2 is_stmt 1
	.loc 1 1873 12 is_stmt 0
	lw	a5,12(s4)
	.loc 1 1873 5
	bge	a5,s1,.L138
	.loc 1 1874 3 is_stmt 1
	.loc 1 1874 4 is_stmt 0
	addiw	a0,a0,1
.LVL304:
.L138:
	.loc 1 1875 2 is_stmt 1
	.loc 1 1875 6 is_stmt 0
	call	Balloc
.LVL305:
	.loc 1 1876 2 is_stmt 1
	.loc 1 1876 8 is_stmt 0
	addi	t3,a0,24
.LVL306:
	.loc 1 1876 23
	slli	a6,s1,2
	.loc 1 1876 19
	add	a6,t3,a6
.LVL307:
	.loc 1 1876 8
	mv	a5,t3
.LVL308:
.L139:
	.loc 1 1876 29 is_stmt 1 discriminator 1
	.loc 1 1876 2 is_stmt 0 discriminator 1
	bgeu	a5,a6,.L149
	.loc 1 1877 3 is_stmt 1 discriminator 3
	.loc 1 1877 6 is_stmt 0 discriminator 3
	sw	zero,0(a5)
	.loc 1 1876 37 is_stmt 1 discriminator 3
	.loc 1 1876 38 is_stmt 0 discriminator 3
	addi	a5,a5,4
.LVL309:
	j	.L139
.L149:
	.loc 1 1878 2 is_stmt 1
	.loc 1 1878 5 is_stmt 0
	addi	s4,s4,24
.LVL310:
	.loc 1 1879 2 is_stmt 1
	.loc 1 1879 11 is_stmt 0
	slli	t1,s2,2
	.loc 1 1879 6
	add	t1,s4,t1
.LVL311:
	.loc 1 1880 2 is_stmt 1
	.loc 1 1880 5 is_stmt 0
	addi	a5,s0,24
.LVL312:
	.loc 1 1881 2 is_stmt 1
	.loc 1 1881 11 is_stmt 0
	slli	t5,s3,2
	.loc 1 1881 6
	add	t5,a5,t5
.LVL313:
	.loc 1 1882 2 is_stmt 1
	.loc 1 1884 2
	j	.L141
.LVL314:
.L150:
	.loc 1 1895 4
	.loc 1 1895 8 is_stmt 0
	sw	a1,0(a4)
.LVL315:
.L142:
	.loc 1 1884 18 is_stmt 1
	.loc 1 1884 21 is_stmt 0
	addi	t3,t3,4
.LVL316:
	.loc 1 1885 15
	mv	a5,t4
.LVL317:
.L141:
	.loc 1 1884 8 is_stmt 1 discriminator 1
	.loc 1 1884 2 is_stmt 0 discriminator 1
	bgeu	a5,t5,.L145
	.loc 1 1885 3 is_stmt 1
	.loc 1 1885 15 is_stmt 0
	addi	t4,a5,4
.LVL318:
	.loc 1 1885 10
	lw	a7,0(a5)
.LVL319:
	.loc 1 1885 6
	beq	a7,zero,.L142
	.loc 1 1887 7
	mv	a4,t3
	.loc 1 1886 6
	mv	a3,s4
	.loc 1 1888 10
	li	a1,0
.L143:
.LVL320:
	.loc 1 1889 4 is_stmt 1 discriminator 1
	.loc 1 1890 5 discriminator 1
	mv	a5,a3
	.loc 1 1890 11 is_stmt 0 discriminator 1
	addi	a3,a3,4
.LVL321:
	.loc 1 1890 9 discriminator 1
	lwu	a5,0(a5)
	.loc 1 1890 16 discriminator 1
	slli	a2,a7,32
	srli	a2,a2,32
	.loc 1 1890 14 discriminator 1
	mul	a5,a5,a2
	.loc 1 1890 28 discriminator 1
	lwu	a2,0(a4)
	.loc 1 1890 26 discriminator 1
	add	a5,a5,a2
	.loc 1 1890 7 discriminator 1
	add	a5,a5,a1
.LVL322:
	.loc 1 1891 5 is_stmt 1 discriminator 1
	.loc 1 1891 11 is_stmt 0 discriminator 1
	srli	a1,a5,32
.LVL323:
	.loc 1 1892 5 is_stmt 1 discriminator 1
	.loc 1 1892 11 is_stmt 0 discriminator 1
	sw	a5,0(a4)
	addi	a4,a4,4
.LVL324:
	.loc 1 1894 10 is_stmt 1 discriminator 1
	.loc 1 1894 5 is_stmt 0 discriminator 1
	bgtu	t1,a3,.L143
	j	.L150
.LVL325:
.L147:
	.loc 1 1948 57 is_stmt 1 discriminator 4
	.loc 1 1948 51 discriminator 4
	addiw	s1,s1,-1
.LVL326:
.L145:
	.loc 1 1948 33 discriminator 1
	.loc 1 1948 2 is_stmt 0 discriminator 1
	ble	s1,zero,.L146
	.loc 1 1948 40 discriminator 3
	addi	a6,a6,-4
.LVL327:
	.loc 1 1948 44 discriminator 3
	lw	a5,0(a6)
	.loc 1 1948 40 discriminator 3
	beq	a5,zero,.L147
.L146:
	.loc 1 1949 2 is_stmt 1
	.loc 1 1949 9 is_stmt 0
	sw	s1,20(a0)
	.loc 1 1950 2 is_stmt 1
	.loc 1 1951 2 is_stmt 0
	ld	ra,40(sp)
	.cfi_restore 1
	ld	s0,32(sp)
	.cfi_restore 8
.LVL328:
	ld	s1,24(sp)
	.cfi_restore 9
.LVL329:
	ld	s2,16(sp)
	.cfi_restore 18
.LVL330:
	ld	s3,8(sp)
	.cfi_restore 19
.LVL331:
	ld	s4,0(sp)
	.cfi_restore 20
.LVL332:
	addi	sp,sp,48
	.cfi_def_cfa_offset 0
	jr	ra
	.cfi_endproc
.LFE7:
	.size	mult, .-mult
	.align	1
	.type	diff, @function
diff:
.LFB11:
	.loc 1 2106 1 is_stmt 1
	.cfi_startproc
.LVL333:
	addi	sp,sp,-32
	.cfi_def_cfa_offset 32
	sd	ra,24(sp)
	sd	s0,16(sp)
	sd	s1,8(sp)
	sd	s2,0(sp)
	.cfi_offset 1, -8
	.cfi_offset 8, -16
	.cfi_offset 9, -24
	.cfi_offset 18, -32
	mv	s0,a0
	mv	s1,a1
	.loc 1 2107 2
	.loc 1 2108 2
	.loc 1 2109 2
	.loc 1 2111 2
	.loc 1 2119 2
	.loc 1 2119 6 is_stmt 0
	call	cmp
.LVL334:
	.loc 1 2120 2 is_stmt 1
	.loc 1 2120 5 is_stmt 0
	beq	a0,zero,.L162
	.loc 1 2126 2 is_stmt 1
	.loc 1 2126 5 is_stmt 0
	blt	a0,zero,.L163
	.loc 1 2133 5
	li	s2,0
.LVL335:
.L154:
	.loc 1 2134 2 is_stmt 1
	.loc 1 2134 6 is_stmt 0
	lw	a0,8(s0)
	call	Balloc
.LVL336:
	.loc 1 2135 2 is_stmt 1
	.loc 1 2135 10 is_stmt 0
	sw	s2,16(a0)
	.loc 1 2136 2 is_stmt 1
	.loc 1 2136 5 is_stmt 0
	lw	a7,20(s0)
.LVL337:
	.loc 1 2137 2 is_stmt 1
	.loc 1 2137 5 is_stmt 0
	addi	a4,s0,24
.LVL338:
	.loc 1 2138 2 is_stmt 1
	.loc 1 2138 11 is_stmt 0
	slli	t3,a7,2
	.loc 1 2138 6
	add	t3,a4,t3
.LVL339:
	.loc 1 2139 2 is_stmt 1
	.loc 1 2139 5 is_stmt 0
	lw	t1,20(s1)
.LVL340:
	.loc 1 2140 2 is_stmt 1
	.loc 1 2140 5 is_stmt 0
	addi	a1,s1,24
.LVL341:
	.loc 1 2141 2 is_stmt 1
	.loc 1 2141 11 is_stmt 0
	slli	t1,t1,2
.LVL342:
	.loc 1 2141 6
	add	t1,a1,t1
.LVL343:
	.loc 1 2142 2 is_stmt 1
	.loc 1 2142 5 is_stmt 0
	addi	a5,a0,24
.LVL344:
	.loc 1 2143 2 is_stmt 1
	.loc 1 2143 9 is_stmt 0
	li	a3,0
.LVL345:
.L155:
	.loc 1 2145 2 is_stmt 1 discriminator 1
	.loc 1 2146 3 discriminator 1
	.loc 1 2146 7 is_stmt 0 discriminator 1
	lwu	a2,0(a4)
	addi	a4,a4,4
.LVL346:
	mv	a6,a1
	.loc 1 2146 26 discriminator 1
	addi	a1,a1,4
.LVL347:
	.loc 1 2146 23 discriminator 1
	lwu	a6,0(a6)
	.loc 1 2146 21 discriminator 1
	sub	a2,a2,a6
	.loc 1 2146 5 discriminator 1
	sub	a2,a2,a3
.LVL348:
	.loc 1 2147 3 is_stmt 1 discriminator 1
	.loc 1 2147 14 is_stmt 0 discriminator 1
	srli	a3,a2,32
.LVL349:
	.loc 1 2147 10 discriminator 1
	andi	a3,a3,1
.LVL350:
	.loc 1 2148 3 is_stmt 1 discriminator 1
	.loc 1 2148 9 is_stmt 0 discriminator 1
	sw	a2,0(a5)
	addi	a5,a5,4
.LVL351:
	.loc 1 2150 8 is_stmt 1 discriminator 1
	.loc 1 2150 3 is_stmt 0 discriminator 1
	bgtu	t1,a1,.L155
	j	.L156
.LVL352:
.L162:
	.loc 1 2121 3 is_stmt 1
	.loc 1 2121 7 is_stmt 0
	call	Balloc
.LVL353:
	.loc 1 2122 3 is_stmt 1
	.loc 1 2122 10 is_stmt 0
	li	a5,1
	sw	a5,20(a0)
	.loc 1 2123 3 is_stmt 1
	.loc 1 2123 11 is_stmt 0
	sw	zero,24(a0)
	.loc 1 2124 3 is_stmt 1
	.loc 1 2124 10 is_stmt 0
	j	.L151
.LVL354:
.L163:
	.loc 1 2126 5
	mv	a5,s0
	.loc 1 2128 5
	mv	s0,s1
.LVL355:
	.loc 1 2129 5
	mv	s1,a5
.LVL356:
	.loc 1 2130 5
	li	s2,1
	j	.L154
.LVL357:
.L157:
	.loc 1 2152 3 is_stmt 1
	.loc 1 2152 7 is_stmt 0
	lwu	a2,0(a4)
.LVL358:
	.loc 1 2152 5
	sub	a2,a2,a3
.LVL359:
	.loc 1 2153 3 is_stmt 1
	.loc 1 2153 14 is_stmt 0
	srli	a3,a2,32
.LVL360:
	.loc 1 2153 10
	andi	a3,a3,1
.LVL361:
	.loc 1 2154 3 is_stmt 1
	.loc 1 2154 9 is_stmt 0
	sw	a2,0(a5)
	.loc 1 2154 6
	addi	a5,a5,4
.LVL362:
	.loc 1 2152 10
	addi	a4,a4,4
.LVL363:
.L156:
	.loc 1 2151 7 is_stmt 1
	bltu	a4,t3,.L157
	j	.L158
.LVL364:
.L159:
	.loc 1 2188 3
	.loc 1 2188 5 is_stmt 0
	addiw	a7,a7,-1
.LVL365:
.L158:
	.loc 1 2187 7 is_stmt 1
	addi	a5,a5,-4
.LVL366:
	.loc 1 2187 9 is_stmt 0
	lw	a4,0(a5)
	.loc 1 2187 7
	beq	a4,zero,.L159
	.loc 1 2189 2 is_stmt 1
	.loc 1 2189 9 is_stmt 0
	sw	a7,20(a0)
	.loc 1 2190 2 is_stmt 1
.LVL367:
.L151:
	.loc 1 2191 2 is_stmt 0
	ld	ra,24(sp)
	.cfi_restore 1
	ld	s0,16(sp)
	.cfi_restore 8
.LVL368:
	ld	s1,8(sp)
	.cfi_restore 9
.LVL369:
	ld	s2,0(sp)
	.cfi_restore 18
	addi	sp,sp,32
	.cfi_def_cfa_offset 0
	jr	ra
	.cfi_endproc
.LFE11:
	.size	diff, .-diff
	.align	1
	.type	Bfree, @function
Bfree:
.LFB1:
	.loc 1 1653 1 is_stmt 1
	.cfi_startproc
.LVL370:
	.loc 1 1657 2
	.loc 1 1657 5 is_stmt 0
	beq	a0,zero,.L168
	.loc 1 1658 3 is_stmt 1
	.loc 1 1658 8 is_stmt 0
	lw	a5,8(a0)
	.loc 1 1658 6
	li	a4,7
	bgt	a5,a4,.L171
	.loc 1 1667 4 is_stmt 1
	.loc 1 1667 22 is_stmt 0
	slli	a5,a5,3
	lla	a4,.LANCHOR1
	add	a5,a4,a5
	ld	a4,0(a5)
	.loc 1 1667 12
	sd	a4,0(a0)
	.loc 1 1668 4 is_stmt 1
	.loc 1 1668 19 is_stmt 0
	sd	a0,0(a5)
	.loc 1 1675 2
	ret
.L171:
	.loc 1 1653 1
	addi	sp,sp,-16
	.cfi_def_cfa_offset 16
	sd	ra,8(sp)
	.cfi_offset 1, -8
	.loc 1 1659 4 is_stmt 1
	call	free
.LVL371:
	.loc 1 1675 2 is_stmt 0
	ld	ra,8(sp)
	.cfi_restore 1
	addi	sp,sp,16
	.cfi_def_cfa_offset 0
	jr	ra
.LVL372:
.L168:
	ret
	.cfi_endproc
.LFE1:
	.size	Bfree, .-Bfree
	.align	1
	.type	increment, @function
increment:
.LFB18:
	.loc 1 2656 1 is_stmt 1
	.cfi_startproc
.LVL373:
	addi	sp,sp,-32
	.cfi_def_cfa_offset 32
	sd	ra,24(sp)
	sd	s0,16(sp)
	sd	s1,8(sp)
	.cfi_offset 1, -8
	.cfi_offset 8, -16
	.cfi_offset 9, -24
	mv	s0,a0
	.loc 1 2657 2
	.loc 1 2658 2
	.loc 1 2660 2
	.loc 1 2660 4 is_stmt 0
	addi	a5,a0,24
.LVL374:
	.loc 1 2661 2 is_stmt 1
	.loc 1 2661 12 is_stmt 0
	lw	a2,20(a0)
	.loc 1 2661 9
	slli	a2,a2,2
	.loc 1 2661 5
	add	a2,a5,a2
.LVL375:
	j	.L175
.LVL376:
.L177:
	.loc 1 2667 5
	mv	a5,a4
.LVL377:
.L175:
	.loc 1 2662 2 is_stmt 1
	.loc 1 2663 3
	.loc 1 2663 7 is_stmt 0
	lw	a4,0(a5)
	.loc 1 2663 6
	li	a3,-1
	bne	a4,a3,.L179
	.loc 1 2667 3 is_stmt 1
	.loc 1 2667 5 is_stmt 0
	addi	a4,a5,4
.LVL378:
	.loc 1 2667 8
	sw	zero,0(a5)
	.loc 1 2668 10 is_stmt 1
	.loc 1 2668 3 is_stmt 0
	bgtu	a2,a4,.L177
	.loc 1 2670 3 is_stmt 1
	.loc 1 2670 8 is_stmt 0
	lw	a4,20(s0)
.LVL379:
	.loc 1 2670 18
	lw	a5,12(s0)
.LVL380:
	.loc 1 2670 6
	bge	a4,a5,.L180
.LVL381:
.L176:
	.loc 1 2676 3 is_stmt 1
	.loc 1 2676 9 is_stmt 0
	lw	a5,20(s0)
	.loc 1 2676 14
	addiw	a4,a5,1
	sw	a4,20(s0)
	.loc 1 2676 18
	addi	a5,a5,4
	slli	a5,a5,2
	add	a5,s0,a5
	li	a4,1
	sw	a4,8(a5)
	.loc 1 2678 2 is_stmt 1
	.loc 1 2678 9 is_stmt 0
	mv	a0,s0
	j	.L172
.LVL382:
.L179:
	.loc 1 2664 4 is_stmt 1
	addiw	a4,a4,1
	sw	a4,0(a5)
	.loc 1 2665 4
	.loc 1 2665 11 is_stmt 0
	mv	a0,s0
.LVL383:
.L172:
	.loc 1 2679 2
	ld	ra,24(sp)
	.cfi_remember_state
	.cfi_restore 1
	ld	s0,16(sp)
	.cfi_restore 8
.LVL384:
	ld	s1,8(sp)
	.cfi_restore 9
	addi	sp,sp,32
	.cfi_def_cfa_offset 0
	jr	ra
.LVL385:
.L180:
	.cfi_restore_state
	.loc 1 2671 4 is_stmt 1
	.loc 1 2671 17 is_stmt 0
	lw	a0,8(s0)
	.loc 1 2671 9
	addiw	a0,a0,1
	call	Balloc
.LVL386:
	mv	s1,a0
.LVL387:
	.loc 1 2672 4 is_stmt 1
	lw	a2,20(s0)
	addi	a2,a2,2
	slli	a2,a2,2
	addi	a1,s0,16
	addi	a0,a0,16
	call	memcpy
.LVL388:
	.loc 1 2673 4
	mv	a0,s0
	call	Bfree
.LVL389:
	.loc 1 2674 4
	.loc 1 2674 6 is_stmt 0
	mv	s0,s1
	j	.L176
	.cfi_endproc
.LFE18:
	.size	increment, .-increment
	.align	1
	.type	multadd, @function
multadd:
.LFB2:
	.loc 1 1682 1 is_stmt 1
	.cfi_startproc
.LVL390:
	addi	sp,sp,-48
	.cfi_def_cfa_offset 48
	sd	ra,40(sp)
	sd	s0,32(sp)
	sd	s1,24(sp)
	sd	s2,16(sp)
	sd	s3,8(sp)
	.cfi_offset 1, -8
	.cfi_offset 8, -16
	.cfi_offset 9, -24
	.cfi_offset 18, -32
	.cfi_offset 19, -40
	mv	s2,a0
	.loc 1 1683 2
	.loc 1 1685 2
	.loc 1 1686 2
	.loc 1 1693 2
	.loc 1 1695 2
	.loc 1 1695 6 is_stmt 0
	lw	s1,20(a0)
.LVL391:
	.loc 1 1696 2 is_stmt 1
	.loc 1 1696 4 is_stmt 0
	addi	a4,a0,24
.LVL392:
	.loc 1 1697 2 is_stmt 1
	.loc 1 1698 2
	.loc 1 1698 8 is_stmt 0
	mv	s0,a2
.LVL393:
	.loc 1 1697 4
	li	a6,0
.LVL394:
.L182:
	.loc 1 1699 2 is_stmt 1 discriminator 1
	.loc 1 1701 3 discriminator 1
	.loc 1 1701 7 is_stmt 0 discriminator 1
	lwu	a5,0(a4)
	.loc 1 1701 10 discriminator 1
	mul	a5,a5,a1
	.loc 1 1701 5 discriminator 1
	add	a5,a5,s0
.LVL395:
	.loc 1 1702 3 is_stmt 1 discriminator 1
	.loc 1 1702 9 is_stmt 0 discriminator 1
	srli	s0,a5,32
.LVL396:
	.loc 1 1703 3 is_stmt 1 discriminator 1
	.loc 1 1703 8 is_stmt 0 discriminator 1
	sw	a5,0(a4)
	addi	a4,a4,4
.LVL397:
	.loc 1 1718 8 is_stmt 1 discriminator 1
	.loc 1 1718 3 is_stmt 0 discriminator 1
	addiw	a6,a6,1
.LVL398:
	bgt	s1,a6,.L182
	.loc 1 1719 2 is_stmt 1
	.loc 1 1719 5 is_stmt 0
	beq	s0,zero,.L183
	.loc 1 1720 3 is_stmt 1
	.loc 1 1720 15 is_stmt 0
	lw	a5,12(s2)
.LVL399:
	.loc 1 1720 6
	ble	a5,s1,.L186
.LVL400:
.L184:
	.loc 1 1726 3 is_stmt 1
	.loc 1 1726 11 is_stmt 0
	addiw	a4,s1,1
.LVL401:
	.loc 1 1726 15
	addi	a5,s1,4
	slli	a5,a5,2
	add	a5,s2,a5
	sw	s0,8(a5)
	.loc 1 1727 3 is_stmt 1
	.loc 1 1727 10 is_stmt 0
	sw	a4,20(s2)
.LVL402:
.L183:
	.loc 1 1729 2 is_stmt 1
	.loc 1 1730 2 is_stmt 0
	mv	a0,s2
	ld	ra,40(sp)
	.cfi_remember_state
	.cfi_restore 1
	ld	s0,32(sp)
	.cfi_restore 8
.LVL403:
	ld	s1,24(sp)
	.cfi_restore 9
	ld	s2,16(sp)
	.cfi_restore 18
.LVL404:
	ld	s3,8(sp)
	.cfi_restore 19
	addi	sp,sp,48
	.cfi_def_cfa_offset 0
	jr	ra
.LVL405:
.L186:
	.cfi_restore_state
	.loc 1 1721 4 is_stmt 1
	.loc 1 1721 17 is_stmt 0
	lw	a0,8(s2)
.LVL406:
	.loc 1 1721 9
	addiw	a0,a0,1
	call	Balloc
.LVL407:
	mv	s3,a0
.LVL408:
	.loc 1 1722 4 is_stmt 1
	lw	a2,20(s2)
	addi	a2,a2,2
	slli	a2,a2,2
	addi	a1,s2,16
	addi	a0,a0,16
.LVL409:
	call	memcpy
.LVL410:
	.loc 1 1723 4
	mv	a0,s2
	call	Bfree
.LVL411:
	.loc 1 1724 4
	.loc 1 1724 6 is_stmt 0
	mv	s2,s3
	j	.L184
	.cfi_endproc
.LFE2:
	.size	multadd, .-multadd
	.align	1
	.type	s2b, @function
s2b:
.LFB3:
	.loc 1 1734 1 is_stmt 1
	.cfi_startproc
.LVL412:
	addi	sp,sp,-48
	.cfi_def_cfa_offset 48
	sd	ra,40(sp)
	sd	s0,32(sp)
	sd	s1,24(sp)
	sd	s2,16(sp)
	sd	s3,8(sp)
	sd	s4,0(sp)
	.cfi_offset 1, -8
	.cfi_offset 8, -16
	.cfi_offset 9, -24
	.cfi_offset 18, -32
	.cfi_offset 19, -40
	.cfi_offset 20, -48
	mv	s0,a0
	mv	s3,a1
	mv	s2,a2
	mv	s1,a3
	mv	s4,a4
	.loc 1 1735 2
	.loc 1 1736 2
	.loc 1 1737 2
	.loc 1 1739 2
	.loc 1 1739 10 is_stmt 0
	addiw	a5,a2,8
	.loc 1 1739 4
	li	a4,9
.LVL413:
	divw	a5,a5,a4
.LVL414:
	.loc 1 1740 2 is_stmt 1
	.loc 1 1740 15 is_stmt 0
	li	a6,1
	.loc 1 1740 8
	li	a0,0
.LVL415:
.L188:
	.loc 1 1740 20 is_stmt 1 discriminator 1
	.loc 1 1740 2 is_stmt 0 discriminator 1
	bge	a6,a5,.L196
	.loc 1 1740 41 is_stmt 1 discriminator 3
	.loc 1 1740 27 discriminator 3
	.loc 1 1740 29 is_stmt 0 discriminator 3
	slliw	a6,a6,1
.LVL416:
	.loc 1 1740 37 discriminator 3
	addiw	a0,a0,1
.LVL417:
	j	.L188
.LVL418:
.L196:
	.loc 1 1742 2 is_stmt 1
	.loc 1 1742 6 is_stmt 0
	call	Balloc
.LVL419:
	.loc 1 1743 2 is_stmt 1
	.loc 1 1743 10 is_stmt 0
	sw	s1,24(a0)
	.loc 1 1744 2 is_stmt 1
	.loc 1 1744 9 is_stmt 0
	li	a5,1
	sw	a5,20(a0)
	.loc 1 1751 2 is_stmt 1
.LVL420:
	.loc 1 1752 2
	.loc 1 1752 5 is_stmt 0
	li	a5,9
	ble	s3,a5,.L190
	.loc 1 1753 3 is_stmt 1
	.loc 1 1753 5 is_stmt 0
	addi	s0,s0,9
.LVL421:
	.loc 1 1751 4
	li	s1,9
.LVL422:
.L191:
	.loc 1 1754 3 is_stmt 1 discriminator 1
	.loc 1 1754 6 discriminator 1
	.loc 1 1754 25 is_stmt 0 discriminator 1
	lbu	a2,0(s0)
	addi	s0,s0,1
.LVL423:
	.loc 1 1754 10 discriminator 1
	addiw	a2,a2,-48
	li	a1,10
	call	multadd
.LVL424:
	.loc 1 1755 9 is_stmt 1 discriminator 1
	.loc 1 1755 4 is_stmt 0 discriminator 1
	addiw	s1,s1,1
.LVL425:
	bgt	s3,s1,.L191
	.loc 1 1756 3 is_stmt 1
	.loc 1 1756 5 is_stmt 0
	add	a5,s0,s4
.LVL426:
	j	.L193
.LVL427:
.L190:
	.loc 1 1759 3 is_stmt 1
	.loc 1 1759 5 is_stmt 0
	addi	a5,s4,9
	add	a5,s0,a5
.LVL428:
	.loc 1 1751 4
	li	s1,9
	j	.L193
.LVL429:
.L194:
	.loc 1 1761 3 is_stmt 1 discriminator 2
	.loc 1 1761 24 is_stmt 0 discriminator 2
	addi	s0,a5,1
.LVL430:
	.loc 1 1761 22 discriminator 2
	lbu	a2,0(a5)
	.loc 1 1761 7 discriminator 2
	addiw	a2,a2,-48
	li	a1,10
	call	multadd
.LVL431:
	.loc 1 1760 16 is_stmt 1 discriminator 2
	.loc 1 1760 17 is_stmt 0 discriminator 2
	addiw	s1,s1,1
.LVL432:
	.loc 1 1761 24 discriminator 2
	mv	a5,s0
.LVL433:
.L193:
	.loc 1 1760 8 is_stmt 1 discriminator 1
	.loc 1 1760 2 is_stmt 0 discriminator 1
	blt	s1,s2,.L194
	.loc 1 1763 2
	ld	ra,40(sp)
	.cfi_restore 1
	ld	s0,32(sp)
	.cfi_restore 8
	ld	s1,24(sp)
	.cfi_restore 9
.LVL434:
	ld	s2,16(sp)
	.cfi_restore 18
	ld	s3,8(sp)
	.cfi_restore 19
	ld	s4,0(sp)
	.cfi_restore 20
	addi	sp,sp,48
	.cfi_def_cfa_offset 0
	jr	ra
	.cfi_endproc
.LFE3:
	.size	s2b, .-s2b
	.align	1
	.type	pow5mult, @function
pow5mult:
.LFB8:
	.loc 1 1955 1 is_stmt 1
	.cfi_startproc
.LVL435:
	addi	sp,sp,-48
	.cfi_def_cfa_offset 48
	sd	ra,40(sp)
	sd	s0,32(sp)
	sd	s1,24(sp)
	sd	s2,16(sp)
	sd	s3,8(sp)
	.cfi_offset 1, -8
	.cfi_offset 8, -16
	.cfi_offset 9, -24
	.cfi_offset 18, -32
	.cfi_offset 19, -40
	mv	s2,a0
	mv	s0,a1
	.loc 1 1956 2
	.loc 1 1960 2
	.loc 1 1961 2
	.loc 1 1963 2
	.loc 1 1963 9 is_stmt 0
	andi	a5,a1,3
.LVL436:
	.loc 1 1963 5
	bne	a5,zero,.L206
.LVL437:
.L198:
	.loc 1 1966 2 is_stmt 1
	.loc 1 1966 10 is_stmt 0
	sraiw	s0,s0,2
.LVL438:
	.loc 1 1966 5
	beq	s0,zero,.L197
	.loc 1 1972 2 is_stmt 1
	.loc 1 1972 11 is_stmt 0
	ld	s1,.LANCHOR1+64
.LVL439:
	.loc 1 1972 5
	bne	s1,zero,.L201
	.loc 1 1986 3 is_stmt 1
	.loc 1 1986 14 is_stmt 0
	li	a0,625
.LVL440:
	call	i2b
.LVL441:
	mv	s1,a0
.LVL442:
	.loc 1 1986 12
	sd	a0,.LANCHOR1+64,a5
.LVL443:
	.loc 1 1987 3 is_stmt 1
	.loc 1 1987 12 is_stmt 0
	sd	zero,0(a0)
	j	.L201
.LVL444:
.L206:
	.loc 1 1964 3 is_stmt 1
	.loc 1 1964 23 is_stmt 0
	addiw	a5,a5,-1
.LVL445:
	.loc 1 1964 7
	slli	a5,a5,2
	lla	a4,.LANCHOR0
	add	a5,a4,a5
	li	a2,0
	lw	a1,256(a5)
.LVL446:
	call	multadd
.LVL447:
	mv	s2,a0
.LVL448:
	j	.L198
.LVL449:
.L208:
	.loc 1 1992 4 is_stmt 1
	.loc 1 1992 9 is_stmt 0
	mv	a1,s1
	mv	a0,s2
	call	mult
.LVL450:
	mv	s3,a0
.LVL451:
	.loc 1 1993 4 is_stmt 1
	mv	a0,s2
.LVL452:
	call	Bfree
.LVL453:
	.loc 1 1994 4
	.loc 1 1994 6 is_stmt 0
	mv	s2,s3
.LVL454:
.L202:
	.loc 1 1996 3 is_stmt 1
	.loc 1 1996 11 is_stmt 0
	sraiw	s0,s0,1
.LVL455:
	.loc 1 1996 6
	beq	s0,zero,.L197
	.loc 1 1998 3 is_stmt 1
	.loc 1 1998 13 is_stmt 0
	ld	a0,0(s1)
.LVL456:
	.loc 1 1998 6
	beq	a0,zero,.L207
.L203:
	.loc 1 1955 1
	mv	s1,a0
.LVL457:
.L201:
	.loc 1 1990 2 is_stmt 1
	.loc 1 1991 3
	.loc 1 1991 9 is_stmt 0
	andi	a5,s0,1
	.loc 1 1991 6
	beq	a5,zero,.L202
	j	.L208
.LVL458:
.L207:
	.loc 1 2011 4 is_stmt 1
	.loc 1 2011 21 is_stmt 0
	mv	a1,s1
	mv	a0,s1
.LVL459:
	call	mult
.LVL460:
	.loc 1 2011 19
	sd	a0,0(s1)
.LVL461:
	.loc 1 2012 4 is_stmt 1
	.loc 1 2012 14 is_stmt 0
	sd	zero,0(a0)
	j	.L203
.LVL462:
.L197:
	.loc 1 2018 2
	mv	a0,s2
	ld	ra,40(sp)
	.cfi_restore 1
	ld	s0,32(sp)
	.cfi_restore 8
	ld	s1,24(sp)
	.cfi_restore 9
	ld	s2,16(sp)
	.cfi_restore 18
.LVL463:
	ld	s3,8(sp)
	.cfi_restore 19
	addi	sp,sp,48
	.cfi_def_cfa_offset 0
	jr	ra
	.cfi_endproc
.LFE8:
	.size	pow5mult, .-pow5mult
	.align	1
	.type	lshift, @function
lshift:
.LFB9:
	.loc 1 2022 1 is_stmt 1
	.cfi_startproc
.LVL464:
	addi	sp,sp,-64
	.cfi_def_cfa_offset 64
	sd	ra,56(sp)
	sd	s0,48(sp)
	sd	s1,40(sp)
	sd	s2,32(sp)
	sd	s3,24(sp)
	sd	s4,16(sp)
	sd	s5,8(sp)
	.cfi_offset 1, -8
	.cfi_offset 8, -16
	.cfi_offset 9, -24
	.cfi_offset 18, -32
	.cfi_offset 19, -40
	.cfi_offset 20, -48
	.cfi_offset 21, -56
	mv	s1,a0
	mv	s4,a1
	.loc 1 2023 2
	.loc 1 2024 2
	.loc 1 2025 2
	.loc 1 2028 2
	.loc 1 2028 4 is_stmt 0
	sraiw	a5,a1,5
	sext.w	s5,a5
.LVL465:
	.loc 1 2032 2 is_stmt 1
	.loc 1 2032 5 is_stmt 0
	lw	a0,8(a0)
.LVL466:
	.loc 1 2033 2 is_stmt 1
	.loc 1 2033 12 is_stmt 0
	lw	s3,20(s1)
	.loc 1 2033 9
	addw	s3,s3,a5
	.loc 1 2033 5
	addiw	s0,s3,1
.LVL467:
	.loc 1 2034 2 is_stmt 1
	.loc 1 2034 8 is_stmt 0
	lw	a5,12(s1)
.LVL468:
.L210:
	.loc 1 2034 21 is_stmt 1 discriminator 1
	.loc 1 2034 2 is_stmt 0 discriminator 1
	bge	a5,s0,.L218
	.loc 1 2035 3 is_stmt 1 discriminator 3
	.loc 1 2035 5 is_stmt 0 discriminator 3
	addiw	a0,a0,1
.LVL469:
	.loc 1 2034 29 is_stmt 1 discriminator 3
	.loc 1 2034 31 is_stmt 0 discriminator 3
	slliw	a5,a5,1
.LVL470:
	j	.L210
.LVL471:
.L218:
	.loc 1 2036 2 is_stmt 1
	.loc 1 2036 7 is_stmt 0
	call	Balloc
.LVL472:
	mv	s2,a0
.LVL473:
	.loc 1 2037 2 is_stmt 1
	.loc 1 2037 5 is_stmt 0
	addi	a5,a0,24
.LVL474:
	.loc 1 2038 2 is_stmt 1
	.loc 1 2038 8 is_stmt 0
	li	a4,0
	.loc 1 2038 2
	j	.L212
.LVL475:
.L213:
	.loc 1 2039 3 is_stmt 1 discriminator 3
	.loc 1 2039 9 is_stmt 0 discriminator 3
	sw	zero,0(a5)
	.loc 1 2038 20 is_stmt 1 discriminator 3
	.loc 1 2038 21 is_stmt 0 discriminator 3
	addiw	a4,a4,1
.LVL476:
	.loc 1 2039 6 discriminator 3
	addi	a5,a5,4
.LVL477:
.L212:
	.loc 1 2038 13 is_stmt 1 discriminator 1
	.loc 1 2038 2 is_stmt 0 discriminator 1
	blt	a4,s5,.L213
	.loc 1 2040 2 is_stmt 1
	.loc 1 2040 4 is_stmt 0
	addi	a4,s1,24
.LVL478:
	.loc 1 2041 2 is_stmt 1
	.loc 1 2041 12 is_stmt 0
	lw	a0,20(s1)
.LVL479:
	.loc 1 2041 9
	slli	a0,a0,2
	.loc 1 2041 5
	add	a0,a4,a0
.LVL480:
	.loc 1 2043 2 is_stmt 1
	.loc 1 2043 8 is_stmt 0
	andi	s4,s4,31
.LVL481:
	.loc 1 2043 5
	beq	s4,zero,.L214
	.loc 1 2044 3 is_stmt 1
	.loc 1 2044 6 is_stmt 0
	li	a6,32
	subw	a6,a6,s4
.LVL482:
	.loc 1 2045 3 is_stmt 1
	.loc 1 2045 5 is_stmt 0
	li	a3,0
.LVL483:
.L215:
	.loc 1 2046 3 is_stmt 1 discriminator 1
	.loc 1 2047 4 discriminator 1
	.loc 1 2047 12 is_stmt 0 discriminator 1
	lw	a1,0(a4)
	.loc 1 2047 15 discriminator 1
	sllw	a1,a1,s4
	.loc 1 2047 20 discriminator 1
	or	a3,a3,a1
.LVL484:
	.loc 1 2047 10 discriminator 1
	sw	a3,0(a5)
	addi	a5,a5,4
.LVL485:
	.loc 1 2048 4 is_stmt 1 discriminator 1
	mv	a3,a4
	.loc 1 2048 10 is_stmt 0 discriminator 1
	addi	a4,a4,4
.LVL486:
	.loc 1 2048 8 discriminator 1
	lw	a3,0(a3)
	.loc 1 2048 6 discriminator 1
	srlw	a3,a3,a6
.LVL487:
	.loc 1 2050 9 is_stmt 1 discriminator 1
	.loc 1 2050 4 is_stmt 0 discriminator 1
	bgtu	a0,a4,.L215
	.loc 1 2051 3 is_stmt 1
	.loc 1 2051 12 is_stmt 0
	sw	a3,0(a5)
.LVL488:
	.loc 1 2051 6
	beq	a3,zero,.L216
	.loc 1 2052 4 is_stmt 1
	addiw	s0,s3,2
.LVL489:
	j	.L216
.LVL490:
.L214:
	.loc 1 2067 7 discriminator 1
	.loc 1 2068 3 discriminator 1
	mv	a2,a4
	.loc 1 2068 13 is_stmt 0 discriminator 1
	addi	a4,a4,4
.LVL491:
	.loc 1 2068 11 discriminator 1
	lw	a2,0(a2)
	.loc 1 2068 9 discriminator 1
	sw	a2,0(a5)
	addi	a5,a5,4
.LVL492:
	.loc 1 2069 8 is_stmt 1 discriminator 1
	.loc 1 2069 3 is_stmt 0 discriminator 1
	bgtu	a0,a4,.L214
.LVL493:
.L216:
	.loc 1 2070 2 is_stmt 1
	.loc 1 2070 15 is_stmt 0
	addiw	s0,s0,-1
.LVL494:
	.loc 1 2070 10
	sw	s0,20(s2)
	.loc 1 2071 2 is_stmt 1
	mv	a0,s1
.LVL495:
	call	Bfree
.LVL496:
	.loc 1 2072 2
	.loc 1 2073 2 is_stmt 0
	mv	a0,s2
	ld	ra,56(sp)
	.cfi_restore 1
	ld	s0,48(sp)
	.cfi_restore 8
.LVL497:
	ld	s1,40(sp)
	.cfi_restore 9
.LVL498:
	ld	s2,32(sp)
	.cfi_restore 18
.LVL499:
	ld	s3,24(sp)
	.cfi_restore 19
	ld	s4,16(sp)
	.cfi_restore 20
.LVL500:
	ld	s5,8(sp)
	.cfi_restore 21
.LVL501:
	addi	sp,sp,64
	.cfi_def_cfa_offset 0
	jr	ra
	.cfi_endproc
.LFE9:
	.size	lshift, .-lshift
	.align	1
	.type	gethex, @function
gethex:
.LFB21:
	.loc 1 2749 1 is_stmt 1
	.cfi_startproc
.LVL502:
	addi	sp,sp,-96
	.cfi_def_cfa_offset 96
	sd	ra,88(sp)
	sd	s0,80(sp)
	sd	s1,72(sp)
	sd	s2,64(sp)
	sd	s3,56(sp)
	sd	s4,48(sp)
	sd	s5,40(sp)
	sd	s6,32(sp)
	sd	s7,24(sp)
	sd	s8,16(sp)
	sd	s9,8(sp)
	sd	s10,0(sp)
	.cfi_offset 1, -8
	.cfi_offset 8, -16
	.cfi_offset 9, -24
	.cfi_offset 18, -32
	.cfi_offset 19, -40
	.cfi_offset 20, -48
	.cfi_offset 21, -56
	.cfi_offset 22, -64
	.cfi_offset 23, -72
	.cfi_offset 24, -80
	.cfi_offset 25, -88
	.cfi_offset 26, -96
	mv	s2,a1
	mv	s3,a2
	mv	s4,a3
	.loc 1 2750 2
	.loc 1 2751 2
	.loc 1 2752 2
	.loc 1 2753 2
	.loc 1 2754 2
	.loc 1 2758 2
	.loc 1 2793 2
.LVL503:
	.loc 1 2794 2
	.loc 1 2794 7 is_stmt 0
	ld	a3,0(a0)
.LVL504:
	.loc 1 2794 5
	addi	a3,a3,2
.LVL505:
	.loc 1 2795 2 is_stmt 1
	.loc 1 2793 10 is_stmt 0
	li	a5,0
.LVL506:
.L220:
	.loc 1 2795 7 is_stmt 1
	.loc 1 2795 10 is_stmt 0
	add	s1,a3,a5
	lbu	a4,0(s1)
	.loc 1 2795 7
	li	a6,48
	bne	a4,a6,.L301
	.loc 1 2796 3 is_stmt 1
	.loc 1 2796 10 is_stmt 0
	addiw	a5,a5,1
.LVL507:
	j	.L220
.LVL508:
.L301:
	.loc 1 2797 2 is_stmt 1
	.loc 1 2798 2
	.loc 1 2799 2
	.loc 1 2800 2
	.loc 1 2801 2
	.loc 1 2802 2
	.loc 1 2802 12 is_stmt 0
	lla	a3,.LANCHOR0
	add	a3,a3,a4
	lbu	a3,0(a3)
	.loc 1 2802 5
	beq	a3,zero,.L222
	.loc 1 2803 3 is_stmt 1
	.loc 1 2803 10 is_stmt 0
	addiw	a5,a5,1
.LVL509:
	.loc 1 2800 7
	li	a7,0
	.loc 1 2799 8
	li	a2,0
.LVL510:
.L223:
	.loc 1 2823 11
	mv	s0,s1
	j	.L228
.LVL511:
.L222:
	.loc 1 2805 3 is_stmt 1
	.loc 1 2813 3
	.loc 1 2813 6 is_stmt 0
	li	a3,46
	bne	a4,a3,.L282
	.loc 1 2815 3 is_stmt 1
	.loc 1 2815 9 is_stmt 0
	addi	a2,s1,1
.LVL512:
	.loc 1 2817 3 is_stmt 1
	.loc 1 2817 15 is_stmt 0
	lbu	a3,1(s1)
	.loc 1 2817 14
	lla	a4,.LANCHOR0
	add	a4,a4,a3
	lbu	a4,0(a4)
	.loc 1 2817 6
	beq	a4,zero,.L283
	.loc 1 2815 9
	mv	s1,a2
.LVL513:
	j	.L225
.LVL514:
.L226:
	.loc 1 2820 4 is_stmt 1
	.loc 1 2820 5 is_stmt 0
	addi	s1,s1,1
.LVL515:
.L225:
	.loc 1 2819 8 is_stmt 1
	.loc 1 2819 9 is_stmt 0
	lbu	a5,0(s1)
	.loc 1 2819 8
	li	a4,48
	beq	a5,a4,.L226
	.loc 1 2821 3 is_stmt 1
	.loc 1 2821 13 is_stmt 0
	lla	a4,.LANCHOR0
	add	a5,a4,a5
	lbu	a5,0(a5)
	.loc 1 2821 6
	bne	a5,zero,.L284
	.loc 1 2805 8
	li	a7,1
	.loc 1 2823 11
	li	a5,1
	j	.L223
.LVL516:
.L229:
	.loc 1 2827 3 is_stmt 1
	.loc 1 2827 4 is_stmt 0
	addi	s0,s0,1
.LVL517:
.L228:
	.loc 1 2826 7 is_stmt 1
	.loc 1 2826 15 is_stmt 0
	lbu	a3,0(s0)
	.loc 1 2826 14
	lla	a4,.LANCHOR0
	add	a4,a4,a3
	lbu	a4,0(a4)
	.loc 1 2826 7
	bne	a4,zero,.L229
	.loc 1 2836 2 is_stmt 1
	.loc 1 2836 5 is_stmt 0
	li	a4,46
	beq	a3,a4,.L302
.LVL518:
.L230:
	.loc 1 2842 2 is_stmt 1
	.loc 1 2842 5 is_stmt 0
	beq	a2,zero,.L285
	.loc 1 2843 3 is_stmt 1
	.loc 1 2843 10 is_stmt 0
	subw	s5,s0,a2
	.loc 1 2843 27
	slliw	s5,s5,2
	.loc 1 2843 5
	negw	s5,s5
.LVL519:
.L224:
	.loc 1 2845 2 is_stmt 1
	.loc 1 2846 2
	.loc 1 2847 2
	.loc 1 2847 9 is_stmt 0
	lbu	a4,0(s0)
	.loc 1 2847 2
	li	a3,80
	beq	a4,a3,.L233
	li	a3,112
	beq	a4,a3,.L233
	mv	a3,s0
	li	t1,0
	li	s6,0
.LVL520:
.L234:
	.loc 1 2871 2 is_stmt 1
	.loc 1 2871 6 is_stmt 0
	sd	a3,0(a0)
	.loc 1 2872 2 is_stmt 1
	.loc 1 2872 5 is_stmt 0
	bne	a5,zero,.L242
	.loc 1 2873 3 is_stmt 1
	.loc 1 2873 19 is_stmt 0
	addi	a5,s1,-1
.LVL521:
	.loc 1 2873 7
	sd	a5,0(a0)
.L242:
	.loc 1 2874 2 is_stmt 1
	.loc 1 2874 5 is_stmt 0
	bne	a7,zero,.L243
	.loc 1 2876 2 is_stmt 1
	.loc 1 2876 5 is_stmt 0
	beq	s6,zero,.L244
	.loc 1 2877 3 is_stmt 1
	.loc 1 2877 6 is_stmt 0
	beq	t1,zero,.L245
	.loc 1 2879 4 is_stmt 1
	li	a5,2
	beq	s3,a5,.L246
	li	a5,3
	beq	s3,a5,.L247
.LVL522:
.L248:
	.loc 1 3016 4
	li	a5,2
	sw	a5,errno,a4
.L243:
	.loc 1 3018 4
	.loc 1 3018 11 is_stmt 0
	sd	zero,0(s2)
	.loc 1 3019 4 is_stmt 1
.LVL523:
.L219:
	.loc 1 3108 2 is_stmt 0
	ld	ra,88(sp)
	.cfi_remember_state
	.cfi_restore 1
	ld	s0,80(sp)
	.cfi_restore 8
	ld	s1,72(sp)
	.cfi_restore 9
	ld	s2,64(sp)
	.cfi_restore 18
.LVL524:
	ld	s3,56(sp)
	.cfi_restore 19
	ld	s4,48(sp)
	.cfi_restore 20
	ld	s5,40(sp)
	.cfi_restore 21
	ld	s6,32(sp)
	.cfi_restore 22
	ld	s7,24(sp)
	.cfi_restore 23
	ld	s8,16(sp)
	.cfi_restore 24
	ld	s9,8(sp)
	.cfi_restore 25
	ld	s10,0(sp)
	.cfi_restore 26
	addi	sp,sp,96
	.cfi_def_cfa_offset 0
	jr	ra
.LVL525:
.L284:
	.cfi_restore_state
	.loc 1 2822 9
	li	a7,0
	.loc 1 2823 11
	li	a5,1
	j	.L223
.LVL526:
.L302:
	.loc 1 2836 16 discriminator 1
	bne	a2,zero,.L230
	.loc 1 2837 3 is_stmt 1
	.loc 1 2837 9 is_stmt 0
	addi	s0,s0,1
.LVL527:
	.loc 1 2839 3 is_stmt 1
	.loc 1 2837 9 is_stmt 0
	mv	a2,s0
	.loc 1 2839 8
	j	.L231
.LVL528:
.L232:
	.loc 1 2840 4 is_stmt 1
	.loc 1 2840 5 is_stmt 0
	addi	s0,s0,1
.LVL529:
.L231:
	.loc 1 2839 8 is_stmt 1
	.loc 1 2839 16 is_stmt 0
	lbu	a3,0(s0)
	.loc 1 2839 15
	lla	a4,.LANCHOR0
	add	a4,a4,a3
	lbu	a4,0(a4)
	.loc 1 2839 8
	bne	a4,zero,.L232
	j	.L230
.LVL530:
.L282:
	.loc 1 2798 4
	mv	s0,s1
	.loc 1 2805 8
	li	a7,1
	.loc 1 2801 4
	li	s5,0
	j	.L224
.LVL531:
.L283:
	.loc 1 2815 9
	mv	s0,a2
	.loc 1 2805 8
	li	a7,1
	.loc 1 2801 4
	li	s5,0
	j	.L224
.LVL532:
.L285:
	li	s5,0
	j	.L224
.LVL533:
.L233:
	.loc 1 2850 3 is_stmt 1
	addi	a3,s0,1
.LVL534:
	.loc 1 2850 10 is_stmt 0
	lbu	a4,1(s0)
	li	a2,43
	beq	a4,a2,.L287
	li	a2,45
	bne	a4,a2,.L288
	.loc 1 2852 10
	li	t1,1
.L235:
.LVL535:
	.loc 1 2855 4 is_stmt 1
	.loc 1 2855 5 is_stmt 0
	addi	a3,s0,2
.LVL536:
.L236:
	.loc 1 2857 3 is_stmt 1
	.loc 1 2857 19 is_stmt 0
	lbu	a2,0(a3)
	.loc 1 2857 18
	lla	a4,.LANCHOR0
	add	a4,a4,a2
	.loc 1 2857 10
	lbu	s6,0(a4)
.LVL537:
	.loc 1 2857 6
	beq	s6,zero,.L289
	.loc 1 2857 29 discriminator 1
	li	a4,25
	bgt	s6,a4,.L290
	.loc 1 2861 3 is_stmt 1
	.loc 1 2861 6 is_stmt 0
	addiw	a1,s6,-16
.LVL538:
	.loc 1 2862 3 is_stmt 1
	.loc 1 2846 6 is_stmt 0
	li	s6,0
.LVL539:
	.loc 1 2862 8
	j	.L237
.LVL540:
.L287:
	li	t1,0
	j	.L235
.L288:
	li	t1,0
	j	.L236
.LVL541:
.L238:
	.loc 1 2865 4 is_stmt 1
	.loc 1 2865 11 is_stmt 0
	slliw	a4,a1,2
	addw	a4,a4,a1
	slliw	a4,a4,1
	.loc 1 2865 15
	addw	a4,a4,a6
	.loc 1 2865 7
	addiw	a1,a4,-16
.LVL542:
.L237:
	.loc 1 2862 8 is_stmt 1
	addi	a3,a3,1
.LVL543:
	.loc 1 2862 21 is_stmt 0
	lbu	a4,0(a3)
	.loc 1 2862 20
	lla	a2,.LANCHOR0
	add	a2,a2,a4
	.loc 1 2862 12
	lbu	a6,0(a2)
.LVL544:
	.loc 1 2862 8
	beq	a6,zero,.L239
	.loc 1 2862 32 discriminator 1
	li	a4,25
	bgt	a6,a4,.L239
	.loc 1 2863 4 is_stmt 1
	.loc 1 2863 11 is_stmt 0
	li	a2,-134217728
	and	a2,a1,a2
	sext.w	a2,a2
	.loc 1 2863 7
	beq	a2,zero,.L238
	.loc 1 2864 9
	li	s6,1
.LVL545:
	j	.L238
.LVL546:
.L239:
	.loc 1 2867 3 is_stmt 1
	.loc 1 2867 6 is_stmt 0
	beq	t1,zero,.L241
	.loc 1 2868 4 is_stmt 1
	.loc 1 2868 7 is_stmt 0
	negw	a1,a1
.LVL547:
.L241:
	.loc 1 2869 3 is_stmt 1
	.loc 1 2869 5 is_stmt 0
	addw	s5,s5,a1
.LVL548:
	j	.L234
.LVL549:
.L289:
	.loc 1 2858 6
	mv	a3,s0
.LVL550:
	j	.L234
.LVL551:
.L290:
	mv	a3,s0
.LVL552:
	.loc 1 2846 6
	li	s6,0
.LVL553:
	j	.L234
.LVL554:
.L246:
	.loc 1 2881 5 is_stmt 1
	.loc 1 2881 8 is_stmt 0
	bne	s4,zero,.L248
.LVL555:
.L249:
	.loc 1 2895 4 is_stmt 1
	li	a5,2
	sw	a5,errno,a4
	.loc 1 2896 4
	.loc 1 2896 15 is_stmt 0
	sw	zero,4(s2)
	.loc 1 2897 4 is_stmt 1
	.loc 1 2897 15 is_stmt 0
	li	a5,1
	sw	a5,0(s2)
	.loc 1 2898 4 is_stmt 1
	j	.L219
.LVL556:
.L247:
	.loc 1 2885 5
	.loc 1 2885 8 is_stmt 0
	beq	s4,zero,.L248
	j	.L249
.L245:
	.loc 1 2901 3 is_stmt 1
	li	a5,2
	beq	s3,a5,.L252
	li	a5,3
	beq	s3,a5,.L253
	li	a5,1
	beq	s3,a5,.L254
.L255:
	.loc 1 2914 3
	.loc 1 2914 14 is_stmt 0
	li	a5,2146435072
	addi	a5,a5,-1
	sw	a5,4(s2)
	.loc 1 2915 3 is_stmt 1
	.loc 1 2915 14 is_stmt 0
	li	a5,-1
	sw	a5,0(s2)
	.loc 1 2916 3 is_stmt 1
	j	.L219
.L252:
	.loc 1 2905 4
	.loc 1 2905 7 is_stmt 0
	beq	s4,zero,.L254
	j	.L255
.L253:
	.loc 1 2909 4 is_stmt 1
	.loc 1 2909 7 is_stmt 0
	bne	s4,zero,.L254
	j	.L255
.L244:
	.loc 1 2918 2 is_stmt 1
	.loc 1 2918 9 is_stmt 0
	sub	a5,s0,s1
	.loc 1 2918 4
	addiw	a5,a5,-1
.LVL557:
	.loc 1 2919 2 is_stmt 1
	.loc 1 2919 8 is_stmt 0
	mv	a0,s6
.LVL558:
	.loc 1 2919 2
	j	.L256
.LVL559:
.L257:
	.loc 1 2920 3 is_stmt 1 discriminator 3
	.loc 1 2920 4 is_stmt 0 discriminator 3
	addiw	a0,a0,1
.LVL560:
	.loc 1 2919 40 is_stmt 1 discriminator 3
	.loc 1 2919 42 is_stmt 0 discriminator 3
	sraiw	a5,a5,1
.LVL561:
.L256:
	.loc 1 2919 13 is_stmt 1 discriminator 1
	.loc 1 2919 2 is_stmt 0 discriminator 1
	li	a4,7
	bgt	a5,a4,.L257
	.loc 1 2921 2 is_stmt 1
	.loc 1 2921 6 is_stmt 0
	call	Balloc
.LVL562:
	mv	s7,a0
.LVL563:
	.loc 1 2922 2 is_stmt 1
	.loc 1 2922 4 is_stmt 0
	addi	s8,a0,24
.LVL564:
	.loc 1 2923 2 is_stmt 1
	.loc 1 2924 2
	.loc 1 2928 2
	.loc 1 2923 4 is_stmt 0
	mv	a4,s6
	.loc 1 2922 4
	mv	a2,s8
	.loc 1 2924 4
	li	a0,0
.LVL565:
	.loc 1 2928 7
	j	.L258
.LVL566:
.L260:
	.loc 1 2943 3 is_stmt 1
	.loc 1 2943 16 is_stmt 0
	lbu	a3,0(s0)
	.loc 1 2943 15
	lla	a5,.LANCHOR0
	add	a5,a5,a3
	lbu	a5,0(a5)
	.loc 1 2943 21
	andi	a5,a5,15
	.loc 1 2943 29
	sllw	a5,a5,a4
	.loc 1 2943 5
	or	a0,a0,a5
.LVL567:
	sext.w	a0,a0
.LVL568:
	.loc 1 2944 3 is_stmt 1
	.loc 1 2944 5 is_stmt 0
	addiw	a4,a4,4
.LVL569:
.L258:
	.loc 1 2928 7 is_stmt 1
	bgeu	s1,s0,.L303
	.loc 1 2935 3
	.loc 1 2935 6 is_stmt 0
	addi	s0,s0,-1
.LVL570:
	.loc 1 2935 7
	lbu	a3,0(s0)
	.loc 1 2935 6
	li	a5,46
	beq	a3,a5,.L258
	.loc 1 2938 3 is_stmt 1
	.loc 1 2938 6 is_stmt 0
	li	a5,32
	bne	a4,a5,.L260
	.loc 1 2939 4 is_stmt 1
.LVL571:
	.loc 1 2939 9 is_stmt 0
	sw	a0,0(a2)
	.loc 1 2940 4 is_stmt 1
.LVL572:
	.loc 1 2941 4
	.loc 1 2941 6 is_stmt 0
	mv	a4,s6
	.loc 1 2939 6
	addi	a2,a2,4
.LVL573:
	.loc 1 2940 6
	li	a0,0
	j	.L260
.LVL574:
.L303:
	.loc 1 2946 2 is_stmt 1
	.loc 1 2946 4 is_stmt 0
	addi	a5,a2,4
.LVL575:
	.loc 1 2946 7
	sw	a0,0(a2)
	.loc 1 2947 2 is_stmt 1
	.loc 1 2947 17 is_stmt 0
	sub	a5,a5,s8
.LVL576:
	srai	a5,a5,2
	.loc 1 2947 13
	sext.w	a5,a5
.LVL577:
	.loc 1 2947 9
	sw	a5,20(s7)
	.loc 1 2948 2 is_stmt 1
	.loc 1 2948 12 is_stmt 0
	slliw	s0,a5,5
.LVL578:
	.loc 1 2948 17
	call	hi0bits
.LVL579:
	.loc 1 2948 4
	subw	s0,s0,a0
	sext.w	a5,s0
.LVL580:
	.loc 1 2949 2 is_stmt 1
	.loc 1 2950 2
	.loc 1 2951 2
	.loc 1 2952 2
	.loc 1 2952 5 is_stmt 0
	li	a4,53
	ble	a5,a4,.L262
	.loc 1 2953 3 is_stmt 1
	.loc 1 2953 5 is_stmt 0
	addiw	s9,s0,-53
	sext.w	s10,s9
.LVL581:
	.loc 1 2954 3 is_stmt 1
	.loc 1 2954 7 is_stmt 0
	mv	a1,s10
	mv	a0,s7
	call	any_on
.LVL582:
	sext.w	s1,a0
.LVL583:
	.loc 1 2954 6
	beq	s1,zero,.L263
	.loc 1 2955 4 is_stmt 1
.LVL584:
	.loc 1 2956 4
	.loc 1 2956 6 is_stmt 0
	addiw	s0,s0,-54
	sext.w	a1,s0
.LVL585:
	.loc 1 2957 4 is_stmt 1
	.loc 1 2957 11 is_stmt 0
	sraiw	a5,s0,5
	.loc 1 2957 9
	slli	a5,a5,2
	add	a5,s8,a5
	lw	a5,0(a5)
	.loc 1 2957 25
	li	a4,1
	sllw	a4,a4,s0
	.loc 1 2957 21
	and	a5,a5,a4
	sext.w	a5,a5
	.loc 1 2957 7
	beq	a5,zero,.L292
	.loc 1 2958 5 is_stmt 1
.LVL586:
	.loc 1 2959 5
	.loc 1 2959 8 is_stmt 0
	ble	a1,zero,.L293
	.loc 1 2959 18 discriminator 1
	mv	a0,s7
	call	any_on
.LVL587:
	sext.w	a5,a0
	.loc 1 2959 15 discriminator 1
	bne	a5,zero,.L294
	.loc 1 2958 14
	li	s1,2
	j	.L263
.LVL588:
.L292:
	.loc 1 2955 13
	li	s1,1
.LVL589:
.L263:
	.loc 1 2963 3 is_stmt 1
	mv	a1,s10
	mv	a0,s7
	call	rshift
.LVL590:
	.loc 1 2964 3
	.loc 1 2964 5 is_stmt 0
	addw	s5,s9,s5
.LVL591:
.L264:
	.loc 1 2972 2 is_stmt 1
	.loc 1 2972 5 is_stmt 0
	li	a5,971
	bgt	s5,a5,.L266
	.loc 1 2994 2 is_stmt 1
.LVL592:
	.loc 1 2995 2
	.loc 1 2995 5 is_stmt 0
	li	a5,-1074
	bge	s5,a5,.L296
	.loc 1 2996 3 is_stmt 1
.LVL593:
	.loc 1 2997 3
	.loc 1 2997 5 is_stmt 0
	li	s6,-1074
.LVL594:
	subw	s6,s6,s5
.LVL595:
	.loc 1 2998 3 is_stmt 1
	.loc 1 2998 6 is_stmt 0
	li	a5,52
	ble	s6,a5,.L268
	.loc 1 3000 4 is_stmt 1
	li	a5,2
	beq	s3,a5,.L269
	li	a5,3
	beq	s3,a5,.L270
	li	a5,1
	beq	s3,a5,.L304
.L271:
	.loc 1 3014 4
	mv	a0,s7
	call	Bfree
.LVL596:
	j	.L248
.LVL597:
.L293:
	.loc 1 2958 14 is_stmt 0
	li	s1,2
	j	.L263
.L294:
	.loc 1 2960 15
	li	s1,3
	j	.L263
.LVL598:
.L262:
	.loc 1 2966 7 is_stmt 1
	.loc 1 2966 10 is_stmt 0
	li	a4,52
	ble	a5,a4,.L305
	.loc 1 2950 11
	li	s1,0
.LVL599:
	j	.L264
.LVL600:
.L305:
	.loc 1 2967 3 is_stmt 1
	.loc 1 2967 5 is_stmt 0
	li	a5,53
	subw	s0,a5,s0
.LVL601:
	.loc 1 2968 3 is_stmt 1
	.loc 1 2968 7 is_stmt 0
	sext.w	a1,s0
	mv	a0,s7
	call	lshift
.LVL602:
	mv	s7,a0
.LVL603:
	.loc 1 2969 3 is_stmt 1
	.loc 1 2969 5 is_stmt 0
	subw	s5,s5,s0
.LVL604:
	.loc 1 2970 3 is_stmt 1
	.loc 1 2970 5 is_stmt 0
	addi	s8,a0,24
.LVL605:
	.loc 1 2950 11
	li	s1,0
.LVL606:
	j	.L264
.LVL607:
.L304:
	.loc 1 3002 5 is_stmt 1
	.loc 1 3002 8 is_stmt 0
	li	a5,53
	bne	s6,a5,.L271
	.loc 1 3002 20 discriminator 1
	li	a5,1
	ble	s6,a5,.L250
	.loc 1 3002 30 discriminator 2
	bne	s1,zero,.L250
	.loc 1 3002 45 discriminator 3
	li	a1,-1075
	subw	a1,a1,s5
	mv	a0,s7
	call	any_on
.LVL608:
	sext.w	a5,a0
	.loc 1 3002 42 discriminator 3
	beq	a5,zero,.L271
	j	.L250
.L269:
	.loc 1 3006 5 is_stmt 1
	.loc 1 3006 8 is_stmt 0
	bne	s4,zero,.L271
.L250:
	.loc 1 2893 4 is_stmt 1
	mv	a0,s7
	call	Bfree
.LVL609:
	j	.L249
.L270:
	.loc 1 3010 5
	.loc 1 3010 8 is_stmt 0
	beq	s4,zero,.L271
	j	.L250
.L268:
	.loc 1 3021 3 is_stmt 1
	.loc 1 3021 5 is_stmt 0
	li	s0,-1075
	subw	s0,s0,s5
	sext.w	s9,s0
.LVL610:
	.loc 1 3022 3 is_stmt 1
	.loc 1 3022 6 is_stmt 0
	bne	s1,zero,.L297
	.loc 1 3024 8 is_stmt 1
	.loc 1 3024 11 is_stmt 0
	ble	s9,zero,.L272
	.loc 1 3025 4 is_stmt 1
	.loc 1 3025 15 is_stmt 0
	mv	a1,s9
	mv	a0,s7
	call	any_on
.LVL611:
	sext.w	s1,a0
.LVL612:
	j	.L272
.L297:
	.loc 1 3023 13
	li	s1,1
.LVL613:
.L272:
	.loc 1 3026 3 is_stmt 1
	.loc 1 3026 10 is_stmt 0
	sraiw	a5,s0,5
	.loc 1 3026 8
	slli	a5,a5,2
	add	a5,s8,a5
	lw	a5,0(a5)
	.loc 1 3026 24
	li	a4,1
	sllw	s9,a4,s9
	.loc 1 3026 20
	and	a5,a5,s9
	sext.w	a5,a5
	.loc 1 3026 6
	beq	a5,zero,.L273
	.loc 1 3027 4 is_stmt 1
	.loc 1 3027 13 is_stmt 0
	ori	s1,s1,2
.LVL614:
.L273:
	.loc 1 3028 3 is_stmt 1
	.loc 1 3028 9 is_stmt 0
	addiw	s0,s5,1127
.LVL615:
	.loc 1 3029 3 is_stmt 1
	mv	a1,s6
	mv	a0,s7
	call	rshift
.LVL616:
	.loc 1 3030 3
	.loc 1 2996 10 is_stmt 0
	li	s6,1
	.loc 1 3030 5
	li	s5,-1074
.LVL617:
	j	.L267
.LVL618:
.L296:
	.loc 1 2949 8
	li	s0,53
.LVL619:
.L267:
	.loc 1 3032 2 is_stmt 1
	.loc 1 3032 5 is_stmt 0
	beq	s1,zero,.L274
	.loc 1 3033 3 is_stmt 1
.LVL620:
	.loc 1 3034 3
	li	a5,2
	beq	s3,a5,.L275
	li	a5,3
	beq	s3,a5,.L276
	li	a5,1
	beq	s3,a5,.L306
.LVL621:
.L274:
	.loc 1 3069 2
	.loc 1 3069 5 is_stmt 0
	beq	s6,zero,.L279
	.loc 1 3070 3 is_stmt 1
	.loc 1 3070 17 is_stmt 0
	lw	a4,20(s7)
	.loc 1 3070 49
	li	a5,1
	ble	a4,a5,.L298
	.loc 1 3070 33 discriminator 1
	lw	a5,28(s7)
	.loc 1 3070 49 discriminator 1
	li	a4,-1048576
	addi	a4,a4,-1
	and	a5,a5,a4
.L280:
	.loc 1 3070 14 discriminator 4
	sw	a5,4(s2)
.L281:
	.loc 1 3073 2 is_stmt 1
	.loc 1 3073 19 is_stmt 0
	lw	a5,24(s7)
	.loc 1 3073 13
	sw	a5,0(s2)
	.loc 1 3107 2 is_stmt 1
	mv	a0,s7
	call	Bfree
.LVL622:
	j	.L219
.LVL623:
.L306:
	.loc 1 3038 4
	.loc 1 3038 17 is_stmt 0
	andi	a5,s1,2
	.loc 1 3038 7
	beq	a5,zero,.L274
	.loc 1 3039 27
	lw	a5,0(s8)
	.loc 1 3039 23
	or	a5,a5,s1
	andi	a5,a5,1
	.loc 1 3039 5
	bne	a5,zero,.L277
	j	.L274
.L275:
	.loc 1 3043 4 is_stmt 1
	.loc 1 3043 7 is_stmt 0
	li	a5,1
	subw	s4,a5,s4
.LVL624:
	.loc 1 3044 4 is_stmt 1
.L276:
	.loc 1 3048 3
	.loc 1 3048 6 is_stmt 0
	beq	s4,zero,.L274
.LVL625:
.L277:
	.loc 1 3049 4 is_stmt 1
	.loc 1 3049 6 is_stmt 0
	lw	s1,20(s7)
.LVL626:
	.loc 1 3050 4 is_stmt 1
	.loc 1 3050 8 is_stmt 0
	mv	a0,s7
	call	increment
.LVL627:
	mv	s7,a0
.LVL628:
	.loc 1 3051 4 is_stmt 1
	.loc 1 3051 6 is_stmt 0
	addi	a4,a0,24
.LVL629:
	.loc 1 3052 4 is_stmt 1
	.loc 1 3052 7 is_stmt 0
	bne	s6,zero,.L274
	.loc 1 3059 9 is_stmt 1
	.loc 1 3059 14 is_stmt 0
	lw	a5,20(a0)
	.loc 1 3059 12
	bgt	a5,s1,.L278
	.loc 1 3060 12
	andi	s0,s0,31
.LVL630:
	.loc 1 3060 5
	beq	s0,zero,.L274
	.loc 1 3061 21
	slli	a5,s1,2
	addi	a5,a5,-4
	add	a5,a4,a5
	.loc 1 3061 12
	lw	a0,0(a5)
.LVL631:
	call	hi0bits
.LVL632:
	.loc 1 3061 32
	li	a5,32
	subw	s0,a5,s0
.LVL633:
	.loc 1 3061 9
	bge	a0,s0,.L274
.L278:
	.loc 1 3062 5 is_stmt 1
	li	a1,1
	mv	a0,s7
	call	rshift
.LVL634:
	.loc 1 3063 5
	.loc 1 3063 8 is_stmt 0
	addiw	s5,s5,1
.LVL635:
	li	a5,1023
	ble	s5,a5,.L274
.LVL636:
.L266:
	.loc 1 2974 3 is_stmt 1
	mv	a0,s7
	call	Bfree
.LVL637:
.L254:
	.loc 1 2976 3
	li	a5,2
	sw	a5,errno,a4
	.loc 1 2990 3
	.loc 1 2990 14 is_stmt 0
	li	a5,2146435072
	sw	a5,4(s2)
	.loc 1 2991 3 is_stmt 1
	.loc 1 2991 14 is_stmt 0
	sw	zero,0(s2)
	.loc 1 2992 3 is_stmt 1
	j	.L219
.LVL638:
.L298:
	.loc 1 3070 49 is_stmt 0
	li	a5,0
	j	.L280
.L279:
	.loc 1 3072 3 is_stmt 1
	.loc 1 3072 21 is_stmt 0
	lw	a5,28(s7)
	.loc 1 3072 25
	li	a4,-1048576
	addi	a4,a4,-1
	and	a4,a5,a4
	.loc 1 3072 52
	addiw	a5,s5,1075
	.loc 1 3072 58
	slliw	a5,a5,20
	.loc 1 3072 38
	or	a5,a4,a5
	.loc 1 3072 14
	sw	a5,4(s2)
	j	.L281
	.cfi_endproc
.LFE21:
	.size	gethex, .-gethex
	.align	1
	.type	bigcomp, @function
bigcomp:
.LFB25:
	.loc 1 3259 1 is_stmt 1
	.cfi_startproc
.LVL639:
	addi	sp,sp,-144
	.cfi_def_cfa_offset 144
	sd	ra,136(sp)
	sd	s0,128(sp)
	sd	s1,120(sp)
	sd	s2,112(sp)
	sd	s3,104(sp)
	sd	s4,96(sp)
	sd	s5,88(sp)
	sd	s6,80(sp)
	sd	s7,72(sp)
	sd	s8,64(sp)
	sd	s9,56(sp)
	sd	s10,48(sp)
	sd	s11,40(sp)
	.cfi_offset 1, -8
	.cfi_offset 8, -16
	.cfi_offset 9, -24
	.cfi_offset 18, -32
	.cfi_offset 19, -40
	.cfi_offset 20, -48
	.cfi_offset 21, -56
	.cfi_offset 22, -64
	.cfi_offset 23, -72
	.cfi_offset 24, -80
	.cfi_offset 25, -88
	.cfi_offset 26, -96
	.cfi_offset 27, -104
	mv	s8,a0
	mv	s3,a1
	mv	s5,a2
	li	s0,0
	.loc 1 3260 2
	.loc 1 3261 2
	.loc 1 3263 2
	.loc 1 3263 8 is_stmt 0
	lw	s10,12(a2)
.LVL640:
	.loc 1 3264 2 is_stmt 1
	.loc 1 3264 5 is_stmt 0
	lw	s6,24(a2)
.LVL641:
	.loc 1 3265 2 is_stmt 1
	.loc 1 3265 6 is_stmt 0
	lw	s4,28(a2)
.LVL642:
	.loc 1 3266 2 is_stmt 1
	.loc 1 3266 14 is_stmt 0
	lw	s7,16(a2)
	.loc 1 3266 10
	addw	s7,s7,s6
	.loc 1 3266 5
	addiw	s11,s7,-1
	sext.w	s9,s11
.LVL643:
	.loc 1 3267 2 is_stmt 1
	.loc 1 3269 2
	.loc 1 3269 8 is_stmt 0
	fld	fa5,0(a0)
	.loc 1 3269 5
	fmv.d.x	fa4,zero
	feq.d	a5,fa5,fa4
	bne	a5,zero,.L340
	.loc 1 3292 3 is_stmt 1
	.loc 1 3292 7 is_stmt 0
	addi	a2,sp,28
.LVL644:
	addi	a1,sp,24
.LVL645:
	call	d2b
.LVL646:
	.loc 1 3294 2 is_stmt 1
	.loc 1 3294 10 is_stmt 0
	lw	a5,36(s5)
	.loc 1 3294 5
	lw	s2,24(sp)
	subw	s2,s2,a5
	sw	s2,24(sp)
	.loc 1 3298 2 is_stmt 1
	.loc 1 3298 8 is_stmt 0
	lw	a4,28(sp)
	.loc 1 3298 4
	li	a5,53
	subw	a5,a5,a4
.LVL647:
	.loc 1 3299 2 is_stmt 1
	.loc 1 3299 13 is_stmt 0
	addiw	s2,s2,1074
.LVL648:
	.loc 1 3299 5
	bgt	a5,s2,.L310
	.loc 1 3298 4
	mv	s2,a5
.L310:
.LVL649:
	.loc 1 3325 3 is_stmt 1
	.loc 1 3325 5 is_stmt 0
	addiw	s2,s2,1
.LVL650:
	.loc 1 3325 7
	mv	a1,s2
	call	lshift
.LVL651:
	mv	s1,a0
.LVL652:
	.loc 1 3326 3 is_stmt 1
	.loc 1 3326 11 is_stmt 0
	lw	a5,24(a0)
	ori	a5,a5,1
	sw	a5,24(a0)
	.loc 1 3267 11
	sd	zero,8(sp)
.LVL653:
.L309:
	.loc 1 3331 2 is_stmt 1
	.loc 1 3331 11 is_stmt 0
	addw	s2,s2,s11
.LVL654:
	.loc 1 3331 5
	lw	s11,24(sp)
.LVL655:
	subw	s2,s11,s2
	sw	s2,24(sp)
	.loc 1 3332 2 is_stmt 1
	.loc 1 3332 6 is_stmt 0
	li	a0,1
	call	i2b
.LVL656:
	mv	s2,a0
.LVL657:
	.loc 1 3336 2 is_stmt 1
	.loc 1 3336 5 is_stmt 0
	bgt	s9,zero,.L341
	.loc 1 3338 7 is_stmt 1
	.loc 1 3338 10 is_stmt 0
	blt	s9,zero,.L342
.LVL658:
.L312:
	.loc 1 3340 2 is_stmt 1
	.loc 1 3340 9 is_stmt 0
	lw	s7,24(sp)
	.loc 1 3340 5
	ble	s7,zero,.L343
	.loc 1 3342 6
	li	s9,0
.LVL659:
.L313:
	.loc 1 3348 2 is_stmt 1
	.loc 1 3348 6 is_stmt 0
	mv	a1,s9
	mv	a0,s2
	call	dshift
.LVL660:
	mv	s11,a0
.LVL661:
	.loc 1 3349 2 is_stmt 1
	.loc 1 3349 10 is_stmt 0
	addw	a1,s7,a0
.LVL662:
	.loc 1 3349 5
	bgt	a1,zero,.L344
.LVL663:
.L314:
	.loc 1 3351 2 is_stmt 1
	.loc 1 3351 10 is_stmt 0
	addw	a1,s9,s11
.LVL664:
	.loc 1 3351 5
	bgt	a1,zero,.L345
.L315:
	.loc 1 3357 2 is_stmt 1
	.loc 1 3357 14 is_stmt 0
	mv	a1,s2
	mv	a0,s1
	call	quorem
.LVL665:
	.loc 1 3357 5
	beq	a0,zero,.L346
.L316:
	.loc 1 3365 11 discriminator 1
	li	a5,0
	j	.L317
.LVL666:
.L340:
	.loc 1 3271 3 is_stmt 1
	.loc 1 3271 7 is_stmt 0
	li	a0,1
.LVL667:
	call	i2b
.LVL668:
	mv	s1,a0
.LVL669:
	.loc 1 3272 3 is_stmt 1
	.loc 1 3273 3
	.loc 1 3273 9 is_stmt 0
	li	a5,1
	sw	a5,28(sp)
	.loc 1 3275 3 is_stmt 1
	.loc 1 3275 13 is_stmt 0
	li	a5,57671680
	sw	a5,4(s8)
	.loc 1 3279 3 is_stmt 1
.LVL670:
	.loc 1 3284 4
	.loc 1 3285 4
	li	a5,-1075
	sw	a5,24(sp)
	.loc 1 3286 4
.LVL671:
	.loc 1 3287 4
	.loc 1 3284 13 is_stmt 0
	li	a5,1
	sd	a5,8(sp)
	.loc 1 3279 5
	li	s2,0
	.loc 1 3286 10
	li	s10,0
	.loc 1 3287 4
	j	.L309
.LVL672:
.L341:
	.loc 1 3337 3 is_stmt 1
	.loc 1 3337 7 is_stmt 0
	mv	a1,s9
	call	pow5mult
.LVL673:
	mv	s2,a0
.LVL674:
	j	.L312
.L342:
	.loc 1 3339 3 is_stmt 1
	.loc 1 3339 7 is_stmt 0
	li	a1,1
	subw	a1,a1,s7
	mv	a0,s1
.LVL675:
	call	pow5mult
.LVL676:
	mv	s1,a0
.LVL677:
	j	.L312
.L343:
	.loc 1 3345 3 is_stmt 1
.LVL678:
	.loc 1 3346 3
	.loc 1 3346 6 is_stmt 0
	negw	s9,s7
.LVL679:
	.loc 1 3345 6
	li	s7,0
.LVL680:
	j	.L313
.LVL681:
.L344:
	.loc 1 3350 3 is_stmt 1
	.loc 1 3350 7 is_stmt 0
	mv	a0,s1
.LVL682:
	call	lshift
.LVL683:
	mv	s1,a0
.LVL684:
	j	.L314
.LVL685:
.L345:
	.loc 1 3352 3 is_stmt 1
	.loc 1 3352 7 is_stmt 0
	mv	a0,s2
	call	lshift
.LVL686:
	mv	s2,a0
.LVL687:
	j	.L315
.LVL688:
.L346:
	.loc 1 3358 3 is_stmt 1
	.loc 1 3358 7 is_stmt 0
	li	a2,0
	li	a1,10
	mv	a0,s1
.LVL689:
	call	multadd
.LVL690:
	mv	s1,a0
.LVL691:
	.loc 1 3359 3 is_stmt 1
	.loc 1 3359 9 is_stmt 0
	mv	a1,s2
	call	quorem
.LVL692:
	j	.L316
.LVL693:
.L319:
	.loc 1 3372 3 is_stmt 1
	.loc 1 3372 7 is_stmt 0
	li	a2,0
	li	a1,10
	mv	a0,s1
.LVL694:
	call	multadd
.LVL695:
	mv	s1,a0
.LVL696:
	.loc 1 3373 3 is_stmt 1
	.loc 1 3373 9 is_stmt 0
	mv	a1,s2
	call	quorem
.LVL697:
	.loc 1 3365 17
	mv	a5,s7
.L317:
.LVL698:
	.loc 1 3364 13 is_stmt 1 discriminator 1
	.loc 1 3364 2 is_stmt 0 discriminator 1
	bge	a5,s4,.L347
	.loc 1 3365 3 is_stmt 1
	.loc 1 3365 17 is_stmt 0
	addiw	s7,a5,1
.LVL699:
	.loc 1 3365 15
	add	a5,s3,a5
.LVL700:
	lbu	s0,0(a5)
.LVL701:
	.loc 1 3365 21
	addiw	s0,s0,-48
	.loc 1 3365 11
	subw	s0,s0,a0
.LVL702:
	.loc 1 3365 6
	bne	s0,zero,.L318
	.loc 1 3367 3 is_stmt 1
	.loc 1 3367 12 is_stmt 0
	lw	a5,24(s1)
.LVL703:
	.loc 1 3367 6
	bne	a5,zero,.L319
	.loc 1 3367 20 discriminator 1
	lw	a5,20(s1)
	.loc 1 3367 16 discriminator 1
	li	a4,1
	bne	a5,a4,.L319
	.loc 1 3368 4 is_stmt 1
	.loc 1 3368 7 is_stmt 0
	bgt	s6,s7,.L320
	.loc 1 3365 11
	mv	a5,s0
.L320:
.LVL704:
	.loc 1 3370 4 is_stmt 1
	mv	s0,a5
.LVL705:
.L318:
	.loc 1 3389 2
	mv	a0,s1
.LVL706:
	call	Bfree
.LVL707:
	.loc 1 3390 2
	mv	a0,s2
	call	Bfree
.LVL708:
	.loc 1 3419 2
	.loc 1 3419 5 is_stmt 0
	ld	a5,8(sp)
	beq	a5,zero,.L326
	.loc 1 3420 3 is_stmt 1
	.loc 1 3420 6 is_stmt 0
	ble	s0,zero,.L348
.L307:
	.loc 1 3457 2
	ld	ra,136(sp)
	.cfi_remember_state
	.cfi_restore 1
	ld	s0,128(sp)
	.cfi_restore 8
.LVL709:
	ld	s1,120(sp)
	.cfi_restore 9
.LVL710:
	ld	s2,112(sp)
	.cfi_restore 18
.LVL711:
	ld	s3,104(sp)
	.cfi_restore 19
.LVL712:
	ld	s4,96(sp)
	.cfi_restore 20
	ld	s5,88(sp)
	.cfi_restore 21
.LVL713:
	ld	s6,80(sp)
	.cfi_restore 22
.LVL714:
	ld	s7,72(sp)
	.cfi_restore 23
	ld	s8,64(sp)
	.cfi_restore 24
.LVL715:
	ld	s9,56(sp)
	.cfi_restore 25
.LVL716:
	ld	s10,48(sp)
	.cfi_restore 26
.LVL717:
	ld	s11,40(sp)
	.cfi_restore 27
	addi	sp,sp,144
	.cfi_def_cfa_offset 0
.LVL718:
	jr	ra
.LVL719:
.L347:
	.cfi_restore_state
	.loc 1 3375 2 is_stmt 1
	.loc 1 3375 8 is_stmt 0
	lw	a4,4(s5)
.LVL720:
	.loc 1 3375 2
	j	.L322
.LVL721:
.L323:
	.loc 1 3383 3 is_stmt 1
	.loc 1 3383 7 is_stmt 0
	li	a2,0
	li	a1,10
	mv	a0,s1
.LVL722:
	call	multadd
.LVL723:
	mv	s1,a0
.LVL724:
	.loc 1 3384 3 is_stmt 1
	.loc 1 3384 9 is_stmt 0
	mv	a1,s2
	call	quorem
.LVL725:
	.loc 1 3376 17
	mv	a4,s7
	.loc 1 3375 20
	mv	a5,s4
.L322:
.LVL726:
	.loc 1 3375 19 is_stmt 1 discriminator 1
	.loc 1 3375 20 is_stmt 0 discriminator 1
	addiw	s4,a5,1
.LVL727:
	.loc 1 3375 2 discriminator 1
	bge	a5,s6,.L349
	.loc 1 3376 3 is_stmt 1
	.loc 1 3376 17 is_stmt 0
	addiw	s7,a4,1
.LVL728:
	.loc 1 3376 15
	add	a4,s3,a4
.LVL729:
	lbu	s0,0(a4)
.LVL730:
	.loc 1 3376 21
	addiw	s0,s0,-48
	.loc 1 3376 11
	subw	s0,s0,a0
.LVL731:
	.loc 1 3376 6
	bne	s0,zero,.L318
	.loc 1 3378 3 is_stmt 1
	.loc 1 3378 12 is_stmt 0
	lw	a5,24(s1)
.LVL732:
	.loc 1 3378 6
	bne	a5,zero,.L323
	.loc 1 3378 20 discriminator 1
	lw	a5,20(s1)
	.loc 1 3378 16 discriminator 1
	li	a4,1
.LVL733:
	bne	a5,a4,.L323
	.loc 1 3379 4 is_stmt 1
	.loc 1 3379 7 is_stmt 0
	bgt	s6,s4,.L324
	.loc 1 3376 11
	mv	a5,s0
.L324:
.LVL734:
	.loc 1 3381 4 is_stmt 1
	mv	s0,a5
	j	.L318
.LVL735:
.L349:
	.loc 1 3386 2
	.loc 1 3386 5 is_stmt 0
	ble	a0,zero,.L350
	.loc 1 3387 6
	li	s0,-1
.LVL736:
	j	.L318
.LVL737:
.L350:
	.loc 1 3386 21 discriminator 1
	lw	a5,24(s1)
.LVL738:
	.loc 1 3386 14 discriminator 1
	bne	a5,zero,.L337
	.loc 1 3386 29 discriminator 2
	lw	a4,20(s1)
.LVL739:
	.loc 1 3386 25 discriminator 2
	li	a5,1
	ble	a4,a5,.L318
	.loc 1 3387 6
	li	s0,-1
.LVL740:
	j	.L318
.LVL741:
.L337:
	li	s0,-1
.LVL742:
	j	.L318
.LVL743:
.L348:
	.loc 1 3421 4 is_stmt 1
	.loc 1 3421 10 is_stmt 0
	sd	zero,0(s8)
	j	.L307
.L326:
	.loc 1 3423 7 is_stmt 1
	.loc 1 3423 10 is_stmt 0
	blt	s0,zero,.L351
	.loc 1 3428 7 is_stmt 1
	.loc 1 3428 10 is_stmt 0
	ble	s0,zero,.L330
	.loc 1 3429 3 is_stmt 1
	.loc 1 3429 6 is_stmt 0
	beq	s10,zero,.L307
.L331:
	.loc 1 3431 4 is_stmt 1
	.loc 1 3431 16 is_stmt 0
	mv	a1,s5
	mv	a0,s8
	call	sulp
.LVL744:
	.loc 1 3431 13
	fld	fa5,0(s8)
	fadd.d	fa5,fa5,fa0
	fsd	fa5,0(s8)
	j	.L307
.L351:
	.loc 1 3424 3 is_stmt 1
	.loc 1 3424 6 is_stmt 0
	bne	s10,zero,.L307
.L329:
	.loc 1 3426 4 is_stmt 1
	.loc 1 3426 16 is_stmt 0
	mv	a1,s5
	mv	a0,s8
	call	sulp
.LVL745:
	.loc 1 3426 13
	fld	fa5,0(s8)
	fsub.d	fa5,fa5,fa0
	fsd	fa5,0(s8)
	j	.L307
.L330:
	.loc 1 3436 3 is_stmt 1
	.loc 1 3436 14 is_stmt 0
	lw	a4,4(s8)
	.loc 1 3436 36
	srliw	a5,a4,20
	andi	a5,a5,2047
	.loc 1 3436 54
	lw	a3,36(s5)
	.loc 1 3436 50
	subw	a5,a5,a3
	.loc 1 3436 10
	sext.w	a3,a5
.LVL746:
	.loc 1 3436 6
	ble	a3,zero,.L352
	.loc 1 3445 8 is_stmt 1
	.loc 1 3445 12 is_stmt 0
	lw	a5,0(s8)
.LVL747:
	.loc 1 3445 22
	andi	a5,a5,1
	.loc 1 3445 11
	beq	a5,zero,.L307
.LVL748:
.L334:
	.loc 1 3447 4 is_stmt 1
	.loc 1 3447 7 is_stmt 0
	bne	s10,zero,.L331
	j	.L329
.LVL749:
.L352:
	.loc 1 3437 4 is_stmt 1
	.loc 1 3437 6 is_stmt 0
	li	a3,1
	subw	a3,a3,a5
.LVL750:
	.loc 1 3438 4 is_stmt 1
	.loc 1 3438 7 is_stmt 0
	li	a2,31
	bgt	a3,a2,.L333
	.loc 1 3439 5 is_stmt 1
	.loc 1 3439 9 is_stmt 0
	lw	a5,0(s8)
.LVL751:
	.loc 1 3439 26
	li	a4,1
	sllw	a3,a4,a3
	.loc 1 3439 19
	and	a5,a5,a3
	sext.w	a5,a5
	.loc 1 3439 8
	beq	a5,zero,.L307
	j	.L334
.LVL752:
.L333:
	.loc 1 3442 9 is_stmt 1
	.loc 1 3442 35 is_stmt 0
	li	a3,-31
	subw	a3,a3,a5
	.loc 1 3442 30
	li	a5,1
.LVL753:
	sllw	a5,a5,a3
	.loc 1 3442 23
	and	a5,a4,a5
	sext.w	a5,a5
	.loc 1 3442 12
	beq	a5,zero,.L307
	j	.L334
	.cfi_endproc
.LFE25:
	.size	bigcomp, .-bigcomp
	.section	.rodata.str1.8,"aMS",@progbits,1
	.align	3
.LC3:
	.string	"nf"
	.align	3
.LC4:
	.string	"inity"
	.align	3
.LC5:
	.string	"an"
	.text
	.align	1
	.globl	strtod
	.type	strtod, @function
strtod:
.LFB26:
	.loc 1 3462 1 is_stmt 1
	.cfi_startproc
.LVL754:
	addi	sp,sp,-256
	.cfi_def_cfa_offset 256
	sd	ra,248(sp)
	sd	s0,240(sp)
	sd	s1,232(sp)
	sd	s2,224(sp)
	sd	s3,216(sp)
	sd	s4,208(sp)
	sd	s5,200(sp)
	sd	s6,192(sp)
	sd	s7,184(sp)
	sd	s8,176(sp)
	sd	s9,168(sp)
	sd	s10,160(sp)
	sd	s11,152(sp)
	fsd	fs0,136(sp)
	.cfi_offset 1, -8
	.cfi_offset 8, -16
	.cfi_offset 9, -24
	.cfi_offset 18, -32
	.cfi_offset 19, -40
	.cfi_offset 20, -48
	.cfi_offset 21, -56
	.cfi_offset 22, -64
	.cfi_offset 23, -72
	.cfi_offset 24, -80
	.cfi_offset 25, -88
	.cfi_offset 26, -96
	.cfi_offset 27, -104
	.cfi_offset 40, -120
	mv	s9,a0
	mv	s2,a1
	.loc 1 3463 2
	.loc 1 3464 2
	.loc 1 3465 2
	.loc 1 3466 2
	.loc 1 3467 2
	.loc 1 3468 2
	.loc 1 3469 2
	.loc 1 3470 2
	.loc 1 3471 2
	.loc 1 3473 2
	.loc 1 3474 2
	.loc 1 3475 2
	.loc 1 3478 2
	.loc 1 3484 2
.LVL755:
	.loc 1 3505 2
	.loc 1 3505 47 is_stmt 0
	sw	zero,96(sp)
	.loc 1 3505 35
	sw	zero,64(sp)
.LVL756:
	.loc 1 3506 2 is_stmt 1
	.loc 1 3506 12 is_stmt 0
	sd	zero,104(sp)
	.loc 1 3507 2 is_stmt 1
	.loc 1 3507 8 is_stmt 0
	sd	a0,112(sp)
.L361:
	.loc 1 3507 20 is_stmt 1 discriminator 1
	.loc 1 3507 27 is_stmt 0 discriminator 1
	ld	a4,112(sp)
	lbu	a5,0(a4)
	li	a3,45
	bgtu	a5,a3,.L521
	slli	a5,a5,2
	lla	a3,.L356
	add	a5,a5,a3
	lw	a5,0(a5)
	add	a5,a5,a3
	jr	a5
	.section	.rodata
	.align	2
	.align	2
.L356:
	.word	.L360-.L356
	.word	.L521-.L356
	.word	.L521-.L356
	.word	.L521-.L356
	.word	.L521-.L356
	.word	.L521-.L356
	.word	.L521-.L356
	.word	.L521-.L356
	.word	.L521-.L356
	.word	.L358-.L356
	.word	.L358-.L356
	.word	.L358-.L356
	.word	.L358-.L356
	.word	.L358-.L356
	.word	.L521-.L356
	.word	.L521-.L356
	.word	.L521-.L356
	.word	.L521-.L356
	.word	.L521-.L356
	.word	.L521-.L356
	.word	.L521-.L356
	.word	.L521-.L356
	.word	.L521-.L356
	.word	.L521-.L356
	.word	.L521-.L356
	.word	.L521-.L356
	.word	.L521-.L356
	.word	.L521-.L356
	.word	.L521-.L356
	.word	.L521-.L356
	.word	.L521-.L356
	.word	.L521-.L356
	.word	.L358-.L356
	.word	.L521-.L356
	.word	.L521-.L356
	.word	.L521-.L356
	.word	.L521-.L356
	.word	.L521-.L356
	.word	.L521-.L356
	.word	.L521-.L356
	.word	.L521-.L356
	.word	.L521-.L356
	.word	.L521-.L356
	.word	.L357-.L356
	.word	.L521-.L356
	.word	.L522-.L356
	.text
.L357:
	.loc 1 3507 27
	li	s3,0
	j	.L355
.L522:
	.loc 1 3509 9
	li	s3,1
.L355:
.LVL757:
	.loc 1 3512 4 is_stmt 1
	.loc 1 3512 9 is_stmt 0
	addi	a5,a4,1
	.loc 1 3512 7
	sd	a5,112(sp)
	.loc 1 3512 8
	lbu	a5,1(a4)
	.loc 1 3512 7
	bne	a5,zero,.L354
.LVL758:
.L360:
	.loc 1 3699 4 is_stmt 1
	.loc 1 3699 6 is_stmt 0
	sd	s9,112(sp)
	.loc 1 3700 4 is_stmt 1
.LVL759:
	.loc 1 3700 9 is_stmt 0
	li	s3,0
	.loc 1 3702 3 is_stmt 1
.LVL760:
.L365:
	.loc 1 4877 2
	.loc 1 4877 5 is_stmt 0
	beq	s2,zero,.L518
	.loc 1 4878 3 is_stmt 1
	.loc 1 4878 7 is_stmt 0
	ld	a5,112(sp)
	sd	a5,0(s2)
.L518:
	.loc 1 4879 2 is_stmt 1
	.loc 1 4879 27 is_stmt 0
	beq	s3,zero,.L519
	.loc 1 4879 17 discriminator 1
	fld	fa0,104(sp)
	.loc 1 4879 27 discriminator 1
	fneg.d	fa0,fa0
.L353:
	.loc 1 4880 2
	ld	ra,248(sp)
	.cfi_remember_state
	.cfi_restore 1
	ld	s0,240(sp)
	.cfi_restore 8
	ld	s1,232(sp)
	.cfi_restore 9
	ld	s2,224(sp)
	.cfi_restore 18
.LVL761:
	ld	s3,216(sp)
	.cfi_restore 19
.LVL762:
	ld	s4,208(sp)
	.cfi_restore 20
	ld	s5,200(sp)
	.cfi_restore 21
	ld	s6,192(sp)
	.cfi_restore 22
	ld	s7,184(sp)
	.cfi_restore 23
	ld	s8,176(sp)
	.cfi_restore 24
	ld	s9,168(sp)
	.cfi_restore 25
	ld	s10,160(sp)
	.cfi_restore 26
	ld	s11,152(sp)
	.cfi_restore 27
	fld	fs0,136(sp)
	.cfi_restore 40
	addi	sp,sp,256
	.cfi_def_cfa_offset 0
	jr	ra
.LVL763:
.L358:
	.cfi_restore_state
	.loc 1 3523 4 is_stmt 1
	.loc 1 3507 15
	.loc 1 3507 16 is_stmt 0
	addi	a4,a4,1
	sd	a4,112(sp)
	.loc 1 3507 14 is_stmt 1
	.loc 1 3507 20 is_stmt 0
	j	.L361
.L521:
	.loc 1 3507 27
	li	s3,0
.LVL764:
.L354:
	.loc 1 3528 2 is_stmt 1
	.loc 1 3528 6 is_stmt 0
	ld	a5,112(sp)
	lbu	a3,0(a5)
	.loc 1 3528 5
	li	a4,48
	beq	a3,a4,.L581
	.loc 1 3505 13
	li	a7,0
.LVL765:
.L362:
	.loc 1 3546 2 is_stmt 1
	.loc 1 3546 5 is_stmt 0
	ld	s1,112(sp)
.LVL766:
	.loc 1 3547 2 is_stmt 1
	.loc 1 3549 2
	.loc 1 3550 2
	.loc 1 3549 5 is_stmt 0
	li	t1,0
	.loc 1 3547 5
	li	a1,0
.LVL767:
	.loc 1 3550 2
	j	.L366
.LVL768:
.L581:
	.loc 1 3530 3 is_stmt 1
	.loc 1 3530 11 is_stmt 0
	lbu	a5,1(a5)
	.loc 1 3530 3
	li	a4,88
	beq	a5,a4,.L363
	li	a4,120
	beq	a5,a4,.L363
.LVL769:
.L364:
	.loc 1 3542 22 is_stmt 1 discriminator 1
	.loc 1 3542 8 discriminator 1
	.loc 1 3542 10 is_stmt 0 discriminator 1
	ld	a5,112(sp)
	addi	a4,a5,1
	.loc 1 3542 8 discriminator 1
	sd	a4,112(sp)
	.loc 1 3542 9 discriminator 1
	lbu	a5,1(a5)
	.loc 1 3542 8 discriminator 1
	li	a4,48
	beq	a5,a4,.L364
	.loc 1 3543 3 is_stmt 1
	.loc 1 3543 6 is_stmt 0
	beq	a5,zero,.L365
	.loc 1 3541 7
	li	a7,1
	j	.L362
.LVL770:
.L363:
	.loc 1 3536 4 is_stmt 1
	mv	a3,s3
	li	a2,1
	addi	a1,sp,104
.LVL771:
	addi	a0,sp,112
.LVL772:
	call	gethex
.LVL773:
	.loc 1 3538 4
	j	.L365
.LVL774:
.L367:
	.loc 1 3550 37
	.loc 1 3550 39 is_stmt 0
	addiw	a1,a1,1
.LVL775:
	.loc 1 3550 44
	addi	a5,a5,1
	sd	a5,112(sp)
.LVL776:
.L366:
	.loc 1 3550 8 is_stmt 1 discriminator 1
	.loc 1 3550 13 is_stmt 0 discriminator 1
	ld	a5,112(sp)
	lbu	a4,0(a5)
	.loc 1 3550 11 discriminator 1
	sext.w	a6,a4
.LVL777:
	.loc 1 3550 2 discriminator 1
	li	a2,47
	ble	a6,a2,.L368
	.loc 1 3550 24 discriminator 2
	li	a2,57
	bgt	a6,a2,.L368
	.loc 1 3551 3 is_stmt 1
	.loc 1 3551 6 is_stmt 0
	li	a2,18
	bgt	a1,a2,.L367
	.loc 1 3552 4 is_stmt 1
	.loc 1 3552 11 is_stmt 0
	slli	a3,t1,2
	add	a3,a3,t1
	slli	a3,a3,1
	.loc 1 3552 15
	add	a4,a4,a3
	.loc 1 3552 7
	addi	t1,a4,-48
.LVL778:
	j	.L367
.L368:
	.loc 1 3561 2 is_stmt 1
.LVL779:
	.loc 1 3562 2
	.loc 1 3562 18 is_stmt 0
	subw	a3,a5,s1
	sw	a3,60(sp)
	.loc 1 3562 9
	sw	a3,56(sp)
	.loc 1 3563 2 is_stmt 1
.LVL780:
	.loc 1 3563 9 is_stmt 0
	mv	a4,a5
	.loc 1 3505 19
	li	s0,0
	.loc 1 3563 2
	j	.L370
.LVL781:
.L372:
	.loc 1 3564 3 is_stmt 1
	addiw	s0,s0,1
.LVL782:
.L370:
	.loc 1 3563 14 discriminator 1
	.loc 1 3563 2 is_stmt 0 discriminator 1
	bleu	a4,s1,.L371
	.loc 1 3563 22 discriminator 2
	addi	a4,a4,-1
.LVL783:
	.loc 1 3563 25 discriminator 2
	lbu	a0,0(a4)
	.loc 1 3563 22 discriminator 2
	li	a2,48
	beq	a0,a2,.L372
.L371:
	.loc 1 3584 2 is_stmt 1
	.loc 1 3584 5 is_stmt 0
	li	a4,46
.LVL784:
	beq	a6,a4,.L582
	.loc 1 3630 2
	mv	s4,a1
	.loc 1 3505 24
	li	a5,0
	.loc 1 3547 10
	li	a2,0
.LVL785:
.L373:
	.loc 1 3631 2 is_stmt 1
	.loc 1 3632 2
	.loc 1 3632 5 is_stmt 0
	li	a4,101
	beq	a6,a4,.L382
	.loc 1 3632 15 discriminator 1
	li	a4,69
	beq	a6,a4,.L382
	.loc 1 3631 4
	li	a3,0
.LVL786:
.L383:
	.loc 1 3668 2 is_stmt 1
	.loc 1 3668 5 is_stmt 0
	bne	s4,zero,.L393
	.loc 1 3669 3 is_stmt 1
	.loc 1 3669 11 is_stmt 0
	or	a5,a5,a7
.LVL787:
	sext.w	a5,a5
	.loc 1 3669 6
	bne	a5,zero,.L365
	.loc 1 3672 4 is_stmt 1
	.loc 1 3672 11 is_stmt 0
	lw	a5,64(sp)
	.loc 1 3672 7
	bne	a5,zero,.L360
	.loc 1 3673 5 is_stmt 1
	li	a5,105
	beq	a6,a5,.L395
	bgt	a6,a5,.L396
	li	a5,73
	beq	a6,a5,.L395
	li	a5,78
	bne	a6,a5,.L360
.L397:
	.loc 1 3687 5
	.loc 1 3687 9 is_stmt 0
	lla	a1,.LC5
.LVL788:
	addi	a0,sp,112
	call	match
.LVL789:
	.loc 1 3687 8
	beq	a0,zero,.L360
	.loc 1 3688 6 is_stmt 1
	.loc 1 3688 17 is_stmt 0
	li	a5,2146959360
	sw	a5,108(sp)
	.loc 1 3689 6 is_stmt 1
	.loc 1 3689 17 is_stmt 0
	sw	zero,104(sp)
	.loc 1 3691 6 is_stmt 1
	.loc 1 3691 10 is_stmt 0
	ld	a5,112(sp)
	lbu	a4,0(a5)
	.loc 1 3691 9
	li	a5,40
	bne	a4,a5,.L365
	.loc 1 3692 7 is_stmt 1
	addi	a1,sp,112
	addi	a0,sp,104
	call	hexnan
.LVL790:
	.loc 1 3694 6
	j	.L365
.LVL791:
.L582:
	.loc 1 3585 3
	.loc 1 3585 8 is_stmt 0
	addi	a4,a5,1
	.loc 1 3585 5
	sd	a4,112(sp)
	lbu	a6,1(a5)
.LVL792:
	.loc 1 3586 3 is_stmt 1
	.loc 1 3586 10 is_stmt 0
	subw	a5,a4,s1
	sw	a5,60(sp)
	.loc 1 3587 3 is_stmt 1
	.loc 1 3587 21 is_stmt 0
	subw	a3,a5,a3
	.loc 1 3587 12
	sw	a3,64(sp)
	.loc 1 3588 3 is_stmt 1
	.loc 1 3588 6 is_stmt 0
	beq	a1,zero,.L525
	mv	s4,a1
	.loc 1 3505 24
	li	a5,0
	.loc 1 3547 10
	li	a2,0
.LVL793:
.L375:
	.loc 1 3601 9 is_stmt 1 discriminator 1
	.loc 1 3601 18 is_stmt 0 discriminator 1
	addiw	a4,a6,-48
	.loc 1 3601 3 discriminator 1
	li	a3,9
	bgtu	a4,a3,.L373
.LVL794:
.L377:
	.loc 1 3603 4 is_stmt 1
	.loc 1 3603 6 is_stmt 0
	addiw	a4,a5,1
	sext.w	a5,a4
.LVL795:
	.loc 1 3604 4 is_stmt 1
	.loc 1 3604 10 is_stmt 0
	addiw	a6,a6,-48
.LVL796:
	.loc 1 3604 7
	beq	a6,zero,.L378
	.loc 1 3605 5 is_stmt 1
	.loc 1 3605 8 is_stmt 0
	addw	a2,a4,a2
.LVL797:
	.loc 1 3606 5 is_stmt 1
	.loc 1 3608 5
	.loc 1 3606 7 is_stmt 0
	li	a0,1
	.loc 1 3608 5
	j	.L379
.LVL798:
.L525:
	.loc 1 3505 24
	mv	a5,a1
.LVL799:
.L374:
	.loc 1 3589 10 is_stmt 1 discriminator 1
	.loc 1 3589 4 is_stmt 0 discriminator 1
	li	a4,48
	bne	a6,a4,.L583
	.loc 1 3590 5 is_stmt 1 discriminator 2
	.loc 1 3590 7 is_stmt 0 discriminator 2
	addiw	a5,a5,1
.LVL800:
	.loc 1 3589 20 is_stmt 1 discriminator 2
	.loc 1 3589 25 is_stmt 0 discriminator 2
	ld	a4,112(sp)
	addi	a2,a4,1
	.loc 1 3589 22 discriminator 2
	sd	a2,112(sp)
	lbu	a6,1(a4)
.LVL801:
	j	.L374
.LVL802:
.L583:
	.loc 1 3591 4 is_stmt 1
	.loc 1 3591 16 is_stmt 0
	addiw	a4,a6,-49
	.loc 1 3591 7
	li	a2,8
	bgtu	a4,a2,.L526
	.loc 1 3592 5 is_stmt 1
	.loc 1 3592 17 is_stmt 0
	ld	a4,112(sp)
	.loc 1 3592 12
	subw	s1,s1,a4
.LVL803:
	sw	s1,56(sp)
	.loc 1 3593 5 is_stmt 1
	.loc 1 3593 21 is_stmt 0
	addw	a3,a3,s1
	.loc 1 3593 12
	sw	a3,60(sp)
	.loc 1 3594 5 is_stmt 1
.LVL804:
	.loc 1 3595 5
	.loc 1 3596 5
	.loc 1 3597 5
	.loc 1 3594 8 is_stmt 0
	mv	s1,a4
	.loc 1 3595 8
	mv	a2,a5
	.loc 1 3596 8
	mv	a5,a1
.LVL805:
	.loc 1 3597 5
	mv	s4,a1
	j	.L377
.LVL806:
.L380:
	.loc 1 3608 19 is_stmt 1
	addiw	a0,a0,1
.LVL807:
.L379:
	.loc 1 3608 11 discriminator 1
	.loc 1 3608 5 is_stmt 0 discriminator 1
	bge	a0,a5,.L584
	.loc 1 3609 6 is_stmt 1
	.loc 1 3609 9 is_stmt 0
	addiw	s4,s4,1
.LVL808:
	li	a4,19
	bgt	s4,a4,.L380
	.loc 1 3610 7 is_stmt 1
	.loc 1 3610 10 is_stmt 0
	slli	a4,t1,2
	add	a4,a4,t1
	slli	t1,a4,1
.LVL809:
	j	.L380
.LVL810:
.L584:
	.loc 1 3612 5 is_stmt 1
	.loc 1 3612 8 is_stmt 0
	addiw	s4,s4,1
.LVL811:
	li	a5,19
.LVL812:
	bgt	s4,a5,.L527
	.loc 1 3613 6 is_stmt 1
	.loc 1 3613 13 is_stmt 0
	slli	a4,t1,2
	add	a4,a4,t1
	slli	a4,a4,1
	.loc 1 3613 9
	add	t1,a4,a6
.LVL813:
	.loc 1 3626 14
	li	s0,0
.LVL814:
	.loc 1 3626 8
	li	a5,0
.LVL815:
.L378:
	.loc 1 3601 31 is_stmt 1
	.loc 1 3601 36 is_stmt 0
	ld	a4,112(sp)
	addi	a3,a4,1
	.loc 1 3601 33
	sd	a3,112(sp)
	lbu	a6,1(a4)
.LVL816:
	j	.L375
.LVL817:
.L527:
	.loc 1 3626 14
	li	s0,0
.LVL818:
	.loc 1 3626 8
	li	a5,0
	j	.L378
.LVL819:
.L526:
	.loc 1 3547 10
	mv	a2,a1
	mv	s4,a1
	j	.L373
.LVL820:
.L382:
	.loc 1 3633 3 is_stmt 1
	.loc 1 3633 18 is_stmt 0
	or	a4,s4,a5
	or	a4,a7,a4
	sext.w	a4,a4
	.loc 1 3633 6
	beq	a4,zero,.L360
	.loc 1 3636 3 is_stmt 1
	.loc 1 3636 7 is_stmt 0
	ld	s9,112(sp)
.LVL821:
	.loc 1 3637 3 is_stmt 1
	.loc 1 3638 3
	.loc 1 3638 15 is_stmt 0
	addi	a3,s9,1
	.loc 1 3638 3
	sd	a3,112(sp)
	.loc 1 3638 14
	lbu	a4,1(s9)
	.loc 1 3638 12
	sext.w	a6,a4
.LVL822:
	.loc 1 3638 3
	li	a0,43
	beq	a4,a0,.L529
	li	a0,45
	bne	a4,a0,.L530
	.loc 1 3640 11
	li	a0,1
.L384:
.LVL823:
	.loc 1 3642 5 is_stmt 1
	.loc 1 3642 10 is_stmt 0
	addi	a4,a3,1
	.loc 1 3642 7
	sd	a4,112(sp)
	lbu	a6,1(a3)
.LVL824:
.L385:
	.loc 1 3644 3 is_stmt 1
	.loc 1 3644 16 is_stmt 0
	addiw	a4,a6,-48
	.loc 1 3644 6
	li	a3,9
	bleu	a4,a3,.L386
	.loc 1 3666 4 is_stmt 1
	.loc 1 3666 6 is_stmt 0
	sd	s9,112(sp)
	.loc 1 3631 4
	li	a3,0
	j	.L383
.LVL825:
.L529:
	.loc 1 3638 3
	li	a0,0
	j	.L384
.L530:
	li	a0,0
	j	.L385
.LVL826:
.L388:
	.loc 1 3646 5 is_stmt 1
	.loc 1 3646 10 is_stmt 0
	ld	a4,112(sp)
	addi	a3,a4,1
	.loc 1 3646 7
	sd	a3,112(sp)
	lbu	a6,1(a4)
.LVL827:
.L386:
	.loc 1 3645 9 is_stmt 1
	li	a4,48
	beq	a6,a4,.L388
	.loc 1 3647 4
	.loc 1 3647 16 is_stmt 0
	addiw	a4,a6,-49
	.loc 1 3647 7
	li	a3,8
	bgtu	a4,a3,.L531
	.loc 1 3648 5 is_stmt 1
	.loc 1 3648 7 is_stmt 0
	addiw	a3,a6,-48
.LVL828:
	.loc 1 3649 5 is_stmt 1
	.loc 1 3649 8 is_stmt 0
	ld	t4,112(sp)
.LVL829:
	.loc 1 3650 5 is_stmt 1
	.loc 1 3650 10 is_stmt 0
	j	.L389
.LVL830:
.L391:
	.loc 1 3651 6 is_stmt 1
	.loc 1 3651 12 is_stmt 0
	slliw	a4,a3,2
	addw	a4,a4,a3
	slliw	a4,a4,1
	.loc 1 3651 15
	addw	a6,a4,a6
.LVL831:
	.loc 1 3651 8
	addiw	a3,a6,-48
.LVL832:
.L389:
	.loc 1 3650 10 is_stmt 1
	.loc 1 3650 17 is_stmt 0
	ld	a4,112(sp)
	addi	t3,a4,1
	.loc 1 3650 10
	sd	t3,112(sp)
	.loc 1 3650 14
	lbu	a6,1(a4)
.LVL833:
	.loc 1 3650 10
	li	a4,47
	ble	a6,a4,.L390
	.loc 1 3650 29 discriminator 1
	li	a4,57
	ble	a6,a4,.L391
.L390:
	.loc 1 3652 5 is_stmt 1
	.loc 1 3652 11 is_stmt 0
	sub	t3,t3,t4
	.loc 1 3652 8
	li	a4,8
	bgt	t3,a4,.L532
	.loc 1 3652 20 discriminator 1
	li	a4,20480
	addi	a4,a4,-481
	ble	a3,a4,.L392
	.loc 1 3656 8
	li	a4,20480
	addi	a3,a4,-481
.LVL834:
	j	.L392
.LVL835:
.L532:
	li	a4,20480
	addi	a3,a4,-481
.LVL836:
.L392:
	.loc 1 3659 5 is_stmt 1
	.loc 1 3659 8 is_stmt 0
	beq	a0,zero,.L383
	.loc 1 3660 6 is_stmt 1
	.loc 1 3660 8 is_stmt 0
	negw	a3,a3
.LVL837:
	j	.L383
.LVL838:
.L531:
	.loc 1 3663 7
	li	a3,0
	j	.L383
.LVL839:
.L396:
	.loc 1 3673 5
	li	a5,110
	beq	a6,a5,.L397
	j	.L360
.L395:
	.loc 1 3676 5 is_stmt 1
	.loc 1 3676 9 is_stmt 0
	lla	a1,.LC3
.LVL840:
	addi	a0,sp,112
	call	match
.LVL841:
	.loc 1 3676 8
	beq	a0,zero,.L360
	.loc 1 3677 6 is_stmt 1
	ld	a5,112(sp)
	addi	a5,a5,-1
	sd	a5,112(sp)
	.loc 1 3678 6
	.loc 1 3678 11 is_stmt 0
	lla	a1,.LC4
	addi	a0,sp,112
	call	match
.LVL842:
	.loc 1 3678 9
	bne	a0,zero,.L398
	.loc 1 3679 7 is_stmt 1
	ld	a5,112(sp)
	addi	a5,a5,1
	sd	a5,112(sp)
.L398:
	.loc 1 3680 6
	.loc 1 3680 17 is_stmt 0
	li	a5,2146435072
	sw	a5,108(sp)
	.loc 1 3681 6 is_stmt 1
	.loc 1 3681 17 is_stmt 0
	sw	zero,104(sp)
	.loc 1 3682 6 is_stmt 1
	j	.L365
.LVL843:
.L393:
	.loc 1 3704 2
	.loc 1 3704 17 is_stmt 0
	subw	a0,a3,a2
	sext.w	s7,a0
.LVL844:
	.loc 1 3704 8
	sw	a0,72(sp)
	.loc 1 3711 2 is_stmt 1
	.loc 1 3711 5 is_stmt 0
	bne	a1,zero,.L400
	.loc 1 3712 7
	mv	a1,s4
.LVL845:
.L400:
	.loc 1 3724 2 is_stmt 1
	.loc 1 3725 2
	.loc 1 3725 5 is_stmt 0
	li	a5,15
.LVL846:
	bgt	s4,a5,.L401
	.loc 1 3733 3 is_stmt 1
	.loc 1 3733 13 is_stmt 0
	fcvt.d.lu	fa5,t1
	fsd	fa5,104(sp)
	.loc 1 3735 3 is_stmt 1
	.loc 1 3735 6 is_stmt 0
	beq	s7,zero,.L365
	.loc 1 3738 3 is_stmt 1
	.loc 1 3738 6 is_stmt 0
	ble	s7,zero,.L402
	.loc 1 3739 4 is_stmt 1
	.loc 1 3739 7 is_stmt 0
	li	a5,22
	ble	s7,a5,.L585
	.loc 1 3758 4 is_stmt 1
	.loc 1 3758 6 is_stmt 0
	li	a5,15
	subw	a5,a5,s4
	sext.w	a3,a5
.LVL847:
	.loc 1 3759 4 is_stmt 1
	.loc 1 3759 22 is_stmt 0
	li	a4,37
	subw	a4,a4,s4
	.loc 1 3759 7
	blt	a4,s7,.L401
	.loc 1 3774 5 is_stmt 1
	.loc 1 3774 7 is_stmt 0
	subw	a5,a0,a5
.LVL848:
	.loc 1 3775 5 is_stmt 1
	.loc 1 3775 22 is_stmt 0
	lla	a2,.LANCHOR0
.LVL849:
	slli	a4,a3,3
	add	a4,a2,a4
	fld	fa4,272(a4)
	.loc 1 3775 15
	fmul.d	fa5,fa5,fa4
	.loc 1 3788 16 is_stmt 1
	slli	a5,a5,3
	add	a5,a2,a5
	fld	fa4,272(a5)
	fmul.d	fa5,fa5,fa4
	fsd	fa5,104(sp)
	.loc 1 3790 5
	j	.L365
.LVL850:
.L585:
	.loc 1 3754 16
	slli	a4,s7,3
	lla	a5,.LANCHOR0
	add	a5,a5,a4
	fld	fa4,272(a5)
	fmul.d	fa5,fa5,fa4
	fsd	fa5,104(sp)
	.loc 1 3755 5
	j	.L365
.L402:
	.loc 1 3794 8
	.loc 1 3794 11 is_stmt 0
	li	a5,-22
	bge	s7,a5,.L586
.L401:
	.loc 1 3813 2 is_stmt 1
	.loc 1 3813 4 is_stmt 0
	mv	a5,s4
	li	a4,19
	ble	s4,a4,.L404
.LVL851:
	li	a5,19
.LVL852:
.L404:
	.loc 1 3815 2 is_stmt 1
	.loc 1 3815 11 is_stmt 0
	subw	a5,s4,a5
.LVL853:
	.loc 1 3815 5
	addw	a5,a5,a0
	sext.w	a7,a5
.LVL854:
	.loc 1 3837 24 is_stmt 1
	.loc 1 3838 2
	.loc 1 3838 4 is_stmt 0
	addiw	a2,a5,342
.LVL855:
	.loc 1 3839 2 is_stmt 1
	.loc 1 3839 5 is_stmt 0
	blt	a2,zero,.L534
	.loc 1 3841 2 is_stmt 1
	.loc 1 3841 5 is_stmt 0
	li	a4,650
	bgt	a2,a4,.L535
	.loc 1 3843 2 is_stmt 1
.LVL856:
	.loc 1 3844 2
	.loc 1 3846 2
	.loc 1 3847 2
	.loc 1 3847 12 is_stmt 0
	li	a4,-1
	slli	a4,a4,32
	and	a4,t1,a4
	.loc 1 3847 5
	bne	a4,zero,.L536
	.loc 1 3848 3 is_stmt 1
.LVL857:
	.loc 1 3849 3
	.loc 1 3849 7 is_stmt 0
	slli	a4,t1,32
.LVL858:
	.loc 1 3848 5
	li	a6,32
.LVL859:
.L407:
	.loc 1 3851 2 is_stmt 1
	.loc 1 3851 12 is_stmt 0
	li	a3,-1
	slli	a3,a3,48
	and	a3,a4,a3
	.loc 1 3851 5
	bne	a3,zero,.L408
	.loc 1 3852 3 is_stmt 1
	.loc 1 3852 5 is_stmt 0
	addiw	a6,a6,16
.LVL860:
	.loc 1 3853 3 is_stmt 1
	.loc 1 3853 7 is_stmt 0
	slli	a4,a4,16
.LVL861:
.L408:
	.loc 1 3855 2 is_stmt 1
	.loc 1 3855 12 is_stmt 0
	li	a3,-1
	slli	a3,a3,56
	and	a3,a4,a3
	.loc 1 3855 5
	bne	a3,zero,.L409
	.loc 1 3856 3 is_stmt 1
	.loc 1 3856 5 is_stmt 0
	addiw	a6,a6,8
.LVL862:
	.loc 1 3857 3 is_stmt 1
	.loc 1 3857 7 is_stmt 0
	slli	a4,a4,8
.LVL863:
.L409:
	.loc 1 3859 2 is_stmt 1
	.loc 1 3859 12 is_stmt 0
	li	a3,-1
	slli	a3,a3,60
	and	a3,a4,a3
	.loc 1 3859 5
	bne	a3,zero,.L410
	.loc 1 3860 3 is_stmt 1
	.loc 1 3860 5 is_stmt 0
	addiw	a6,a6,4
.LVL864:
	.loc 1 3861 3 is_stmt 1
	.loc 1 3861 7 is_stmt 0
	slli	a4,a4,4
.LVL865:
.L410:
	.loc 1 3863 2 is_stmt 1
	.loc 1 3863 12 is_stmt 0
	li	a3,-1
	slli	a3,a3,62
	and	a3,a4,a3
	.loc 1 3863 5
	bne	a3,zero,.L411
	.loc 1 3864 3 is_stmt 1
	.loc 1 3864 5 is_stmt 0
	addiw	a6,a6,2
.LVL866:
	.loc 1 3865 3 is_stmt 1
	.loc 1 3865 7 is_stmt 0
	slli	a4,a4,2
.LVL867:
.L411:
	.loc 1 3867 2 is_stmt 1
	.loc 1 3867 5 is_stmt 0
	blt	a4,zero,.L412
	.loc 1 3868 3 is_stmt 1
	.loc 1 3868 5 is_stmt 0
	addiw	a6,a6,1
.LVL868:
	.loc 1 3869 3 is_stmt 1
	.loc 1 3869 7 is_stmt 0
	slli	a4,a4,1
.LVL869:
.L412:
	.loc 1 3871 2 is_stmt 1
	.loc 1 3871 26 is_stmt 0
	slli	t3,a2,4
	lla	a3,pten
	add	a3,a3,t3
	lw	t4,12(a3)
	.loc 1 3871 21
	addiw	t4,t4,1086
	.loc 1 3871 6
	subw	t4,t4,a6
	sext.w	t6,t4
.LVL870:
	.loc 1 3872 2 is_stmt 1
	.loc 1 3872 5 is_stmt 0
	ble	t6,zero,.L587
.L413:
	.loc 1 3874 2 is_stmt 1
	.loc 1 3874 6 is_stmt 0
	srli	t0,a4,32
.LVL871:
	.loc 1 3875 2 is_stmt 1
	.loc 1 3875 6 is_stmt 0
	li	s9,-1
.LVL872:
	srli	s9,s9,32
	and	a4,a4,s9
.LVL873:
	.loc 1 3881 2 is_stmt 1
	.loc 1 3881 17 is_stmt 0
	slli	t3,a2,4
	lla	a3,pten
	add	a3,a3,t3
	lwu	t5,4(a3)
	.loc 1 3881 6
	mul	t2,t5,t0
.LVL874:
	.loc 1 3882 2 is_stmt 1
	.loc 1 3882 17 is_stmt 0
	lwu	a3,0(a3)
	.loc 1 3882 12
	mul	t3,a3,a4
	.loc 1 3882 29
	and	s9,t2,s9
	.loc 1 3882 6
	add	t3,t3,s9
.LVL875:
	.loc 1 3883 2 is_stmt 1
	.loc 1 3883 12 is_stmt 0
	mul	a3,a3,t0
	.loc 1 3883 29
	srli	t2,t2,32
.LVL876:
	.loc 1 3883 22
	add	a3,a3,t2
	.loc 1 3883 43
	srli	t2,t3,32
	.loc 1 3883 6
	add	a3,a3,t2
.LVL877:
	.loc 1 3884 2 is_stmt 1
	.loc 1 3884 5 is_stmt 0
	blt	a3,zero,.L588
	.loc 1 3902 3 is_stmt 1
	.loc 1 3902 12 is_stmt 0
	andi	t2,a3,511
	.loc 1 3902 6
	beq	t2,zero,.L416
	.loc 1 3902 25 discriminator 1
	not	t2,a3
	.loc 1 3902 30 discriminator 1
	andi	t2,t2,510
	.loc 1 3902 21 discriminator 1
	beq	t2,zero,.L416
	.loc 1 3903 4 is_stmt 1
	.loc 1 3903 7 is_stmt 0
	li	a4,19
.LVL878:
	ble	s4,a4,.L421
	.loc 1 3903 29 discriminator 1
	li	a4,1
	sllw	a4,a4,a6
	.loc 1 3903 25 discriminator 1
	add	a4,a4,a3
	.loc 1 3903 34 discriminator 1
	addi	a4,a4,2
	.loc 1 3903 48 discriminator 1
	xor	a4,a4,a3
	andi	a4,a4,512
	.loc 1 3903 16 discriminator 1
	bne	a4,zero,.L414
.L421:
	.loc 1 3905 4 is_stmt 1
	.loc 1 3905 7 is_stmt 0
	li	a5,1
.LVL879:
	ble	t6,a5,.L422
	.loc 1 3913 4 is_stmt 1
	.loc 1 3913 12 is_stmt 0
	andi	a5,a3,512
	.loc 1 3913 7
	bne	a5,zero,.L423
.LVL880:
.L424:
	.loc 1 4110 4 is_stmt 1
	.loc 1 4110 7 is_stmt 0
	li	a5,2047
	bgt	t6,a5,.L548
	.loc 1 4112 4 is_stmt 1
	.loc 1 4112 15 is_stmt 0
	addiw	a5,t4,-1
.LVL881:
	.loc 1 4113 4 is_stmt 1
	.loc 1 4113 23 is_stmt 0
	slli	a4,a5,52
	.loc 1 4113 63
	srli	a5,a3,10
.LVL882:
	li	a3,-1
.LVL883:
	srli	a3,a3,12
	and	a5,a5,a3
	.loc 1 4113 30
	or	a5,a4,a5
	.loc 1 4113 15
	sd	a5,104(sp)
	.loc 1 4114 4 is_stmt 1
	j	.L365
.LVL884:
.L586:
	.loc 1 3806 15
	subw	a5,a2,a3
	slli	a5,a5,3
	lla	a4,.LANCHOR0
	add	a5,a4,a5
	fld	fa4,272(a5)
	fdiv.d	fa5,fa5,fa4
	fsd	fa5,104(sp)
	.loc 1 3807 4
	j	.L365
.LVL885:
.L536:
	.loc 1 3844 6 is_stmt 0
	mv	a4,t1
	.loc 1 3846 4
	li	a6,0
.LVL886:
	j	.L407
.LVL887:
.L587:
	.loc 1 3872 15 discriminator 1
	li	a3,19
	ble	s4,a3,.L413
.LVL888:
.L414:
	.loc 1 4118 24 is_stmt 1
	.loc 1 4119 2
	.loc 1 4119 5 is_stmt 0
	li	a4,17
	ble	s4,a4,.L440
	.loc 1 4120 3 is_stmt 1
	.loc 1 4120 6 is_stmt 0
	li	a4,18
	ble	s4,a4,.L441
	.loc 1 4121 4 is_stmt 1
	.loc 1 4121 7 is_stmt 0
	li	a4,100
	divu	t1,t1,a4
.LVL889:
	.loc 1 4122 4 is_stmt 1
	.loc 1 4122 7 is_stmt 0
	addiw	a7,a5,2
.LVL890:
.L442:
	.loc 1 4128 3 is_stmt 1
	.loc 1 4128 10 is_stmt 0
	li	a5,99999744
	addi	a5,a5,256
	divu	a5,t1,a5
	.loc 1 4128 5
	sext.w	a3,a5
.LVL891:
.L443:
	.loc 1 4136 2 is_stmt 1
	.loc 1 4136 12 is_stmt 0
	fcvt.d.lu	fa4,t1
	fsd	fa4,104(sp)
	.loc 1 4141 2 is_stmt 1
	.loc 1 4141 11 is_stmt 0
	sw	zero,92(sp)
	.loc 1 4147 2 is_stmt 1
	.loc 1 4147 5 is_stmt 0
	ble	a7,zero,.L445
	.loc 1 4148 3 is_stmt 1
	.loc 1 4148 10 is_stmt 0
	andi	a5,a7,15
.LVL892:
	.loc 1 4148 6
	beq	a5,zero,.L446
	.loc 1 4149 4 is_stmt 1
	.loc 1 4149 21 is_stmt 0
	slli	a5,a5,3
.LVL893:
	lla	a2,.LANCHOR0
	add	a5,a2,a5
	fld	fa5,272(a5)
	.loc 1 4149 14
	fmul.d	fa5,fa4,fa5
	fsd	fa5,104(sp)
.L446:
	.loc 1 4150 3 is_stmt 1
	.loc 1 4150 10 is_stmt 0
	andi	a5,a7,-16
.LVL894:
	.loc 1 4150 6
	beq	a5,zero,.L447
	.loc 1 4151 4 is_stmt 1
	.loc 1 4151 7 is_stmt 0
	li	a4,308
	bgt	a5,a4,.L589
	.loc 1 4190 4 is_stmt 1
	.loc 1 4190 7 is_stmt 0
	sraiw	a5,a5,4
.LVL895:
	.loc 1 4191 4 is_stmt 1
	.loc 1 4191 10 is_stmt 0
	li	a4,0
	.loc 1 4191 4
	j	.L451
.LVL896:
.L588:
	.loc 1 3885 3 is_stmt 1
	.loc 1 3885 12 is_stmt 0
	andi	t2,a3,1023
	.loc 1 3885 6
	beq	t2,zero,.L416
	.loc 1 3885 25 discriminator 1
	not	t2,a3
	.loc 1 3885 30 discriminator 1
	andi	t2,t2,1022
	.loc 1 3885 21 discriminator 1
	beq	t2,zero,.L416
	.loc 1 3886 4 is_stmt 1
	.loc 1 3886 7 is_stmt 0
	li	a4,19
.LVL897:
	ble	s4,a4,.L417
	.loc 1 3886 29 discriminator 1
	li	a4,1
	sllw	a4,a4,a6
	.loc 1 3886 25 discriminator 1
	add	a4,a4,a3
	.loc 1 3886 34 discriminator 1
	addi	a4,a4,2
	.loc 1 3886 48 discriminator 1
	xor	a4,a4,a3
	andi	a4,a4,1024
	.loc 1 3886 16 discriminator 1
	bne	a4,zero,.L414
.L417:
	.loc 1 3888 4 is_stmt 1
	.loc 1 3888 7 is_stmt 0
	ble	t6,zero,.L418
	.loc 1 3896 4 is_stmt 1
	.loc 1 3896 12 is_stmt 0
	andi	a5,a3,1024
.LVL898:
	.loc 1 3896 7
	beq	a5,zero,.L419
	.loc 1 3896 27 discriminator 1
	li	a5,4096
	addi	a5,a5,-1025
	and	a5,a3,a5
	.loc 1 3896 20 discriminator 1
	beq	a5,zero,.L419
.LVL899:
.L420:
	.loc 1 4004 5 is_stmt 1
	.loc 1 4004 9 is_stmt 0
	li	a5,4096
	addi	a5,a5,-2048
	add	a3,a3,a5
.LVL900:
	.loc 1 4005 5 is_stmt 1
	.loc 1 4005 8 is_stmt 0
	blt	a3,zero,.L419
	.loc 1 4007 6 is_stmt 1
	.loc 1 4007 9 is_stmt 0
	li	a5,2045
	bgt	t6,a5,.L542
	.loc 1 4009 6 is_stmt 1
	.loc 1 4009 17 is_stmt 0
	addiw	a5,t4,1
.LVL901:
	.loc 1 4010 6 is_stmt 1
	.loc 1 4010 24 is_stmt 0
	slli	a5,a5,52
.LVL902:
	.loc 1 4010 17
	sd	a5,104(sp)
	.loc 1 4011 6 is_stmt 1
	j	.L365
.LVL903:
.L416:
	.loc 1 3919 24
	.loc 1 3920 2
	.loc 1 3920 17 is_stmt 0
	slli	a2,a2,4
	lla	t2,pten
	add	a2,t2,a2
	lwu	a2,8(a2)
	.loc 1 3920 6
	mul	a2,a2,t0
.LVL904:
	.loc 1 3921 2 is_stmt 1
	.loc 1 3921 12 is_stmt 0
	mul	a4,t5,a4
.LVL905:
	.loc 1 3921 29
	slli	t5,a2,32
.LVL906:
	srli	t5,t5,32
	.loc 1 3921 6
	add	t5,a4,t5
.LVL907:
	.loc 1 3922 2 is_stmt 1
	.loc 1 3923 2
	.loc 1 3923 13 is_stmt 0
	sext.w	a4,a5
	.loc 1 3923 5
	li	t0,41
.LVL908:
	bgtu	a4,t0,.L537
	.loc 1 3923 32 discriminator 1
	or	a4,t3,t5
	.loc 1 3923 39 discriminator 1
	slli	a4,a4,32
	srli	a4,a4,32
	.loc 1 3923 24 discriminator 1
	bne	a4,zero,.L538
	.loc 1 3923 55 discriminator 2
	li	a4,19
	bgt	s4,a4,.L539
	.loc 1 3922 9
	li	t0,1
	j	.L425
.L537:
	.loc 1 3924 10
	li	t0,0
.L425:
.LVL909:
	.loc 1 3925 2 is_stmt 1
	.loc 1 3925 13 is_stmt 0
	slli	a4,t3,32
	srli	a4,a4,32
	.loc 1 3925 37
	srli	a2,a2,32
.LVL910:
	.loc 1 3925 30
	add	a4,a4,a2
	.loc 1 3925 51
	srli	a2,t5,32
	.loc 1 3925 6
	add	a4,a4,a2
.LVL911:
	.loc 1 3926 2 is_stmt 1
	.loc 1 3926 5 is_stmt 0
	bne	t0,zero,.L426
	.loc 1 3926 22 discriminator 1
	addi	a2,a4,16
	.loc 1 3926 30 discriminator 1
	srli	a2,a2,32
	.loc 1 3926 42 discriminator 1
	srli	t3,a4,32
.LVL912:
	.loc 1 3926 14 discriminator 1
	bgtu	a2,t3,.L414
.L426:
	.loc 1 3928 2 is_stmt 1
	.loc 1 3928 13 is_stmt 0
	srli	a2,a4,32
	.loc 1 3928 6
	add	a3,a3,a2
.LVL913:
	.loc 1 3929 2 is_stmt 1
	.loc 1 3929 5 is_stmt 0
	blt	a3,zero,.L590
	.loc 1 4023 3 is_stmt 1
	.loc 1 4023 6 is_stmt 0
	li	a2,1
	ble	t6,a2,.L591
	.loc 1 4068 3 is_stmt 1
	.loc 1 4068 6 is_stmt 0
	beq	t0,zero,.L438
	.loc 1 4083 4 is_stmt 1
	.loc 1 4083 12 is_stmt 0
	andi	a5,a3,512
.LVL914:
	.loc 1 4083 7
	beq	a5,zero,.L424
	.loc 1 4083 28 discriminator 1
	andi	a5,a3,1535
	.loc 1 4083 36 discriminator 1
	or	a4,a5,a4
.LVL915:
	.loc 1 4083 20 discriminator 1
	beq	a4,zero,.L424
.LVL916:
.L423:
	.loc 1 4099 5 is_stmt 1
	.loc 1 4099 9 is_stmt 0
	addi	a3,a3,1024
.LVL917:
	.loc 1 4100 5 is_stmt 1
	.loc 1 4100 15 is_stmt 0
	li	a5,1
	slli	a5,a5,62
	and	a5,a3,a5
	.loc 1 4100 8
	bne	a5,zero,.L424
	.loc 1 4102 6 is_stmt 1
	.loc 1 4102 9 is_stmt 0
	li	a5,2046
	bgt	t6,a5,.L547
	.loc 1 4104 6 is_stmt 1
.LVL918:
	.loc 1 4105 6
	.loc 1 4105 24 is_stmt 0
	slli	t6,t6,52
.LVL919:
	.loc 1 4105 17
	sd	t6,104(sp)
	.loc 1 4106 6 is_stmt 1
	j	.L365
.LVL920:
.L538:
	.loc 1 3924 10 is_stmt 0
	li	t0,0
	j	.L425
.L539:
	li	t0,0
	j	.L425
.LVL921:
.L590:
	.loc 1 3930 3 is_stmt 1
	.loc 1 3930 6 is_stmt 0
	ble	t6,zero,.L592
	.loc 1 3971 3 is_stmt 1
	.loc 1 3971 6 is_stmt 0
	beq	t0,zero,.L433
	.loc 1 3986 4 is_stmt 1
	.loc 1 3986 12 is_stmt 0
	andi	a5,a3,1024
.LVL922:
	.loc 1 3986 7
	beq	a5,zero,.L419
	.loc 1 3986 28 discriminator 1
	slli	a4,a4,32
.LVL923:
	srli	a4,a4,32
	.loc 1 3986 49 discriminator 1
	li	a5,4096
	addi	a5,a5,-1025
	and	a5,a3,a5
	.loc 1 3986 42 discriminator 1
	or	a5,a4,a5
	.loc 1 3986 20 discriminator 1
	bne	a5,zero,.L420
.LVL924:
.L419:
	.loc 1 4015 4 is_stmt 1
	.loc 1 4015 7 is_stmt 0
	li	a5,2046
	bgt	t6,a5,.L543
	.loc 1 4017 4 is_stmt 1
.LVL925:
	.loc 1 4018 4
	.loc 1 4018 23 is_stmt 0
	slli	a5,t6,52
	.loc 1 4018 63
	srli	a4,a3,11
	li	a3,-1
.LVL926:
	srli	a3,a3,12
	and	a4,a4,a3
	.loc 1 4018 30
	or	a5,a5,a4
	.loc 1 4018 15
	sd	a5,104(sp)
	.loc 1 4019 4 is_stmt 1
	j	.L365
.LVL927:
.L592:
	.loc 1 3931 4
	.loc 1 3931 7 is_stmt 0
	li	a2,19
	bgt	s4,a2,.L414
	.loc 1 3931 27 discriminator 1
	li	a2,1
	slli	a2,a2,32
	addi	a2,a2,-16
	and	a4,a4,a2
.LVL928:
	.loc 1 3931 48 discriminator 1
	andi	a2,a3,1023
	.loc 1 3931 41 discriminator 1
	or	a4,a4,a2
	.loc 1 3931 17 discriminator 1
	beq	a4,zero,.L414
.LVL929:
.L418:
	.loc 1 3934 4 is_stmt 1
	.loc 1 3934 7 is_stmt 0
	li	a5,-51
.LVL930:
	bge	t6,a5,.L429
	.loc 1 3941 5 is_stmt 1
	.loc 1 3941 8 is_stmt 0
	li	a5,-52
	blt	t6,a5,.L540
	.loc 1 3941 28 discriminator 1
	li	a5,-1
	srli	a5,a5,1
	and	a3,a3,a5
.LVL931:
	.loc 1 3941 19 discriminator 1
	bne	a3,zero,.L430
	.loc 1 3724 6
	li	s9,0
	j	.L405
.LVL932:
.L429:
	.loc 1 3945 4 is_stmt 1
	.loc 1 3945 21 is_stmt 0
	li	a5,11
	subw	a5,a5,t4
	.loc 1 3945 7
	li	a4,1
	sll	a4,a4,a5
.LVL933:
	.loc 1 3946 4 is_stmt 1
	.loc 1 3946 11 is_stmt 0
	neg	a5,a4
	.loc 1 3946 8
	and	a3,a5,a3
.LVL934:
	.loc 1 3953 4 is_stmt 1
	.loc 1 3953 12 is_stmt 0
	and	a5,a4,a3
	.loc 1 3953 7
	beq	a5,zero,.L431
	.loc 1 3957 5 is_stmt 1
	.loc 1 3957 15 is_stmt 0
	slli	a4,a4,1
.LVL935:
	.loc 1 3957 9
	add	a3,a3,a4
.LVL936:
	.loc 1 3958 5 is_stmt 1
	.loc 1 3958 8 is_stmt 0
	blt	a3,zero,.L431
	.loc 1 3959 6 is_stmt 1
	.loc 1 3959 9 is_stmt 0
	addiw	t6,t4,1
.LVL937:
	ble	t6,zero,.L593
.LVL938:
.L432:
	.loc 1 4055 6 is_stmt 1
	.loc 1 4055 17 is_stmt 0
	li	a5,1
	slli	a5,a5,52
	sd	a5,104(sp)
	.loc 1 4056 6 is_stmt 1
	j	.L365
.LVL939:
.L593:
	.loc 1 3961 10 is_stmt 0
	li	a3,-1
.LVL940:
	slli	a3,a3,63
.LVL941:
.L431:
	.loc 1 3967 4 is_stmt 1
	.loc 1 3967 28 is_stmt 0
	li	a5,12
	subw	t6,a5,t6
.LVL942:
	.loc 1 3967 21
	srl	a3,a3,t6
.LVL943:
	.loc 1 3967 15
	sd	a3,104(sp)
	.loc 1 3968 4 is_stmt 1
	li	a5,2
	sw	a5,errno,a4
	.loc 1 3969 4
	j	.L365
.LVL944:
.L433:
	.loc 1 3990 3
	.loc 1 3990 12 is_stmt 0
	li	a2,1
	slli	a2,a2,32
	addi	a2,a2,-16
	and	a4,a4,a2
.LVL945:
	.loc 1 3990 33
	andi	a2,a3,1023
	.loc 1 3990 26
	or	a4,a4,a2
	.loc 1 3990 6
	beq	a4,zero,.L414
	.loc 1 3991 4
	li	a4,19
	ble	s4,a4,.L434
	.loc 1 3991 35 discriminator 1
	li	a4,1
	sll	a4,a4,a6
	.loc 1 3991 27 discriminator 1
	add	a4,a4,a3
	.loc 1 3992 5 discriminator 1
	xor	a4,a4,a3
	andi	a4,a4,-1024
	.loc 1 3991 17 discriminator 1
	bne	a4,zero,.L414
.L434:
	.loc 1 4002 4 is_stmt 1
	.loc 1 4002 12 is_stmt 0
	andi	a5,a3,1024
.LVL946:
	.loc 1 4002 7
	beq	a5,zero,.L419
	.loc 1 4003 2
	j	.L420
.LVL947:
.L591:
	.loc 1 4024 4 is_stmt 1
	.loc 1 4024 7 is_stmt 0
	li	a2,19
	bgt	s4,a2,.L414
	.loc 1 4024 27 discriminator 1
	li	a2,1
	slli	a2,a2,32
	addi	a2,a2,-16
	and	a4,a4,a2
.LVL948:
	.loc 1 4024 48 discriminator 1
	andi	a2,a3,511
	.loc 1 4024 41 discriminator 1
	or	a4,a4,a2
	.loc 1 4024 17 discriminator 1
	beq	a4,zero,.L414
.LVL949:
.L422:
	.loc 1 4027 4 is_stmt 1
	.loc 1 4027 7 is_stmt 0
	li	a5,-50
	bge	t6,a5,.L436
	.loc 1 4034 5 is_stmt 1
	.loc 1 4034 8 is_stmt 0
	li	a5,-51
	blt	t6,a5,.L544
	.loc 1 4034 28 discriminator 1
	li	a5,-1
	srli	a5,a5,2
	and	a3,a3,a5
.LVL950:
	.loc 1 4034 19 discriminator 1
	beq	a3,zero,.L545
.L430:
	.loc 1 4037 5 is_stmt 1
	.loc 1 4037 16 is_stmt 0
	li	a5,1
	sd	a5,104(sp)
	.loc 1 4038 5 is_stmt 1
	li	a5,2
	sw	a5,errno,a4
	.loc 1 4039 5
	j	.L365
.LVL951:
.L436:
	.loc 1 4041 4
	.loc 1 4041 21 is_stmt 0
	li	a5,11
	subw	a4,a5,t4
	.loc 1 4041 7
	li	a5,1
	sll	a5,a5,a4
.LVL952:
	.loc 1 4048 4 is_stmt 1
	.loc 1 4048 12 is_stmt 0
	and	a4,a3,a5
	.loc 1 4048 7
	beq	a4,zero,.L437
	.loc 1 4052 5 is_stmt 1
	.loc 1 4052 44 is_stmt 0
	slli	a5,a5,1
.LVL953:
	.loc 1 4052 38
	add	a3,a3,a5
.LVL954:
	.loc 1 4052 8
	blt	a3,zero,.L594
.L437:
	.loc 1 4062 4 is_stmt 1
	.loc 1 4062 7 is_stmt 0
	li	a5,-51
	blt	t6,a5,.L546
	.loc 1 4064 4 is_stmt 1
	.loc 1 4064 28 is_stmt 0
	li	a5,12
	subw	t4,a5,t4
.LVL955:
	.loc 1 4064 21
	srl	a3,a3,t4
.LVL956:
	.loc 1 4064 15
	sd	a3,104(sp)
	.loc 1 4065 4 is_stmt 1
	li	a5,2
	sw	a5,errno,a4
	.loc 1 4066 4
	j	.L365
.LVL957:
.L594:
	.loc 1 4052 50 is_stmt 0 discriminator 1
	li	a5,1
.LVL958:
	bne	t6,a5,.L437
	.loc 1 4054 2
	j	.L432
.LVL959:
.L438:
	.loc 1 4087 3 is_stmt 1
	.loc 1 4087 12 is_stmt 0
	li	a2,1
	slli	a2,a2,32
	addi	a2,a2,-16
	and	a4,a4,a2
.LVL960:
	.loc 1 4087 33
	andi	a2,a3,511
	.loc 1 4087 26
	or	a4,a4,a2
	.loc 1 4087 6
	beq	a4,zero,.L414
	.loc 1 4088 4
	li	a4,19
	ble	s4,a4,.L439
	.loc 1 4088 35 discriminator 1
	li	a4,1
	sll	a4,a4,a6
	.loc 1 4088 27 discriminator 1
	add	a4,a4,a3
	.loc 1 4089 5 discriminator 1
	xor	a4,a4,a3
	li	a2,-1023
	srli	a2,a2,1
	and	a4,a4,a2
	.loc 1 4088 17 discriminator 1
	bne	a4,zero,.L414
.L439:
	.loc 1 4097 4 is_stmt 1
	.loc 1 4097 12 is_stmt 0
	andi	a5,a3,512
.LVL961:
	.loc 1 4097 7
	beq	a5,zero,.L424
	.loc 1 4098 2
	j	.L423
.LVL962:
.L441:
	.loc 1 4125 4 is_stmt 1
	.loc 1 4125 7 is_stmt 0
	li	a4,10
	divu	t1,t1,a4
.LVL963:
	.loc 1 4126 4 is_stmt 1
	.loc 1 4126 7 is_stmt 0
	addiw	a7,a5,1
.LVL964:
	j	.L442
.LVL965:
.L440:
	.loc 1 4130 7 is_stmt 1
	.loc 1 4130 10 is_stmt 0
	li	a5,9
.LVL966:
	ble	s4,a5,.L444
	.loc 1 4131 3 is_stmt 1
	.loc 1 4131 5 is_stmt 0
	addiw	a5,s4,-9
.LVL967:
	.loc 1 4132 3 is_stmt 1
	.loc 1 4132 11 is_stmt 0
	srl	a5,t1,a5
	.loc 1 4132 26
	addiw	a4,s4,-10
	.loc 1 4132 24
	slli	a3,a4,3
	lla	a4,.LANCHOR0
	add	a4,a4,a3
	ld	a3,456(a4)
	.loc 1 4132 17
	divu	a5,a5,a3
	.loc 1 4132 5
	sext.w	a3,a5
.LVL968:
	j	.L443
.LVL969:
.L444:
	.loc 1 4135 3 is_stmt 1
	.loc 1 4135 5 is_stmt 0
	sext.w	a3,t1
.LVL970:
	j	.L443
.LVL971:
.L589:
	.loc 1 3724 6
	li	s9,0
	.loc 1 4152 2
	j	.L406
.LVL972:
.L535:
	.loc 1 3724 6
	li	s9,0
.LVL973:
.L406:
	.loc 1 4167 5 is_stmt 1
	.loc 1 4167 16 is_stmt 0
	li	a5,2146435072
	sw	a5,108(sp)
	.loc 1 4168 5 is_stmt 1
	.loc 1 4168 16 is_stmt 0
	sw	zero,104(sp)
.L449:
	.loc 1 4180 5 is_stmt 1
	.loc 1 4180 8 is_stmt 0
	beq	s9,zero,.L450
	.loc 1 4181 6 is_stmt 1
	ld	a0,0(sp)
	call	Bfree
.LVL974:
	.loc 1 4182 6
	mv	a0,s5
	call	Bfree
.LVL975:
	.loc 1 4183 6
	mv	a0,s6
	call	Bfree
.LVL976:
	.loc 1 4184 6
	mv	a0,s9
	call	Bfree
.LVL977:
	.loc 1 4185 6
	mv	a0,s8
	call	Bfree
.LVL978:
.L450:
	.loc 1 4187 5
	li	a5,2
	sw	a5,errno,a4
.LVL979:
	.loc 1 4188 5
	j	.L365
.LVL980:
.L542:
	.loc 1 3724 6 is_stmt 0
	li	s9,0
	j	.L406
.L543:
	li	s9,0
	j	.L406
.L547:
	li	s9,0
	j	.L406
.L548:
	li	s9,0
	j	.L406
.LVL981:
.L549:
	li	s9,0
	j	.L406
.LVL982:
.L574:
	.loc 1 4834 7
	li	s9,0
	j	.L406
.LVL983:
.L452:
	.loc 1 4191 23 is_stmt 1 discriminator 2
	.loc 1 4191 24 is_stmt 0 discriminator 2
	addiw	a4,a4,1
.LVL984:
	.loc 1 4191 31 discriminator 2
	sraiw	a5,a5,1
.LVL985:
.L451:
	.loc 1 4191 15 is_stmt 1 discriminator 1
	.loc 1 4191 4 is_stmt 0 discriminator 1
	li	a2,1
	ble	a5,a2,.L595
	.loc 1 4192 5 is_stmt 1
	.loc 1 4192 12 is_stmt 0
	andi	a2,a5,1
	.loc 1 4192 8
	beq	a2,zero,.L452
	.loc 1 4193 6 is_stmt 1
	.loc 1 4193 26 is_stmt 0
	slli	a6,a4,3
	lla	a2,.LANCHOR0
	add	a2,a2,a6
	fld	fa4,672(a2)
	.loc 1 4193 16
	fld	fa5,104(sp)
	fmul.d	fa5,fa5,fa4
	fsd	fa5,104(sp)
	j	.L452
.L595:
	.loc 1 4195 4 is_stmt 1
	.loc 1 4195 15 is_stmt 0
	li	a2,-55574528
	lw	a5,108(sp)
.LVL986:
	addw	a5,a5,a2
	sw	a5,108(sp)
	.loc 1 4196 4 is_stmt 1
	.loc 1 4196 24 is_stmt 0
	slli	a4,a4,3
.LVL987:
	lla	a5,.LANCHOR0
	add	a4,a5,a4
	fld	fa5,672(a4)
	.loc 1 4196 14
	fld	fa4,104(sp)
	fmul.d	fa5,fa5,fa4
	fmv.x.d	a5,fa5
	fsd	fa5,104(sp)
	.loc 1 4197 4 is_stmt 1
	srai	a5,a5,32
	.loc 1 4197 11 is_stmt 0
	li	a4,2146435072
	and	a4,a5,a4
	sext.w	a4,a4
.LVL988:
	.loc 1 4197 7
	li	a2,2090860544
	bgtu	a4,a2,.L549
	.loc 1 4200 4 is_stmt 1
	.loc 1 4200 7 is_stmt 0
	li	a2,2089811968
	bleu	a4,a2,.L454
	.loc 1 4203 5 is_stmt 1
	.loc 1 4203 16 is_stmt 0
	li	a5,2146435072
	addi	a5,a5,-1
	sw	a5,108(sp)
	.loc 1 4204 5 is_stmt 1
	.loc 1 4204 16 is_stmt 0
	li	a5,-1
	sw	a5,104(sp)
	j	.L447
.L454:
	.loc 1 4207 5 is_stmt 1
	.loc 1 4207 16 is_stmt 0
	li	a4,55574528
.LVL989:
	addw	a5,a4,a5
	sw	a5,108(sp)
	j	.L447
.LVL990:
.L445:
	.loc 1 4210 7 is_stmt 1
	.loc 1 4210 10 is_stmt 0
	blt	a7,zero,.L596
.LVL991:
.L447:
	.loc 1 4273 2 is_stmt 1
	.loc 1 4273 13 is_stmt 0
	subw	a5,s4,s0
	.loc 1 4273 8
	sw	a5,80(sp)
	.loc 1 4275 2 is_stmt 1
	.loc 1 4275 9 is_stmt 0
	sw	a1,84(sp)
	.loc 1 4278 2 is_stmt 1
	.loc 1 4278 5 is_stmt 0
	li	a5,40
	ble	s4,a5,.L463
	.loc 1 4282 3 is_stmt 1
.LVL992:
	.loc 1 4283 3
	.loc 1 4283 6 is_stmt 0
	li	a5,17
	bgt	a1,a5,.L552
	.loc 1 4284 4 is_stmt 1
	.loc 1 4284 11 is_stmt 0
	lw	a5,64(sp)
	.loc 1 4284 6
	addiw	a5,a5,18
.LVL993:
.L464:
	.loc 1 4282 9
	li	a7,18
	j	.L467
.LVL994:
.L596:
	.loc 1 4211 3 is_stmt 1
	.loc 1 4211 6 is_stmt 0
	negw	a5,a7
.LVL995:
	.loc 1 4212 3 is_stmt 1
	.loc 1 4212 10 is_stmt 0
	andi	a2,a5,15
.LVL996:
	.loc 1 4212 6
	beq	a2,zero,.L455
	.loc 1 4213 4 is_stmt 1
	.loc 1 4213 21 is_stmt 0
	slli	a2,a2,3
.LVL997:
	lla	a6,.LANCHOR0
	add	a2,a6,a2
	fld	fa5,272(a2)
	.loc 1 4213 14
	fdiv.d	fa5,fa4,fa5
	fsd	fa5,104(sp)
.L455:
	.loc 1 4214 3 is_stmt 1
	.loc 1 4214 10 is_stmt 0
	sraiw	a5,a5,4
.LVL998:
	.loc 1 4214 6
	beq	a5,zero,.L447
	.loc 1 4215 4 is_stmt 1
	.loc 1 4215 7 is_stmt 0
	li	a4,31
	bgt	a5,a4,.L550
	.loc 1 4218 4 is_stmt 1
	.loc 1 4218 11 is_stmt 0
	andi	a4,a5,16
	.loc 1 4218 7
	beq	a4,zero,.L456
	.loc 1 4219 5 is_stmt 1
	.loc 1 4219 14 is_stmt 0
	li	a4,106
	sw	a4,92(sp)
.L456:
	.loc 1 4191 10 discriminator 1
	li	a4,0
	j	.L458
.LVL999:
.L457:
	.loc 1 4220 23 is_stmt 1 discriminator 2
	.loc 1 4220 24 is_stmt 0 discriminator 2
	addiw	a4,a4,1
.LVL1000:
	.loc 1 4220 31 discriminator 2
	sraiw	a5,a5,1
.LVL1001:
.L458:
	.loc 1 4220 15 is_stmt 1 discriminator 1
	.loc 1 4220 4 is_stmt 0 discriminator 1
	ble	a5,zero,.L597
	.loc 1 4221 5 is_stmt 1
	.loc 1 4221 12 is_stmt 0
	andi	a2,a5,1
	.loc 1 4221 8
	beq	a2,zero,.L457
	.loc 1 4222 6 is_stmt 1
	.loc 1 4222 27 is_stmt 0
	slli	a6,a4,3
	lla	a2,.LANCHOR0
	add	a2,a2,a6
	fld	fa4,712(a2)
	.loc 1 4222 16
	fld	fa5,104(sp)
	fmul.d	fa5,fa5,fa4
	fsd	fa5,104(sp)
	j	.L457
.L597:
	.loc 1 4223 4 is_stmt 1
	.loc 1 4223 10 is_stmt 0
	lw	a5,92(sp)
.LVL1002:
	.loc 1 4223 7
	beq	a5,zero,.L460
	.loc 1 4223 37 discriminator 1
	lw	a2,108(sp)
	.loc 1 4224 7 discriminator 1
	srliw	a5,a2,20
	andi	a4,a5,2047
.LVL1003:
	.loc 1 4223 33 discriminator 1
	li	a5,107
	subw	a5,a5,a4
	.loc 1 4223 23 discriminator 1
	sext.w	a4,a5
.LVL1004:
	.loc 1 4223 17 discriminator 1
	ble	a4,zero,.L460
	.loc 1 4226 5 is_stmt 1
	.loc 1 4226 8 is_stmt 0
	li	a6,31
	ble	a4,a6,.L461
	.loc 1 4227 6 is_stmt 1
	.loc 1 4227 9 is_stmt 0
	li	a6,54
	bgt	a4,a6,.L551
	.loc 1 4229 6 is_stmt 1
	.loc 1 4229 17 is_stmt 0
	sw	zero,104(sp)
	.loc 1 4230 6 is_stmt 1
	.loc 1 4230 9 is_stmt 0
	li	a6,52
	ble	a4,a6,.L462
	.loc 1 4231 7 is_stmt 1
	.loc 1 4231 18 is_stmt 0
	li	a5,57671680
.LVL1005:
	sw	a5,108(sp)
	j	.L460
.LVL1006:
.L462:
	.loc 1 4233 7 is_stmt 1
	.loc 1 4233 37 is_stmt 0
	addiw	a5,a5,-32
.LVL1007:
	.loc 1 4233 32
	li	a4,-1
.LVL1008:
	sllw	a5,a4,a5
	.loc 1 4233 18
	and	a2,a2,a5
	sw	a2,108(sp)
	j	.L460
.LVL1009:
.L461:
	.loc 1 4236 6 is_stmt 1
	.loc 1 4236 31 is_stmt 0
	li	a5,-1
.LVL1010:
	sllw	a4,a5,a4
.LVL1011:
	.loc 1 4236 17
	lw	a5,104(sp)
	and	a5,a5,a4
	sw	a5,104(sp)
.L460:
	.loc 1 4249 5 is_stmt 1
	.loc 1 4249 8 is_stmt 0
	fld	fa4,104(sp)
	fmv.d.x	fa5,zero
	feq.d	a5,fa4,fa5
	beq	a5,zero,.L447
	.loc 1 3724 6
	li	s9,0
	.loc 1 4250 2
	j	.L405
.LVL1012:
.L534:
	.loc 1 3724 6
	li	s9,0
.LVL1013:
.L405:
	.loc 1 4251 6 is_stmt 1
	.loc 1 4251 16 is_stmt 0
	sd	zero,104(sp)
	.loc 1 4256 6 is_stmt 1
	j	.L449
.LVL1014:
.L540:
	.loc 1 3724 6 is_stmt 0
	li	s9,0
	j	.L405
.L544:
	li	s9,0
	j	.L405
.LVL1015:
.L545:
	li	s9,0
	j	.L405
.LVL1016:
.L546:
	li	s9,0
	j	.L405
.LVL1017:
.L550:
	li	s9,0
	j	.L405
.LVL1018:
.L551:
	li	s9,0
	j	.L405
.LVL1019:
.L552:
	.loc 1 4282 9
	li	a5,18
	j	.L464
.LVL1020:
.L465:
	.loc 1 4288 4 is_stmt 1
	.loc 1 4288 10 is_stmt 0
	add	a4,s1,a5
	lbu	a2,0(a4)
	.loc 1 4288 7
	li	a4,48
	bne	a2,a4,.L466
	.loc 1 4290 4 is_stmt 1
	addiw	a7,a7,-1
.LVL1021:
	.loc 1 4285 8
.L467:
	.loc 1 4285 3
	.loc 1 4286 4
	.loc 1 4286 7 is_stmt 0
	addiw	a5,a5,-1
.LVL1022:
	.loc 1 4286 16
	lw	a6,60(sp)
	.loc 1 4286 7
	ble	a6,a5,.L465
	.loc 1 4286 31 discriminator 1
	lw	a4,56(sp)
	.loc 1 4286 21 discriminator 1
	bgt	a4,a5,.L465
	.loc 1 4287 5 is_stmt 1
	.loc 1 4287 7 is_stmt 0
	addiw	a5,a4,-1
.LVL1023:
	j	.L465
.LVL1024:
.L466:
	.loc 1 4292 3 is_stmt 1
	.loc 1 4292 11 is_stmt 0
	subw	s4,s4,a7
.LVL1025:
	.loc 1 4292 5
	addw	s7,s4,a0
.LVL1026:
	.loc 1 4293 3 is_stmt 1
	.loc 1 4294 3
	.loc 1 4294 6 is_stmt 0
	bge	a7,a1,.L468
	.loc 1 4295 8
	mv	a1,a7
.LVL1027:
.L468:
	.loc 1 4296 3 is_stmt 1
	.loc 1 4296 6 is_stmt 0
	li	a5,8
.LVL1028:
	ble	a7,a5,.L554
	.loc 1 4293 6
	mv	s4,a7
.LVL1029:
.L463:
	.loc 1 4305 2 is_stmt 1
	.loc 1 4305 8 is_stmt 0
	lw	a4,64(sp)
	mv	a2,s4
	mv	a0,s1
	call	s2b
.LVL1030:
	mv	s9,a0
.LVL1031:
	j	.L516
.LVL1032:
.L470:
	.loc 1 4299 5 is_stmt 1 discriminator 3
	.loc 1 4299 11 is_stmt 0 discriminator 3
	slliw	a5,a3,2
	addw	a5,a5,a3
	slliw	a5,a5,1
	.loc 1 4299 18 discriminator 3
	add	a3,s1,a4
.LVL1033:
	lbu	a3,0(a3)
	.loc 1 4299 14 discriminator 3
	addw	a5,a5,a3
	.loc 1 4299 7 discriminator 3
	addiw	a3,a5,-48
.LVL1034:
	.loc 1 4298 24 is_stmt 1 discriminator 3
	addiw	a4,a4,1
.LVL1035:
.L469:
	.loc 1 4298 15 discriminator 1
	.loc 1 4298 4 is_stmt 0 discriminator 1
	blt	a4,a1,.L470
	j	.L471
.LVL1036:
.L554:
	.loc 1 4297 6
	li	a3,0
.LVL1037:
	.loc 1 4298 10
	li	a4,0
	j	.L469
.LVL1038:
.L472:
	.loc 1 4301 5 is_stmt 1 discriminator 3
	.loc 1 4301 11 is_stmt 0 discriminator 3
	slliw	a5,a3,2
	addw	a5,a5,a3
	slliw	a5,a5,1
.LVL1039:
	.loc 1 4301 18 discriminator 3
	add	a3,s1,a6
.LVL1040:
	lbu	a3,0(a3)
	.loc 1 4301 14 discriminator 3
	addw	a5,a5,a3
	.loc 1 4301 7 discriminator 3
	addiw	a3,a5,-48
.LVL1041:
	.loc 1 4300 28 is_stmt 1 discriminator 3
	addiw	a4,a4,1
.LVL1042:
	.loc 1 4301 20 is_stmt 0 discriminator 3
	addiw	a6,a6,1
.LVL1043:
.L471:
	.loc 1 4300 20 is_stmt 1 discriminator 1
	.loc 1 4300 4 is_stmt 0 discriminator 1
	bgt	a7,a4,.L472
	.loc 1 4293 6
	mv	s4,a7
.LVL1044:
	j	.L463
.LVL1045:
.L608:
	.loc 1 4318 4 is_stmt 1
	.loc 1 4318 14 is_stmt 0
	negw	a1,s7
.LVL1046:
	.loc 1 4319 4 is_stmt 1
	.loc 1 4319 8 is_stmt 0
	sd	zero,8(sp)
	j	.L473
.LVL1047:
.L474:
	.loc 1 4324 4 is_stmt 1
	.loc 1 4324 8 is_stmt 0
	ld	a4,8(sp)
	subw	a0,a4,a5
.LVL1048:
	mv	s8,a1
	j	.L475
.LVL1049:
.L477:
	.loc 1 4341 9 is_stmt 1
	.loc 1 4341 12 is_stmt 0
	li	a2,51
	bgt	a6,a2,.L557
	.loc 1 4342 5 is_stmt 1
	.loc 1 4342 21 is_stmt 0
	li	a2,-1054
	subw	a5,a2,a5
	.loc 1 4342 10
	li	a2,1
	sllw	a5,a2,a5
	sd	a5,24(sp)
.LVL1050:
	.loc 1 4331 7
	li	a5,1
	sd	a5,16(sp)
	j	.L476
.LVL1051:
.L556:
	.loc 1 4332 8
	sd	zero,24(sp)
	.loc 1 4331 7
	li	a5,1
.LVL1052:
	sd	a5,16(sp)
.LVL1053:
.L476:
	.loc 1 4362 3 is_stmt 1
	.loc 1 4362 7 is_stmt 0
	addw	a2,s8,a3
	sext.w	s11,a2
.LVL1054:
	.loc 1 4363 3 is_stmt 1
	.loc 1 4363 7 is_stmt 0
	addw	a3,a0,a3
.LVL1055:
	.loc 1 4365 3 is_stmt 1
	.loc 1 4365 7 is_stmt 0
	addw	a4,a4,a3
	sext.w	s10,a4
.LVL1056:
	.loc 1 4367 3 is_stmt 1
	.loc 1 4367 5 is_stmt 0
	mv	a5,a2
	ble	s11,s10,.L478
	mv	a5,a4
.L478:
	sext.w	a5,a5
.LVL1057:
	.loc 1 4368 3 is_stmt 1
	.loc 1 4368 6 is_stmt 0
	bge	s8,a5,.L479
	.loc 1 4369 6
	mv	a5,s8
.LVL1058:
.L479:
	.loc 1 4370 3 is_stmt 1
	.loc 1 4370 6 is_stmt 0
	ble	a5,zero,.L480
	.loc 1 4371 4 is_stmt 1
	.loc 1 4371 8 is_stmt 0
	subw	s11,a2,a5
.LVL1059:
	.loc 1 4372 4 is_stmt 1
	.loc 1 4372 8 is_stmt 0
	subw	s10,a4,a5
.LVL1060:
	.loc 1 4373 4 is_stmt 1
	.loc 1 4373 8 is_stmt 0
	subw	s8,s8,a5
.LVL1061:
.L480:
	.loc 1 4375 3 is_stmt 1
	.loc 1 4375 6 is_stmt 0
	bgt	a1,zero,.L598
.LVL1062:
.L481:
	.loc 1 4381 3 is_stmt 1
	.loc 1 4381 6 is_stmt 0
	bgt	s11,zero,.L599
.L482:
	.loc 1 4383 3 is_stmt 1
	.loc 1 4383 6 is_stmt 0
	ld	a5,8(sp)
	bgt	a5,zero,.L600
.L483:
	.loc 1 4385 3 is_stmt 1
	.loc 1 4385 6 is_stmt 0
	bgt	s10,zero,.L601
.L484:
	.loc 1 4387 3 is_stmt 1
	.loc 1 4387 6 is_stmt 0
	bgt	s8,zero,.L602
.L485:
	.loc 1 4389 3 is_stmt 1
	.loc 1 4389 11 is_stmt 0
	mv	a1,s5
	ld	a0,0(sp)
	call	diff
.LVL1063:
	mv	s8,a0
.LVL1064:
	.loc 1 4390 3 is_stmt 1
	.loc 1 4390 19 is_stmt 0
	lw	s10,16(a0)
.LVL1065:
	.loc 1 4390 12
	sw	s10,68(sp)
	.loc 1 4391 3 is_stmt 1
	.loc 1 4391 15 is_stmt 0
	sw	zero,16(a0)
	.loc 1 4392 3 is_stmt 1
	.loc 1 4392 7 is_stmt 0
	mv	a1,s6
	call	cmp
.LVL1066:
	sd	a0,8(sp)
.LVL1067:
	.loc 1 4394 3 is_stmt 1
	.loc 1 4394 9 is_stmt 0
	lw	s11,80(sp)
.LVL1068:
	.loc 1 4394 6
	ble	s11,s4,.L486
	.loc 1 4394 18 discriminator 1
	ble	a0,zero,.L603
.L486:
.LVL1069:
	.loc 1 4506 3 is_stmt 1
	.loc 1 4506 6 is_stmt 0
	ld	a5,8(sp)
	blt	a5,zero,.L488
	.loc 1 4537 3 is_stmt 1
	.loc 1 4537 6 is_stmt 0
	ld	a5,8(sp)
	bne	a5,zero,.L492
	.loc 1 4539 4 is_stmt 1
	.loc 1 4539 7 is_stmt 0
	bne	s10,zero,.L604
	.loc 1 4563 9 is_stmt 1
	.loc 1 4563 40 is_stmt 0
	ld	a5,104(sp)
	li	a4,-1
	srli	a4,a4,12
	and	a5,a5,a4
	.loc 1 4563 12
	beq	a5,zero,.L491
.L494:
	.loc 1 4619 4 is_stmt 1
	.loc 1 4619 7 is_stmt 0
	ld	a4,24(sp)
	beq	a4,zero,.L498
	.loc 1 4620 5 is_stmt 1
	.loc 1 4620 11 is_stmt 0
	lw	a5,108(sp)
	.loc 1 4620 22
	and	a5,a5,a4
	.loc 1 4620 8
	beq	a5,zero,.L564
.L499:
	.loc 1 4630 4 is_stmt 1
	.loc 1 4630 7 is_stmt 0
	beq	s10,zero,.L500
	.loc 1 4632 5 is_stmt 1
	.loc 1 4632 18 is_stmt 0
	addi	a1,sp,56
	addi	a0,sp,104
	call	sulp
.LVL1070:
	.loc 1 4632 15
	fld	fa5,104(sp)
	fadd.d	fa5,fa5,fa0
	fsd	fa5,104(sp)
.L501:
	.loc 1 4654 4 is_stmt 1
	.loc 1 4654 17 is_stmt 0
	li	a5,1
	subw	s10,a5,s10
	.loc 1 4654 13
	sw	s10,68(sp)
	.loc 1 4657 4 is_stmt 1
	.loc 1 3484 6 is_stmt 0
	ld	s10,8(sp)
	.loc 1 4657 4
	j	.L487
.LVL1071:
.L557:
	.loc 1 4344 10
	li	a5,2146435072
	sd	a5,24(sp)
	.loc 1 4331 7
	li	a5,1
	sd	a5,16(sp)
	j	.L476
.LVL1072:
.L598:
	.loc 1 4376 4 is_stmt 1
	.loc 1 4376 9 is_stmt 0
	mv	a0,s6
	call	pow5mult
.LVL1073:
	mv	s6,a0
.LVL1074:
	.loc 1 4377 4 is_stmt 1
	.loc 1 4377 10 is_stmt 0
	ld	a1,0(sp)
	call	mult
.LVL1075:
	sd	a0,32(sp)
.LVL1076:
	.loc 1 4378 4 is_stmt 1
	ld	a0,0(sp)
.LVL1077:
	call	Bfree
.LVL1078:
	.loc 1 4379 4
	.loc 1 4379 7 is_stmt 0
	ld	a5,32(sp)
	sd	a5,0(sp)
	j	.L481
.LVL1079:
.L599:
	.loc 1 4382 4 is_stmt 1
	.loc 1 4382 9 is_stmt 0
	mv	a1,s11
	ld	a0,0(sp)
	call	lshift
.LVL1080:
	sd	a0,0(sp)
.LVL1081:
	j	.L482
.LVL1082:
.L600:
	.loc 1 4384 4 is_stmt 1
	.loc 1 4384 9 is_stmt 0
	mv	a1,a5
	mv	a0,s5
	call	pow5mult
.LVL1083:
	mv	s5,a0
.LVL1084:
	j	.L483
.LVL1085:
.L601:
	.loc 1 4386 4 is_stmt 1
	.loc 1 4386 9 is_stmt 0
	mv	a1,s10
	mv	a0,s5
	call	lshift
.LVL1086:
	mv	s5,a0
.LVL1087:
	j	.L484
.LVL1088:
.L602:
	.loc 1 4388 4 is_stmt 1
	.loc 1 4388 9 is_stmt 0
	mv	a1,s8
	mv	a0,s6
	call	lshift
.LVL1089:
	mv	s6,a0
.LVL1090:
	j	.L485
.LVL1091:
.L603:
	.loc 1 4395 4 is_stmt 1
	.loc 1 4395 7 is_stmt 0
	bne	s10,zero,.L605
.LVL1092:
.L488:
	.loc 1 4510 4 is_stmt 1
	.loc 1 4510 7 is_stmt 0
	bne	s10,zero,.L560
	.loc 1 4510 31 discriminator 1
	ld	a5,104(sp)
	li	a4,-1
	srli	a4,a4,12
	and	a5,a5,a4
	bne	a5,zero,.L487
	.loc 1 4513 9
	lw	a5,108(sp)
	.loc 1 4513 20
	li	a4,2146435072
	and	a5,a5,a4
	sext.w	a5,a5
	.loc 1 4513 5
	li	a4,112197632
	bleu	a5,a4,.L487
	.loc 1 4525 4 is_stmt 1
	.loc 1 4525 17 is_stmt 0
	lw	a5,24(s8)
	.loc 1 4525 7
	bne	a5,zero,.L490
	.loc 1 4525 29 discriminator 1
	lw	a4,20(s8)
	.loc 1 4525 21 discriminator 1
	li	a5,1
	ble	a4,a5,.L487
.L490:
	.loc 1 4532 4 is_stmt 1
	.loc 1 4532 12 is_stmt 0
	li	a1,1
	mv	a0,s8
	call	lshift
.LVL1093:
	mv	s8,a0
.LVL1094:
	.loc 1 4533 4 is_stmt 1
	.loc 1 4533 8 is_stmt 0
	mv	a1,s6
	call	cmp
.LVL1095:
	.loc 1 4533 7
	ble	a0,zero,.L487
.L491:
	.loc 1 4587 5 is_stmt 1
	.loc 1 4587 11 is_stmt 0
	lw	a5,92(sp)
	.loc 1 4587 8
	beq	a5,zero,.L496
	.loc 1 4588 6 is_stmt 1
	.loc 1 4588 21 is_stmt 0
	lw	a5,108(sp)
	.loc 1 4588 8
	li	a4,2146435072
	and	a5,a5,a4
	sext.w	a5,a5
.LVL1096:
	.loc 1 4589 6 is_stmt 1
	.loc 1 4589 9 is_stmt 0
	li	a4,112197632
	ble	a5,a4,.L606
.LVL1097:
.L496:
	.loc 1 4603 5 is_stmt 1
	.loc 1 4603 10 is_stmt 0
	lw	a5,108(sp)
	.loc 1 4603 21
	li	a4,2146435072
	and	a4,a5,a4
	.loc 1 4603 7
	li	a5,-1048576
	addw	a5,a5,a4
.LVL1098:
	.loc 1 4605 5 is_stmt 1
	.loc 1 4605 20 is_stmt 0
	li	a4,1048576
.LVL1099:
	addi	a4,a4,-1
	or	a5,a5,a4
	.loc 1 4605 16
	sw	a5,108(sp)
	.loc 1 4606 5 is_stmt 1
	.loc 1 4606 16 is_stmt 0
	li	a5,-1
	sw	a5,104(sp)
	.loc 1 4611 5 is_stmt 1
	.loc 1 4611 11 is_stmt 0
	lw	a5,80(sp)
	.loc 1 4611 8
	ble	a5,s4,.L607
.LVL1100:
.L497:
	.loc 1 4822 3 is_stmt 1
	ld	a0,0(sp)
	call	Bfree
.LVL1101:
	.loc 1 4823 3
	mv	a0,s5
	call	Bfree
.LVL1102:
	.loc 1 4824 3
	mv	a0,s6
	call	Bfree
.LVL1103:
	.loc 1 4825 3
	mv	a0,s8
	call	Bfree
.LVL1104:
	.loc 1 4307 7
.L516:
	.loc 1 4307 2
	.loc 1 4308 3
	.loc 1 4308 8 is_stmt 0
	lw	a0,8(s9)
	call	Balloc
.LVL1105:
	mv	s5,a0
.LVL1106:
	.loc 1 4309 3 is_stmt 1
	lw	a2,20(s9)
	addi	a2,a2,2
	slli	a2,a2,2
	addi	a1,s9,16
	addi	a0,a0,16
.LVL1107:
	call	memcpy
.LVL1108:
	.loc 1 4310 3
	.loc 1 4310 8 is_stmt 0
	addi	a2,sp,120
	addi	a1,sp,124
	addi	a0,sp,104
	call	d2b
.LVL1109:
	sd	a0,0(sp)
.LVL1110:
	.loc 1 4311 3 is_stmt 1
	.loc 1 4311 8 is_stmt 0
	li	a0,1
.LVL1111:
	call	i2b
.LVL1112:
	mv	s6,a0
.LVL1113:
	.loc 1 4313 3 is_stmt 1
	.loc 1 4313 6 is_stmt 0
	blt	s7,zero,.L608
	.loc 1 4315 8
	sd	s7,8(sp)
	.loc 1 4314 8
	li	a1,0
.L473:
.LVL1114:
	.loc 1 4321 3 is_stmt 1
	.loc 1 4321 11 is_stmt 0
	lw	a5,124(sp)
	.loc 1 4321 6
	blt	a5,zero,.L474
	.loc 1 4322 4 is_stmt 1
	.loc 1 4322 8 is_stmt 0
	addw	s8,a5,a1
.LVL1115:
	ld	a0,8(sp)
.LVL1116:
.L475:
	.loc 1 4325 3 is_stmt 1
	.loc 1 4331 3
	.loc 1 4332 3
	.loc 1 4333 3
	.loc 1 4333 15 is_stmt 0
	lw	a4,92(sp)
	.loc 1 4333 5
	subw	a5,a5,a4
.LVL1117:
	.loc 1 4334 3 is_stmt 1
	.loc 1 4334 9 is_stmt 0
	lw	a3,120(sp)
	addw	a5,a3,a5
.LVL1118:
	.loc 1 4334 5
	addiw	a5,a5,-1
	sext.w	a7,a5
.LVL1119:
	.loc 1 4335 3 is_stmt 1
	.loc 1 4335 5 is_stmt 0
	li	a2,54
	subw	a2,a2,a3
	sext.w	a3,a2
.LVL1120:
	.loc 1 4336 3 is_stmt 1
	.loc 1 4336 6 is_stmt 0
	li	a6,-1022
	bge	a7,a6,.L556
	.loc 1 4337 4 is_stmt 1
	.loc 1 4337 6 is_stmt 0
	li	a3,-1022
	subw	a3,a3,a5
	sext.w	a6,a3
.LVL1121:
	.loc 1 4338 4 is_stmt 1
	.loc 1 4338 6 is_stmt 0
	subw	a3,a2,a3
.LVL1122:
	.loc 1 4339 4 is_stmt 1
	.loc 1 4339 7 is_stmt 0
	li	a2,31
.LVL1123:
	bgt	a6,a2,.L477
	.loc 1 4340 5 is_stmt 1
	.loc 1 4340 9 is_stmt 0
	li	a5,1
	sllw	a5,a5,a6
	sd	a5,16(sp)
.LVL1124:
	.loc 1 4332 8
	sd	zero,24(sp)
	j	.L476
.LVL1125:
.L604:
	.loc 1 4540 5 is_stmt 1
	.loc 1 4540 10 is_stmt 0
	lw	a4,108(sp)
	.loc 1 4540 21
	li	a5,1048576
	addi	a5,a5,-1
	and	a3,a4,a5
	.loc 1 4540 8
	bne	a3,a5,.L494
	.loc 1 4541 10
	lw	a2,104(sp)
	.loc 1 4543 7
	lw	a5,92(sp)
	.loc 1 4544 59
	beq	a5,zero,.L561
	.loc 1 4543 20
	li	a5,2146435072
	and	a5,a4,a5
	sext.w	a5,a5
.LVL1126:
	.loc 1 4543 14
	li	a3,111149056
	bgtu	a5,a3,.L562
	.loc 1 4544 43
	srliw	a5,a5,20
.LVL1127:
	.loc 1 4544 40
	li	a3,107
	subw	a3,a3,a5
	.loc 1 4544 59
	li	a5,-1
	sllw	a5,a5,a3
	j	.L495
.L561:
	li	a5,-1
.L495:
	.loc 1 4541 6
	bne	a2,a5,.L494
	.loc 1 4548 6 is_stmt 1
	.loc 1 4548 29 is_stmt 0
	ld	a3,104(sp)
	.loc 1 4548 9
	li	a5,2047
	slli	a5,a5,52
	addi	a5,a5,-1
	beq	a3,a5,.L406
	.loc 1 4550 6 is_stmt 1
	.loc 1 4550 31 is_stmt 0
	li	a5,2146435072
	and	a4,a4,a5
	.loc 1 4551 7
	li	a5,1048576
	addw	a4,a5,a4
	.loc 1 4550 17
	sw	a4,108(sp)
	.loc 1 4556 6 is_stmt 1
	.loc 1 4556 17 is_stmt 0
	sw	zero,104(sp)
	.loc 1 4558 6 is_stmt 1
	.loc 1 4558 15 is_stmt 0
	sw	zero,68(sp)
	.loc 1 4560 6 is_stmt 1
	.loc 1 3484 6 is_stmt 0
	ld	s10,8(sp)
	.loc 1 4560 6
	j	.L487
.LVL1128:
.L562:
	.loc 1 4544 59
	li	a5,-1
.LVL1129:
	j	.L495
.LVL1130:
.L606:
	.loc 1 4590 7 is_stmt 1
	.loc 1 4590 10 is_stmt 0
	li	a4,57671680
	bgt	a5,a4,.L563
	.loc 1 4595 7 is_stmt 1
	.loc 1 4595 13 is_stmt 0
	lw	a5,80(sp)
.LVL1131:
	.loc 1 4595 10
	ble	a5,s4,.L405
	.loc 1 4596 8 is_stmt 1
	.loc 1 4596 18 is_stmt 0
	li	a5,1
	sw	a5,96(sp)
	.loc 1 4597 8 is_stmt 1
	.loc 1 3484 6 is_stmt 0
	li	s10,0
	.loc 1 4597 8
	j	.L487
.L607:
	.loc 1 3484 6
	li	s10,0
.L487:
.LVL1132:
	.loc 1 4827 2 is_stmt 1
	ld	a0,0(sp)
	call	Bfree
.LVL1133:
	.loc 1 4828 2
	mv	a0,s5
	call	Bfree
.LVL1134:
	.loc 1 4829 2
	mv	a0,s6
	call	Bfree
.LVL1135:
	.loc 1 4830 2
	mv	a0,s9
	call	Bfree
.LVL1136:
	.loc 1 4831 2
	mv	a0,s8
	call	Bfree
.LVL1137:
	.loc 1 4833 2
	.loc 1 4833 5 is_stmt 0
	bne	s10,zero,.L609
.LVL1138:
.L517:
	.loc 1 4845 2 is_stmt 1
	.loc 1 4845 8 is_stmt 0
	lw	a5,92(sp)
	.loc 1 4845 5
	beq	a5,zero,.L365
	.loc 1 4846 3 is_stmt 1
	.loc 1 4846 15 is_stmt 0
	lwu	a4,40(sp)
	li	a5,917
	slli	a5,a5,52
	or	a4,a4,a5
	.loc 1 4847 3 is_stmt 1
	.loc 1 4847 15 is_stmt 0
	li	a5,-1
	slli	a5,a5,32
.LVL1139:
	and	a5,a4,a5
.LVL1140:
	.loc 1 4848 3 is_stmt 1
	.loc 1 4848 13 is_stmt 0
	fld	fa5,104(sp)
.LVL1141:
	fmv.d.x	fa4,a5
	fmul.d	fa5,fa5,fa4
	fmv.x.d	a5,fa5
.LVL1142:
	fsd	fa5,104(sp)
	.loc 1 4852 3 is_stmt 1
	.loc 1 4852 20 is_stmt 0
	srli	a5,a5,32
	li	a4,2146435072
	and	a5,a5,a4
	.loc 1 4852 6
	bne	a5,zero,.L365
	.loc 1 4856 4 is_stmt 1
	li	a5,2
	sw	a5,errno,a4
	j	.L365
.LVL1143:
.L498:
	.loc 1 4623 9
	.loc 1 4623 15 is_stmt 0
	lw	a5,104(sp)
	.loc 1 4623 26
	ld	a4,16(sp)
	and	a5,a5,a4
	.loc 1 4623 12
	bne	a5,zero,.L499
	.loc 1 3484 6
	ld	s10,8(sp)
	j	.L487
.L500:
	.loc 1 4639 5 is_stmt 1
	.loc 1 4639 18 is_stmt 0
	addi	a1,sp,56
	addi	a0,sp,104
	call	sulp
.LVL1144:
	.loc 1 4639 15
	fld	fa5,104(sp)
	fsub.d	fa5,fa5,fa0
	fsd	fa5,104(sp)
	.loc 1 4644 5 is_stmt 1
	.loc 1 4644 8 is_stmt 0
	fmv.d.x	fa4,zero
	feq.d	a5,fa5,fa4
	beq	a5,zero,.L501
	.loc 1 4645 6 is_stmt 1
	.loc 1 4645 9 is_stmt 0
	ble	s11,s4,.L405
	.loc 1 4646 7 is_stmt 1
	.loc 1 4646 17 is_stmt 0
	li	a5,1
	sw	a5,96(sp)
	.loc 1 4647 7 is_stmt 1
	j	.L487
.L492:
	.loc 1 4659 3
	.loc 1 4659 15 is_stmt 0
	mv	a1,s6
	mv	a0,s8
	call	ratio
.LVL1145:
	.loc 1 4659 6
	fld	fa5,.LC6,a5
	fle.d	a5,fa0,fa5
	beq	a5,zero,.L579
	.loc 1 4660 4 is_stmt 1
	.loc 1 4660 10 is_stmt 0
	lw	s10,68(sp)
	.loc 1 4660 7
	bne	s10,zero,.L566
	.loc 1 4662 9 is_stmt 1
	.loc 1 4662 24 is_stmt 0
	ld	a4,104(sp)
	li	a5,-1
	srli	a5,a5,12
	and	a5,a4,a5
	.loc 1 4662 12
	beq	a5,zero,.L505
	.loc 1 4664 5 is_stmt 1
	.loc 1 4664 8 is_stmt 0
	li	a5,1
	beq	a4,a5,.L610
	.loc 1 4673 11
	ld	s10,.LC2
	.loc 1 4672 10
	fld	fs0,.LC1,a5
	j	.L504
.L610:
	.loc 1 4665 6 is_stmt 1
	.loc 1 4665 12 is_stmt 0
	lw	a5,80(sp)
	.loc 1 4665 9
	ble	a5,s4,.L405
	.loc 1 4666 7 is_stmt 1
	.loc 1 4666 17 is_stmt 0
	li	a5,1
	sw	a5,96(sp)
	.loc 1 4667 7 is_stmt 1
	j	.L487
.L505:
	.loc 1 4679 5
	.loc 1 4679 8 is_stmt 0
	fld	fa5,.LC1,a5
	flt.d	a5,fa0,fa5
	bne	a5,zero,.L568
	.loc 1 4682 6 is_stmt 1
	.loc 1 4682 11 is_stmt 0
	fld	fs0,.LC0,a5
	fmul.d	fs0,fa0,fs0
.LVL1146:
.L506:
	.loc 1 4683 5 is_stmt 1
	.loc 1 4683 11 is_stmt 0
	fneg.d	fa5,fs0
	fmv.x.d	s10,fa5
.LVL1147:
	j	.L504
.LVL1148:
.L568:
	.loc 1 4680 11
	fld	fs0,.LC0,a5
	j	.L506
.L579:
	.loc 1 4687 4 is_stmt 1
	.loc 1 4687 9 is_stmt 0
	fld	fs0,.LC0,a5
	fmul.d	fs0,fa0,fs0
.LVL1149:
	.loc 1 4688 4 is_stmt 1
	.loc 1 4688 14 is_stmt 0
	lw	a5,68(sp)
	.loc 1 4688 28
	bne	a5,zero,.L569
	.loc 1 4688 28 discriminator 1
	fneg.d	fa5,fs0
	fmv.x.d	s10,fa5
.LVL1150:
.L504:
	.loc 1 4703 3 is_stmt 1
	.loc 1 4703 7 is_stmt 0
	lw	a5,108(sp)
	.loc 1 4703 5
	li	s11,2146435072
	and	s11,a5,s11
	sext.w	s11,s11
.LVL1151:
	.loc 1 4707 3 is_stmt 1
	.loc 1 4707 6 is_stmt 0
	li	a4,2145386496
	beq	s11,a4,.L611
	.loc 1 4725 4 is_stmt 1
	.loc 1 4725 10 is_stmt 0
	lw	a5,92(sp)
	.loc 1 4725 7
	beq	a5,zero,.L510
	.loc 1 4725 17 discriminator 1
	li	a5,111149056
	bgtu	s11,a5,.L510
	.loc 1 4726 5 is_stmt 1
	.loc 1 4726 8 is_stmt 0
	fld	fa5,.LC7,a5
	fle.d	a5,fs0,fa5
	beq	a5,zero,.L511
	.loc 1 4727 6 is_stmt 1
	.loc 1 4727 13 is_stmt 0
	fcvt.wu.d a5,fs0,rtz
	sext.w	a5,a5
.LVL1152:
	.loc 1 4727 9
	bne	a5,zero,.L513
	.loc 1 4728 9
	li	a5,1
.LVL1153:
.L513:
	.loc 1 4729 6 is_stmt 1
	.loc 1 4729 11 is_stmt 0
	fcvt.d.wu	fs0,a5
.LVL1154:
	.loc 1 4730 6 is_stmt 1
	.loc 1 4730 16 is_stmt 0
	lw	a5,68(sp)
.LVL1155:
	.loc 1 4730 30
	bne	a5,zero,.L571
	.loc 1 4730 30 discriminator 1
	fneg.d	fa5,fs0
	fmv.x.d	s10,fa5
.LVL1156:
.L511:
	.loc 1 4732 5 is_stmt 1
	.loc 1 4733 5
	.loc 1 4733 19 is_stmt 0
	srli	a5,s10,32
	subw	a5,a5,s11
	li	a4,112197632
	addw	a5,a5,a4
	slli	a5,a5,32
	li	a4,-1
	srli	a4,a4,32
	and	s10,a4,s10
.LVL1157:
	or	s10,s10,a5
	.loc 1 4734 5 is_stmt 1
.LVL1158:
	.loc 1 4735 5
	.loc 1 4735 21 is_stmt 0
	addi	a0,sp,104
	call	ulp
.LVL1159:
	.loc 1 4735 19
	fmv.d.x	fa5,s10
	fmul.d	fa0,fa0,fa5
	.loc 1 4736 5 is_stmt 1
	.loc 1 4736 15 is_stmt 0
	fld	fa5,104(sp)
	fadd.d	fa5,fa0,fa5
	fsd	fa5,104(sp)
	.loc 1 4737 5 is_stmt 1
	.loc 1 4737 8 is_stmt 0
	fmv.d.x	fa4,zero
	feq.d	a5,fa5,fa4
	beq	a5,zero,.L509
	.loc 1 4742 18
	li	s10,1
.LVL1160:
	j	.L487
.LVL1161:
.L566:
	.loc 1 4661 18
	ld	s10,.LC1
	.loc 1 4661 10
	fmv.d.x	fs0,s10
	j	.L504
.LVL1162:
.L569:
	.loc 1 4688 28
	fmv.x.d	s10,fs0
	j	.L504
.LVL1163:
.L611:
	.loc 1 4708 4 is_stmt 1
	.loc 1 4708 15 is_stmt 0
	ld	a4,104(sp)
.LVL1164:
	sd	a4,40(sp)
	.loc 1 4709 4 is_stmt 1
	.loc 1 4709 15 is_stmt 0
	li	a4,-55574528
.LVL1165:
	addw	a5,a4,a5
	sw	a5,108(sp)
	.loc 1 4710 4 is_stmt 1
	.loc 1 4710 20 is_stmt 0
	addi	a0,sp,104
	call	ulp
.LVL1166:
	.loc 1 4710 18
	fmv.d.x	fa5,s10
	fmul.d	fa0,fa0,fa5
	.loc 1 4711 4 is_stmt 1
	.loc 1 4711 14 is_stmt 0
	fld	fa4,104(sp)
	fadd.d	fa5,fa0,fa4
	fmv.x.d	a5,fa5
	fsd	fa5,104(sp)
	.loc 1 4712 4 is_stmt 1
	srai	a5,a5,32
	.loc 1 4712 20 is_stmt 0
	li	a4,2146435072
	and	a4,a5,a4
	sext.w	a4,a4
	.loc 1 4712 7
	li	a3,2090860544
	bltu	a4,a3,.L508
	.loc 1 4714 5 is_stmt 1
	.loc 1 4714 8 is_stmt 0
	li	a5,2047
	slli	a5,a5,52
	addi	a5,a5,-1
	ld	a4,40(sp)
.LVL1167:
	beq	a4,a5,.L406
	.loc 1 4716 5 is_stmt 1
	.loc 1 4716 16 is_stmt 0
	li	a5,2146435072
	addi	a5,a5,-1
	sw	a5,108(sp)
	.loc 1 4717 5 is_stmt 1
	.loc 1 4717 16 is_stmt 0
	li	a5,-1
	sw	a5,104(sp)
	.loc 1 4718 5 is_stmt 1
	j	.L497
.LVL1168:
.L508:
	.loc 1 4721 5
	.loc 1 4721 16 is_stmt 0
	li	a4,55574528
	addw	a5,a4,a5
	sw	a5,108(sp)
	j	.L509
.L571:
	.loc 1 4730 30
	fmv.x.d	s10,fs0
.LVL1169:
	j	.L511
.LVL1170:
.L510:
	.loc 1 4748 5 is_stmt 1
	.loc 1 4748 21 is_stmt 0
	addi	a0,sp,104
	call	ulp
.LVL1171:
	.loc 1 4748 19
	fmv.d.x	fa5,s10
	fmul.d	fa0,fa0,fa5
	.loc 1 4749 5 is_stmt 1
	.loc 1 4749 15 is_stmt 0
	fld	fa5,104(sp)
	fadd.d	fa5,fa5,fa0
	fsd	fa5,104(sp)
.L509:
	.loc 1 4801 3 is_stmt 1
	.loc 1 4801 7 is_stmt 0
	lw	a5,108(sp)
	.loc 1 4801 5
	li	a4,2146435072
	and	a5,a5,a4
	sext.w	a5,a5
.LVL1172:
	.loc 1 4803 3 is_stmt 1
	.loc 1 4803 9 is_stmt 0
	lw	a4,80(sp)
	.loc 1 4803 6
	bne	a4,s4,.L497
	.loc 1 4805 3 is_stmt 1
	.loc 1 4805 10 is_stmt 0
	lw	s10,92(sp)
.LVL1173:
	.loc 1 4805 6
	bne	s10,zero,.L497
	.loc 1 4807 3 is_stmt 1
	.loc 1 4807 6 is_stmt 0
	bne	s11,a5,.L497
	.loc 1 4809 4 is_stmt 1
	.loc 1 4809 6 is_stmt 0
	fcvt.w.d a5,fs0,rtz
.LVL1174:
	.loc 1 4810 4 is_stmt 1
	.loc 1 4810 9 is_stmt 0
	fcvt.d.w	fa5,a5
	fsub.d	fs0,fs0,fa5
.LVL1175:
	.loc 1 4812 4 is_stmt 1
	.loc 1 4812 10 is_stmt 0
	lw	a3,68(sp)
	.loc 1 4812 7
	bne	a3,zero,.L514
	.loc 1 4812 31 discriminator 1
	ld	a5,104(sp)
.LVL1176:
	li	a4,-1
	srli	a4,a4,12
	and	a5,a5,a4
	beq	a5,zero,.L515
.L514:
	.loc 1 4813 5 is_stmt 1
	.loc 1 4813 8 is_stmt 0
	fld	fa5,.LC8,a5
	flt.d	a5,fs0,fa5
	bne	a5,zero,.L487
	.loc 1 4813 25 discriminator 1
	fld	fa5,.LC9,a5
	fgt.d	a5,fs0,fa5
	beq	a5,zero,.L497
	j	.L487
.L515:
	.loc 1 4816 9 is_stmt 1
	.loc 1 4816 12 is_stmt 0
	fld	fa5,.LC10,a5
	flt.d	a5,fs0,fa5
	beq	a5,zero,.L497
	.loc 1 3484 6
	mv	s10,a3
	j	.L487
.LVL1177:
.L605:
	.loc 1 4397 17
	li	s10,1
	j	.L487
.LVL1178:
.L560:
	.loc 1 3484 6
	li	s10,0
	j	.L487
.LVL1179:
.L563:
	li	s10,0
	j	.L487
.LVL1180:
.L564:
	ld	s10,8(sp)
	j	.L487
.LVL1181:
.L609:
	.loc 1 4834 3 is_stmt 1
	.loc 1 4835 3
	.loc 1 4835 9 is_stmt 0
	lw	a5,72(sp)
	addw	s0,a5,s0
.LVL1182:
	sw	s0,72(sp)
	.loc 1 4836 3 is_stmt 1
	addi	a2,sp,56
	mv	a1,s1
	addi	a0,sp,104
	call	bigcomp
.LVL1183:
	.loc 1 4837 3
	.loc 1 4837 7 is_stmt 0
	lw	a5,108(sp)
	.loc 1 4837 5
	li	a4,2146435072
	and	a5,a5,a4
	sext.w	a5,a5
.LVL1184:
	.loc 1 4838 3 is_stmt 1
	.loc 1 4838 6 is_stmt 0
	li	a4,2146435072
	beq	a5,a4,.L574
	.loc 1 4840 3 is_stmt 1
	.loc 1 4840 6 is_stmt 0
	bne	a5,zero,.L517
	.loc 1 4840 14 discriminator 1
	fld	fa4,104(sp)
	fmv.d.x	fa5,zero
	feq.d	a5,fa4,fa5
.LVL1185:
	beq	a5,zero,.L517
	.loc 1 4834 7
	li	s9,0
	j	.L405
.LVL1186:
.L519:
	.loc 1 4879 27 discriminator 2
	fld	fa0,104(sp)
	j	.L353
	.cfi_endproc
.LFE26:
	.size	strtod, .-strtod
	.globl	dtoa_divmax
	.section	.srodata.cst8,"aM",@progbits,8
	.align	3
.LC0:
	.word	0
	.word	1071644672
	.align	3
.LC1:
	.word	0
	.word	1072693248
	.align	3
.LC2:
	.word	0
	.word	-1074790400
	.align	3
.LC6:
	.word	0
	.word	1073741824
	.align	3
.LC7:
	.word	4290772992
	.word	1105199103
	.align	3
.LC8:
	.word	2493527445
	.word	1071644671
	.align	3
.LC9:
	.word	900719925
	.word	1071644672
	.align	3
.LC10:
	.word	2493527445
	.word	1070596095
	.bss
	.align	3
	.set	.LANCHOR1,. + 0
	.type	TI0, @object
	.size	TI0, 72
TI0:
	.zero	72
	.type	private_mem, @object
	.size	private_mem, 2304
private_mem:
	.zero	2304
	.section	.rodata
	.align	3
	.set	.LANCHOR0,. + 0
	.type	hexdig, @object
	.size	hexdig, 256
hexdig:
	.string	""
	.string	""
	.string	""
	.string	""
	.string	""
	.string	""
	.string	""
	.string	""
	.string	""
	.string	""
	.string	""
	.string	""
	.string	""
	.string	""
	.string	""
	.string	""
	.string	""
	.string	""
	.string	""
	.string	""
	.string	""
	.string	""
	.string	""
	.string	""
	.string	""
	.string	""
	.string	""
	.string	""
	.string	""
	.string	""
	.string	""
	.string	""
	.string	""
	.string	""
	.string	""
	.string	""
	.string	""
	.string	""
	.string	""
	.string	""
	.string	""
	.string	""
	.string	""
	.string	""
	.string	""
	.string	""
	.string	""
	.string	""
	.string	"\020\021\022\023\024\025\026\027\030\031"
	.string	""
	.string	""
	.string	""
	.string	""
	.string	""
	.string	""
	.string	"\032\033\034\035\036\037"
	.string	""
	.string	""
	.string	""
	.string	""
	.string	""
	.string	""
	.string	""
	.string	""
	.string	""
	.string	""
	.string	""
	.string	""
	.string	""
	.string	""
	.string	""
	.string	""
	.string	""
	.string	""
	.string	""
	.string	""
	.string	""
	.string	""
	.string	""
	.string	""
	.string	""
	.string	"\032\033\034\035\036\037"
	.string	""
	.string	""
	.string	""
	.string	""
	.string	""
	.string	""
	.string	""
	.string	""
	.string	""
	.string	""
	.string	""
	.string	""
	.string	""
	.string	""
	.string	""
	.string	""
	.string	""
	.string	""
	.string	""
	.string	""
	.string	""
	.string	""
	.string	""
	.string	""
	.string	""
	.string	""
	.string	""
	.string	""
	.string	""
	.string	""
	.string	""
	.string	""
	.string	""
	.string	""
	.string	""
	.string	""
	.string	""
	.string	""
	.string	""
	.string	""
	.string	""
	.string	""
	.string	""
	.string	""
	.string	""
	.string	""
	.string	""
	.string	""
	.string	""
	.string	""
	.string	""
	.string	""
	.string	""
	.string	""
	.string	""
	.string	""
	.string	""
	.string	""
	.string	""
	.string	""
	.string	""
	.string	""
	.string	""
	.string	""
	.string	""
	.string	""
	.string	""
	.string	""
	.string	""
	.string	""
	.string	""
	.string	""
	.string	""
	.string	""
	.string	""
	.string	""
	.string	""
	.string	""
	.string	""
	.string	""
	.string	""
	.string	""
	.string	""
	.string	""
	.string	""
	.string	""
	.string	""
	.string	""
	.string	""
	.string	""
	.string	""
	.string	""
	.string	""
	.string	""
	.string	""
	.string	""
	.string	""
	.string	""
	.string	""
	.string	""
	.string	""
	.string	""
	.string	""
	.string	""
	.string	""
	.string	""
	.string	""
	.string	""
	.string	""
	.string	""
	.string	""
	.string	""
	.string	""
	.string	""
	.string	""
	.string	""
	.string	""
	.string	""
	.string	""
	.string	""
	.string	""
	.string	""
	.string	""
	.string	""
	.string	""
	.string	""
	.string	""
	.string	""
	.string	""
	.string	""
	.string	""
	.string	""
	.string	""
	.string	""
	.string	""
	.string	""
	.string	""
	.string	""
	.string	""
	.string	""
	.string	""
	.string	""
	.string	""
	.string	""
	.string	""
	.string	""
	.string	""
	.string	""
	.string	""
	.string	""
	.string	""
	.string	""
	.type	p05.2008, @object
	.size	p05.2008, 12
p05.2008:
	.word	5
	.word	25
	.word	125
	.zero	4
	.type	tens, @object
	.size	tens, 184
tens:
	.word	0
	.word	1072693248
	.word	0
	.word	1076101120
	.word	0
	.word	1079574528
	.word	0
	.word	1083129856
	.word	0
	.word	1086556160
	.word	0
	.word	1090021888
	.word	0
	.word	1093567616
	.word	0
	.word	1097011920
	.word	0
	.word	1100470148
	.word	0
	.word	1104006501
	.word	536870912
	.word	1107468383
	.word	3892314112
	.word	1110919286
	.word	2717908992
	.word	1114446484
	.word	3846176768
	.word	1117925532
	.word	512753664
	.word	1121369284
	.word	640942080
	.word	1124887541
	.word	937459712
	.word	1128383353
	.word	2245566464
	.word	1131820119
	.word	1733216256
	.word	1135329645
	.word	1620131072
	.word	1138841828
	.word	2025163840
	.word	1142271773
	.word	3605196624
	.word	1145772772
	.word	105764242
	.word	1149300943
	.type	pfive, @object
	.size	pfive, 216
pfive:
	.dword	5
	.dword	25
	.dword	125
	.dword	625
	.dword	3125
	.dword	15625
	.dword	78125
	.dword	390625
	.dword	1953125
	.dword	9765625
	.dword	48828125
	.dword	244140625
	.dword	1220703125
	.dword	6103515625
	.dword	30517578125
	.dword	152587890625
	.dword	762939453125
	.dword	3814697265625
	.dword	19073486328125
	.dword	95367431640625
	.dword	476837158203125
	.dword	2384185791015625
	.dword	11920928955078125
	.dword	59604644775390625
	.dword	298023223876953125
	.dword	1490116119384765625
	.dword	7450580596923828125
	.type	bigtens, @object
	.size	bigtens, 40
bigtens:
	.word	937459712
	.word	1128383353
	.word	3037031959
	.word	1184086197
	.word	3913284085
	.word	1295535875
	.word	4180679986
	.word	1518499656
	.word	2138292028
	.word	1964330973
	.type	tinytens, @object
	.size	tinytens, 40
tinytens:
	.word	2547550652
	.word	1016910514
	.word	3584599859
	.word	961148451
	.word	1156884285
	.word	849678333
	.word	3482097565
	.word	626768392
	.word	1689022275
	.word	292029992
	.type	pten, @object
	.size	pten, 10672
pten:
	.word	-285977642
	.word	-1841572262
	.word	289385001
	.word	-1136
	.word	-1789348762
	.word	459630072
	.word	1254607449
	.word	-1132
	.word	-1162944129
	.word	-1572946058
	.word	1568259312
	.word	-1129
	.word	-379938337
	.word	-1966182573
	.word	-187159508
	.word	-1126
	.word	-1848074197
	.word	-1228864108
	.word	2030508955
	.word	-1122
	.word	-1236350922
	.word	-1536080135
	.word	-1756831102
	.word	-1119
	.word	-471696828
	.word	1301125303
	.word	-48555229
	.word	-1116
	.word	-1905423254
	.word	-1334280334
	.word	-30347019
	.word	-1112
	.word	-1308037243
	.word	1553375055
	.word	-1111675597
	.word	-1109
	.word	-561304730
	.word	-1279506653
	.word	-1389594496
	.word	-1106
	.word	-1961428192
	.word	810921078
	.word	1278987088
	.word	-1102
	.word	-1378043416
	.word	1013651347
	.word	-548749788
	.word	-1099
	.word	-648812446
	.word	1267064184
	.word	-685937235
	.word	-1096
	.word	-2016120515
	.word	1865656939
	.word	-2039323508
	.word	-1092
	.word	-1446408820
	.word	-889154298
	.word	1745812911
	.word	-1089
	.word	-734269201
	.word	-37701048
	.word	34782491
	.word	-1086
	.word	-2069530987
	.word	-23563155
	.word	21739056
	.word	-1082
	.word	-1513171909
	.word	2118029704
	.word	1100915645
	.word	-1079
	.word	-817723062
	.word	1573795306
	.word	1376144556
	.word	-1076
	.word	-2121689650
	.word	2057363890
	.word	1933832171
	.word	-1072
	.word	-1578370238
	.word	424221215
	.word	269806566
	.word	-1069
	.word	-899220974
	.word	-1617207130
	.word	-736483616
	.word	-1066
	.word	-50284393
	.word	1199716560
	.word	-1994346344
	.word	-1063
	.word	-1642040482
	.word	-1934531710
	.word	1437888095
	.word	-1059
	.word	-978808778
	.word	803060834
	.word	-350123529
	.word	-1056
	.word	-149769149
	.word	-1143657605
	.word	-1511396235
	.word	-1053
	.word	-1704218454
	.word	1432697645
	.word	1202861001
	.word	-1049
	.word	-1056531244
	.word	-356611592
	.word	-1717649221
	.word	-1046
	.word	-246922230
	.word	627977334
	.word	-1073319702
	.word	-1043
	.word	-1764939130
	.word	1466227658
	.word	939787922
	.word	-1039
	.word	-1132432089
	.word	-314699076
	.word	-972748745
	.word	-1036
	.word	-341798287
	.word	-393373845
	.word	-142194108
	.word	-1033
	.word	-1824236665
	.word	827883171
	.word	2058612330
	.word	-1029
	.word	-1206554008
	.word	-38887860
	.word	1499523589
	.word	-1026
	.word	-434450685
	.word	1025131999
	.word	1874404487
	.word	-1023
	.word	-1882144414
	.word	103836587
	.word	-1512851756
	.word	-1019
	.word	-1278938694
	.word	-2017687914
	.word	-1891064695
	.word	-1016
	.word	-524931543
	.word	699115580
	.word	857394603
	.word	-1013
	.word	-1938694951
	.word	-1173665499
	.word	-1611612021
	.word	-1009
	.word	-1349626864
	.word	680401775
	.word	132968622
	.word	-1006
	.word	-613291756
	.word	850502218
	.word	-907531047
	.word	-1003
	.word	-1993920084
	.word	-1615919762
	.word	-1104077816
	.word	-999
	.word	-1418658281
	.word	-946157878
	.word	1841128202
	.word	-996
	.word	-699581027
	.word	-1182697347
	.word	153926604
	.word	-993
	.word	-2047850878
	.word	-1812927666
	.word	633075040
	.word	-989
	.word	-1486071773
	.word	955065889
	.word	-1356139848
	.word	-986
	.word	-783847892
	.word	120090538
	.word	452308838
	.word	-983
	.word	-2100517669
	.word	-2072427062
	.word	1356434847
	.word	-979
	.word	-1551905262
	.word	1704433468
	.word	-451940089
	.word	-976
	.word	-866139754
	.word	-16941812
	.word	508816713
	.word	-973
	.word	-8932868
	.word	-1094919089
	.word	636020892
	.word	-970
	.word	-1616195779
	.word	-147453519
	.word	2008125793
	.word	-966
	.word	-946502899
	.word	1963166749
	.word	-711068231
	.word	-963
	.word	-109386800
	.word	-767267035
	.word	1258648360
	.word	-960
	.word	-1678979486
	.word	-2090154633
	.word	1323526137
	.word	-956
	.word	-1024982533
	.word	608532181
	.word	580665847
	.word	-953
	.word	-207486343
	.word	-313076598
	.word	1799574133
	.word	-950
	.word	-1740291700
	.word	878068950
	.word	-2096491639
	.word	-946
	.word	-1101622801
	.word	1097586188
	.word	600610923
	.word	-943
	.word	-303286677
	.word	298240911
	.word	750763654
	.word	-940
	.word	-1800166910
	.word	-350470343
	.word	2079840020
	.word	-936
	.word	-1176466813
	.word	-1511829753
	.word	-621425447
	.word	-933
	.word	-396841692
	.word	-1889787191
	.word	-776781809
	.word	-930
	.word	-1858638794
	.word	-644246082
	.word	588253193
	.word	-926
	.word	-1249556668
	.word	-1879049427
	.word	-1412167156
	.word	-923
	.word	-488204011
	.word	-1275069959
	.word	382274703
	.word	-920
	.word	-1915740243
	.word	-1870660549
	.word	-1371691047
	.word	-916
	.word	-1320933480
	.word	-190842038
	.word	-1714613809
	.word	-913
	.word	-577425025
	.word	835189277
	.word	1077958211
	.word	-910
	.word	-1971503377
	.word	2132606034
	.word	1210594794
	.word	-906
	.word	-1390637397
	.word	1592015718
	.word	-634240155
	.word	-903
	.word	-664554922
	.word	916277824
	.word	-1866542018
	.word	-900
	.word	-2025959563
	.word	-501068184
	.word	1517765798
	.word	-896
	.word	-1458707629
	.word	1521148418
	.word	1897207248
	.word	-893
	.word	-749642712
	.word	827693699
	.word	224025412
	.word	-890
	.word	-2079139431
	.word	517308561
	.word	-396855030
	.word	-886
	.word	-1525182465
	.word	1720377526
	.word	1651414861
	.word	-883
	.word	-832736257
	.word	1076730083
	.word	-83215071
	.word	-880
	.word	-2131072897
	.word	-2011398258
	.word	2095474228
	.word	-876
	.word	-1590099297
	.word	1780719474
	.word	471859137
	.word	-873
	.word	-913882297
	.word	1152157518
	.word	-1557659726
	.word	-870
	.word	-68611047
	.word	366455074
	.word	1274150815
	.word	-867
	.word	-1653494641
	.word	-1381578315
	.word	1870086083
	.word	-863
	.word	-993126477
	.word	-1726972894
	.word	-883617868
	.word	-860
	.word	-167666272
	.word	2136251179
	.word	2116703137
	.word	-857
	.word	-1715404156
	.word	1335156987
	.word	786068548
	.word	-853
	.word	-1070513371
	.word	1668946233
	.word	-91156139
	.word	-850
	.word	-264399890
	.word	-1135042680
	.word	2033538475
	.word	-847
	.word	-1775862667
	.word	901211061
	.word	1270961547
	.word	-843
	.word	-1146086510
	.word	-2094711646
	.word	-1632523539
	.word	-840
	.word	-358866313
	.word	602835915
	.word	1180571049
	.word	-837
	.word	-1834904182
	.word	1987385183
	.word	200985993
	.word	-833
	.word	-1219888403
	.word	336747830
	.word	-822509332
	.word	-830
	.word	-451118680
	.word	1494676612
	.word	-2101878489
	.word	-827
	.word	-1892561911
	.word	934172882
	.word	-776803144
	.word	-823
	.word	-1291960565
	.word	-2053509369
	.word	-2044745754
	.word	-820
	.word	-541208882
	.word	1728080585
	.word	1739035104
	.word	-817
	.word	-1948868287
	.word	6308541
	.word	-523715796
	.word	-813
	.word	-1362343535
	.word	1081627501
	.word	1492838903
	.word	-810
	.word	-629187595
	.word	-1869191096
	.word	-1355176843
	.word	-807
	.word	-2003854983
	.word	2052981037
	.word	1837369033
	.word	-803
	.word	-1431076905
	.word	-654999176
	.word	-924514181
	.word	-800
	.word	-715104307
	.word	-818748970
	.word	-81900902
	.word	-797
	.word	-2057552928
	.word	-1585459930
	.word	1559424672
	.word	-793
	.word	-1498199336
	.word	-908083089
	.word	-198202808
	.word	-790
	.word	-799007346
	.word	-61362037
	.word	-247753510
	.word	-787
	.word	-2109992327
	.word	1572261463
	.word	1992637704
	.word	-783
	.word	-1563748585
	.word	-1255898643
	.word	1417055307
	.word	-780
	.word	-880943907
	.word	-1569873304
	.word	-1449906339
	.word	-777
	.word	-27438059
	.word	185142018
	.word	-738641099
	.word	-774
	.word	-1627761523
	.word	652584673
	.word	-998521599
	.word	-770
	.word	-960960080
	.word	1889472666
	.word	899331649
	.word	-767
	.word	-127458276
	.word	-1933126464
	.word	-1023319086
	.word	-764
	.word	-1690274159
	.word	-671333128
	.word	2044780131
	.word	-760
	.word	-1039100874
	.word	1308317238
	.word	-1738992132
	.word	-757
	.word	-225134269
	.word	-512087100
	.word	1047485307
	.word	-754
	.word	-1751321654
	.word	1827429210
	.word	-1492805332
	.word	-750
	.word	-1115410243
	.word	136802865
	.word	1355218808
	.word	-747
	.word	-320520980
	.word	1244745405
	.word	-1527201962
	.word	-744
	.word	-1810938349
	.word	-1369517770
	.word	-2028243051
	.word	-740
	.word	-1189931112
	.word	-1711897212
	.word	685921659
	.word	-737
	.word	-413672066
	.word	-1066129691
	.word	857402074
	.word	-734
	.word	-1869157777
	.word	944281679
	.word	1072747208
	.word	-730
	.word	-1262705397
	.word	106610275
	.word	267192186
	.word	-727
	.word	-504639923
	.word	-940478981
	.word	-739751591
	.word	-724
	.word	-1926012688
	.word	-1661541187
	.word	1685138903
	.word	-720
	.word	-1333774036
	.word	-1003184660
	.word	-1114801843
	.word	-717
	.word	-593475721
	.word	-180239001
	.word	-319760480
	.word	-714
	.word	-1981535062
	.word	-112649376
	.word	-199850300
	.word	-710
	.word	-1403177003
	.word	-1214553543
	.word	823928949
	.word	-707
	.word	-680229429
	.word	629291719
	.word	2103653011
	.word	-704
	.word	-2035756130
	.word	-143563588
	.word	-1369571428
	.word	-700
	.word	-1470953338
	.word	-1253196309
	.word	-638222461
	.word	-697
	.word	-764949848
	.word	1654730086
	.word	-797778077
	.word	-694
	.word	-2088706391
	.word	1034206304
	.word	1112001438
	.word	-690
	.word	-1537141165
	.word	-1928467592
	.word	1390001797
	.word	-687
	.word	-847684632
	.word	1884382806
	.word	1737502247
	.word	-684
	.word	-2140415631
	.word	1177739254
	.word	12197080
	.word	-680
	.word	-1601777715
	.word	-1749051405
	.word	-2132237298
	.word	-677
	.word	-928480320
	.word	-38830608
	.word	1629670674
	.word	-674
	.word	-86858575
	.word	1025203564
	.word	2037088343
	.word	-671
	.word	-1664899346
	.word	-969860509
	.word	-874303434
	.word	-667
	.word	-1007382358
	.word	2008899836
	.word	-1092879292
	.word	-664
	.word	-185486123
	.word	363641147
	.word	-292357291
	.word	-661
	.word	-1726541563
	.word	764146629
	.word	1964760341
	.word	-657
	.word	-1084435130
	.word	2028925110
	.word	-765275046
	.word	-654
	.word	-281802088
	.word	388672740
	.word	-2030335631
	.word	-651
	.word	-1786739041
	.word	242920462
	.word	-732088858
	.word	-647
	.word	-1159681978
	.word	-770091246
	.word	-1988852896
	.word	-644
	.word	-375860648
	.word	-2036355881
	.word	735159352
	.word	-641
	.word	-1845525641
	.word	1411632134
	.word	2070087331
	.word	-637
	.word	-1233165227
	.word	690798344
	.word	440125516
	.word	-634
	.word	-467714710
	.word	1937239754
	.word	550156895
	.word	-631
	.word	-1902934430
	.word	-2010450626
	.word	1417589883
	.word	-627
	.word	-1304926213
	.word	708162189
	.word	-375496294
	.word	-624
	.word	-557415943
	.word	-188539087
	.word	1678113280
	.word	-621
	.word	-1958997700
	.word	955904894
	.word	-561791936
	.word	-617
	.word	-1375005301
	.word	1194881118
	.word	-1775981744
	.word	-614
	.word	-645014802
	.word	419859574
	.word	1001248292
	.word	-611
	.word	-2013746988
	.word	-811329591
	.word	-447961641
	.word	-607
	.word	-1443441910
	.word	59579836
	.word	1587531596
	.word	-604
	.word	-730560564
	.word	-2073008853
	.word	1984414496
	.word	-601
	.word	-2067213089
	.word	-758759621
	.word	703388148
	.word	-597
	.word	-1510274537
	.word	-948449527
	.word	-194506639
	.word	-594
	.word	-814101347
	.word	-1185561908
	.word	1904350349
	.word	-591
	.word	-2119426078
	.word	-1814718017
	.word	-957264680
	.word	-587
	.word	-1575540773
	.word	952827951
	.word	-1196580850
	.word	-584
	.word	-895684142
	.word	117293115
	.word	-1495726063
	.word	-581
	.word	-45863354
	.word	-2000867254
	.word	-1869657578
	.word	-578
	.word	-1639277332
	.word	360070702
	.word	-1705406898
	.word	-574
	.word	-975354841
	.word	450088378
	.word	1089466849
	.word	-571
	.word	-145451728
	.word	-511131352
	.word	-785650087
	.word	-568
	.word	-1701520066
	.word	-1930069831
	.word	-2101644040
	.word	-564
	.word	-1053158258
	.word	808638183
	.word	-479571402
	.word	-561
	.word	-242705999
	.word	-1136685919
	.word	-599464253
	.word	-558
	.word	-1762303985
	.word	363313125
	.word	699076666
	.word	-554
	.word	-1129138158
	.word	-619600418
	.word	1947587656
	.word	-551
	.word	-337680873
	.word	-1848242346
	.word	287000923
	.word	-548
	.word	-1821663282
	.word	-1155151467
	.word	-894366247
	.word	-544
	.word	-1203337278
	.word	1777286139
	.word	1029525839
	.word	-541
	.word	-430429773
	.word	74124026
	.word	213165475
	.word	-538
	.word	-1879631345
	.word	-490543396
	.word	1206970245
	.word	-534
	.word	-1275797357
	.word	-613179245
	.word	1508712807
	.word	-531
	.word	-521004872
	.word	-766474056
	.word	812149185
	.word	-528
	.word	-1936240781
	.word	-2089659021
	.word	507593240
	.word	-524
	.word	-1346559152
	.word	1682893519
	.word	-439250274
	.word	-521
	.word	-609457116
	.word	2103616899
	.word	-549062842
	.word	-518
	.word	-1991523434
	.word	-832723086
	.word	1804319372
	.word	-514
	.word	-1415662468
	.word	-2114645681
	.word	107915567
	.word	-511
	.word	-695836261
	.word	-1569565278
	.word	-938847365
	.word	-508
	.word	-2045510399
	.word	1166505349
	.word	-1123650516
	.word	-504
	.word	-1483146175
	.word	-1763093785
	.word	742920504
	.word	-501
	.word	-780190895
	.word	-56383584
	.word	-145091194
	.word	-498
	.word	-2098232045
	.word	1038502084
	.word	-1701294733
	.word	-494
	.word	-1549048232
	.word	224385781
	.word	-1052876592
	.word	-491
	.word	-862568466
	.word	280482227
	.word	831387909
	.word	-488
	.word	-4468759
	.word	-1796880865
	.word	-34506938
	.word	-485
	.word	-1613405711
	.word	-49308717
	.word	-21566837
	.word	-481
	.word	-943015314
	.word	2085847752
	.word	-26958546
	.word	-478
	.word	-105027318
	.word	459826043
	.word	1040043642
	.word	-475
	.word	-1676254810
	.word	1361133101
	.word	113156364
	.word	-471
	.word	-1021576689
	.word	-446067272
	.word	1215187279
	.word	-468
	.word	-203229037
	.word	-557584090
	.word	1518984099
	.word	-465
	.word	-1737630884
	.word	1798993591
	.word	-124376762
	.word	-461
	.word	-1098296781
	.word	-2046225307
	.word	-155470953
	.word	-458
	.word	-299129152
	.word	1737185663
	.word	1953144957
	.word	-455
	.word	-1797568456
	.word	1085741039
	.word	-1463638962
	.word	-451
	.word	-1173218746
	.word	1357176299
	.word	-1829548702
	.word	-448
	.word	-392781609
	.word	-451013274
	.word	2008031418
	.word	-445
	.word	-1856101242
	.word	-281883296
	.word	181277812
	.word	-441
	.word	-1246384728
	.word	-1426095944
	.word	226597266
	.word	-438
	.word	-484239086
	.word	-708878106
	.word	283246582
	.word	-435
	.word	-1913262165
	.word	-979919729
	.word	-896712710
	.word	-431
	.word	-1317835882
	.word	-1224899661
	.word	-1120890888
	.word	-428
	.word	-573553028
	.word	1690100896
	.word	-1401113610
	.word	-425
	.word	-1969083379
	.word	-1091170588
	.word	1808658554
	.word	-421
	.word	-1387612399
	.word	783520413
	.word	-2034144104
	.word	-418
	.word	-660773675
	.word	2053142340
	.word	-395196481
	.word	-415
	.word	-2023596283
	.word	1820084875
	.word	289873111
	.word	-411
	.word	-1455753530
	.word	-946119379
	.word	-711400435
	.word	-408
	.word	-745950088
	.word	2038576249
	.word	1258233104
	.word	-405
	.word	-2076831541
	.word	1274110155
	.word	-824217046
	.word	-401
	.word	-1522297602
	.word	518895870
	.word	-1030271308
	.word	-398
	.word	-829130179
	.word	-1498863810
	.word	1933386338
	.word	-395
	.word	-2128819098
	.word	-2010531705
	.word	134624637
	.word	-391
	.word	-1587282048
	.word	708060840
	.word	-905461028
	.word	-388
	.word	-910360736
	.word	885076050
	.word	-58084461
	.word	-385
	.word	-64209096
	.word	1106345063
	.word	-1146347400
	.word	-382
	.word	-1650743421
	.word	691465664
	.word	-716467125
	.word	-378
	.word	-989687453
	.word	-209409743
	.word	178157918
	.word	-375
	.word	-163367492
	.word	-261762179
	.word	1296439221
	.word	-372
	.word	-1712717418
	.word	373269550
	.word	1347145425
	.word	-368
	.word	-1067154949
	.word	-1680896711
	.word	-463551866
	.word	-365
	.word	-260201862
	.word	-2101120888
	.word	1568043815
	.word	-362
	.word	-1773238900
	.word	-1850071467
	.word	980027384
	.word	-358
	.word	-1142806801
	.word	-1238847510
	.word	-1996191241
	.word	-355
	.word	-354766677
	.word	-1548559387
	.word	725986420
	.word	-352
	.word	-1832341909
	.word	1179634031
	.word	990612425
	.word	-348
	.word	-1216685562
	.word	400800715
	.word	164523707
	.word	-345
	.word	-447115129
	.word	-1646482755
	.word	-868087190
	.word	-342
	.word	-1890059692
	.word	-1029051722
	.word	-1616296318
	.word	-338
	.word	-1288832791
	.word	-212572828
	.word	1200855074
	.word	-335
	.word	-537299164
	.word	1881767613
	.word	1501068843
	.word	-332
	.word	-1946424714
	.word	-971378890
	.word	1475038939
	.word	-328
	.word	-1359289068
	.word	2007001859
	.word	-303684974
	.word	-325
	.word	-625369511
	.word	-1786214972
	.word	-379606218
	.word	-322
	.word	-2001468681
	.word	-42642533
	.word	299617026
	.word	-318
	.word	-1428094027
	.word	-53303167
	.word	-699220542
	.word	-315
	.word	-711375709
	.word	2080854690
	.word	1273457971
	.word	-312
	.word	-2055222554
	.word	763663269
	.word	1869653056
	.word	-308
	.word	-1495286369
	.word	-1192904562
	.word	-884159152
	.word	-305
	.word	-795366137
	.word	-1491130702
	.word	2116026532
	.word	-302
	.word	-2107716572
	.word	-931956689
	.word	-1898708890
	.word	-298
	.word	-1560903891
	.word	-91204037
	.word	1921581184
	.word	-295
	.word	-877388039
	.word	2033478602
	.word	1328234656
	.word	-292
	.word	-22993225
	.word	-679377220
	.word	-487190328
	.word	-289
	.word	-1624983502
	.word	-424610762
	.word	232376957
	.word	-285
	.word	-957487553
	.word	-1604505277
	.word	-1857012452
	.word	-282
	.word	-123117617
	.word	-2005631596
	.word	1973701731
	.word	-279
	.word	-1687561247
	.word	-1253519748
	.word	-913920066
	.word	-275
	.word	-1035709734
	.word	580583963
	.word	-68658259
	.word	-272
	.word	-220895344
	.word	-1421753694
	.word	-85822823
	.word	-269
	.word	-1748672326
	.word	1795758501
	.word	-590510177
	.word	-265
	.word	-1112098583
	.word	97214479
	.word	1409345927
	.word	-262
	.word	-316381405
	.word	1195259923
	.word	687940585
	.word	-259
	.word	-1808351114
	.word	210166539
	.word	-106908046
	.word	-255
	.word	-1186697069
	.word	-1884775474
	.word	-133635058
	.word	-252
	.word	-409629512
	.word	1938997954
	.word	-1240785646
	.word	-249
	.word	-1866631181
	.word	1211873721
	.word	-1312361941
	.word	-245
	.word	-1259547152
	.word	441100328
	.word	507031222
	.word	-242
	.word	-500692116
	.word	551375410
	.word	633789027
	.word	-239
	.word	-1923545309
	.word	-1802874017
	.word	1469859966
	.word	-235
	.word	-1330689812
	.word	2041374775
	.word	763583133
	.word	-232
	.word	-589620441
	.word	-1743248828
	.word	-119262907
	.word	-229
	.word	-1979125512
	.word	-1089530517
	.word	462331595
	.word	-225
	.word	-1400165066
	.word	-288171323
	.word	-495827330
	.word	-222
	.word	-676464508
	.word	-1433955977
	.word	1527699485
	.word	-219
	.word	-2033403054
	.word	-359351574
	.word	-1729542382
	.word	-215
	.word	-1468011993
	.word	-1522931291
	.word	1059297495
	.word	-212
	.word	-761273167
	.word	-1903664114
	.word	-1897103603
	.word	-209
	.word	-2086408466
	.word	-116048247
	.word	424922984
	.word	-205
	.word	-1534268758
	.word	-1218802133
	.word	1604895554
	.word	-202
	.word	-844094123
	.word	1697722806
	.word	932377618
	.word	-199
	.word	-2138171563
	.word	1597947665
	.word	-491005813
	.word	-195
	.word	-1598972630
	.word	-1223790890
	.word	1533726382
	.word	-192
	.word	-924973963
	.word	1691486859
	.word	-230325670
	.word	-189
	.word	-82475630
	.word	-1106866898
	.word	-287907088
	.word	-186
	.word	-1662160005
	.word	-1228662723
	.word	1430670806
	.word	-182
	.word	-1003958182
	.word	-1535828404
	.word	-1432886964
	.word	-179
	.word	-181205903
	.word	1301439967
	.word	-717366881
	.word	-176
	.word	-1723866426
	.word	-797212757
	.word	-448354301
	.word	-172
	.word	-1081091208
	.word	-2070257770
	.word	-560442876
	.word	-169
	.word	-277622186
	.word	-1514080388
	.word	-1774295419
	.word	-166
	.word	-1784126602
	.word	664312493
	.word	-572063725
	.word	-162
	.word	-1156416429
	.word	-1317093031
	.word	1432403992
	.word	-159
	.word	-371778712
	.word	-1646366289
	.word	-1430720482
	.word	-156
	.word	-1842974431
	.word	1655375629
	.word	-894200301
	.word	-152
	.word	-1229976215
	.word	-1152005935
	.word	1029733271
	.word	-149
	.word	-463728444
	.word	707476229
	.word	-1934058883
	.word	-146
	.word	-1900443014
	.word	-1705311005
	.word	2012438670
	.word	-142
	.word	-1301811943
	.word	1089586716
	.word	1441806514
	.word	-139
	.word	-553523105
	.word	-1859242077
	.word	1802258142
	.word	-136
	.word	-1956564677
	.word	-1162026298
	.word	589540427
	.word	-132
	.word	-1371964022
	.word	-1452532873
	.word	-1410558114
	.word	-129
	.word	-641213203
	.word	1405559381
	.word	-1763197643
	.word	-126
	.word	-2011370988
	.word	1415345525
	.word	2119226945
	.word	-122
	.word	-1440471911
	.word	1769181906
	.word	-572191791
	.word	-119
	.word	-726848065
	.word	-1009748089
	.word	-1788981562
	.word	-116
	.word	-2064892777
	.word	-631092556
	.word	-1118113477
	.word	-112
	.word	-1507374147
	.word	-788865695
	.word	-323900022
	.word	-109
	.word	-810475859
	.word	1161401530
	.word	1742608621
	.word	-106
	.word	-2117160148
	.word	1262746868
	.word	-2132095084
	.word	-102
	.word	-1572708361
	.word	1578433585
	.word	-1591377031
	.word	-99
	.word	-892143627
	.word	899300158
	.word	158262360
	.word	-96
	.word	-41437710
	.word	-2097100275
	.word	-1949655698
	.word	-93
	.word	-1636511305
	.word	-1847558584
	.word	2002690660
	.word	-89
	.word	-971897307
	.word	1985519066
	.word	-1791603970
	.word	-86
	.word	-141129810
	.word	-739326639
	.word	981720509
	.word	-83
	.word	-1698818867
	.word	1148533586
	.word	-997037418
	.word	-79
	.word	-1049781760
	.word	-1785558489
	.word	1974928700
	.word	-76
	.word	-238485376
	.word	-1158206287
	.word	1394919051
	.word	-73
	.word	-1759666096
	.word	1960475630
	.word	-738788330
	.word	-69
	.word	-1125840796
	.word	-1844372758
	.word	-1997227236
	.word	-66
	.word	-333559171
	.word	-1231724123
	.word	724691427
	.word	-63
	.word	-1819087218
	.word	-1843569401
	.word	989803054
	.word	-59
	.word	-1200117198
	.word	916763721
	.word	163511993
	.word	-56
	.word	-426404674
	.word	-1001528997
	.word	1278131816
	.word	-53
	.word	-1877115657
	.word	984657113
	.word	261961473
	.word	-49
	.word	-1272652747
	.word	157079567
	.word	1401193665
	.word	-46
	.word	-517074110
	.word	1270091283
	.word	677750258
	.word	-43
	.word	-1933784055
	.word	1867548875
	.word	-113277001
	.word	-39
	.word	-1343488245
	.word	-886789378
	.word	-141596251
	.word	-36
	.word	-605618482
	.word	-1108486722
	.word	-1250737138
	.word	-33
	.word	-1989124287
	.word	917808535
	.word	828902024
	.word	-29
	.word	-1412663535
	.word	-2073964804
	.word	-37614293
	.word	-26
	.word	-692087595
	.word	-444972356
	.word	1026723958
	.word	-23
	.word	-2043167483
	.word	-1351849547
	.word	-1505781175
	.word	-19
	.word	-1480217529
	.word	457671715
	.word	265257180
	.word	-16
	.word	-776530088
	.word	-501652181
	.word	-742170349
	.word	-13
	.word	-2095944041
	.word	-1924145349
	.word	1683627180
	.word	-9
	.word	-1546188227
	.word	1889785610
	.word	1030792151
	.word	-6
	.word	-858993460
	.word	-858993460
	.word	-858993460
	.word	-3
	.word	-2147483648
	.word	0
	.word	0
	.word	1
	.word	-1610612736
	.word	0
	.word	0
	.word	4
	.word	-939524096
	.word	0
	.word	0
	.word	7
	.word	-100663296
	.word	0
	.word	0
	.word	10
	.word	-1673527296
	.word	0
	.word	0
	.word	14
	.word	-1018167296
	.word	0
	.word	0
	.word	17
	.word	-198967296
	.word	0
	.word	0
	.word	20
	.word	-1734967296
	.word	0
	.word	0
	.word	24
	.word	-1094967296
	.word	0
	.word	0
	.word	27
	.word	-294967296
	.word	0
	.word	0
	.word	30
	.word	-1794967296
	.word	0
	.word	0
	.word	34
	.word	-1169967296
	.word	0
	.word	0
	.word	37
	.word	-388717296
	.word	0
	.word	0
	.word	40
	.word	-1853561046
	.word	0
	.word	0
	.word	44
	.word	-1243209484
	.word	-2147483648
	.word	0
	.word	47
	.word	-480270031
	.word	-1610612736
	.word	0
	.word	50
	.word	-1910781505
	.word	67108864
	.word	0
	.word	54
	.word	-1314735058
	.word	-989855744
	.word	0
	.word	57
	.word	-569676998
	.word	1983905792
	.word	0
	.word	60
	.word	-1966660860
	.word	-1981284352
	.word	0
	.word	64
	.word	-1384584251
	.word	-1402863616
	.word	0
	.word	67
	.word	-656988489
	.word	393904128
	.word	0
	.word	70
	.word	-2021230542
	.word	1856802816
	.word	0
	.word	74
	.word	-1452796353
	.word	173519872
	.word	0
	.word	77
	.word	-742253618
	.word	-856841984
	.word	0
	.word	80
	.word	-2074521247
	.word	1075086496
	.word	0
	.word	84
	.word	-1519409735
	.word	-1877367352
	.word	0
	.word	87
	.word	-825520345
	.word	-199225542
	.word	0
	.word	90
	.word	-2126562952
	.word	-124515964
	.word	1073741824
	.word	94
	.word	-1584461865
	.word	918096869
	.word	1342177280
	.word	97
	.word	-906835507
	.word	73879262
	.word	-1543503872
	.word	100
	.word	-59802560
	.word	1166090902
	.word	1291845632
	.word	103
	.word	-1647989336
	.word	728806813
	.word	-266338304
	.word	107
	.word	-986244846
	.word	911008517
	.word	1814560768
	.word	110
	.word	-159064234
	.word	-1008723002
	.word	-953024512
	.word	113
	.word	-1710027882
	.word	980160860
	.word	1014972416
	.word	117
	.word	-1063793029
	.word	-922282573
	.word	1268715520
	.word	120
	.word	-255999462
	.word	-1152853216
	.word	512152576
	.word	123
	.word	-1770612400
	.word	-1257404172
	.word	320095360
	.word	127
	.word	-1139523676
	.word	-498013391
	.word	400119200
	.word	130
	.word	-350662770
	.word	451225085
	.word	1573890824
	.word	133
	.word	-1829776968
	.word	-791726146
	.word	1520552677
	.word	137
	.word	-1213479385
	.word	84084141
	.word	-246792802
	.word	140
	.word	-443107408
	.word	-968636647
	.word	1838992645
	.word	143
	.word	-1887554866
	.word	2078956655
	.word	-461242333
	.word	147
	.word	-1285701758
	.word	451212171
	.word	-576552916
	.word	150
	.word	-533385374
	.word	-1583468434
	.word	-720691145
	.word	153
	.word	-1943978595
	.word	-1526538683
	.word	1160180770
	.word	157
	.word	-1356231419
	.word	239310294
	.word	-1770999509
	.word	160
	.word	-621547450
	.word	1372879692
	.word	1007476086
	.word	163
	.word	-1999079893
	.word	-215692017
	.word	-1517811095
	.word	167
	.word	-1425108042
	.word	-269615021
	.word	-1897263868
	.word	170
	.word	-707643228
	.word	-1410760600
	.word	1923387461
	.word	173
	.word	-2052889754
	.word	-344854463
	.word	1202117163
	.word	177
	.word	-1492370368
	.word	-1504809903
	.word	-1718579018
	.word	180
	.word	-791721136
	.word	-807270555
	.word	-740125
	.word	183
	.word	-2105438446
	.word	-2115156833
	.word	-1074204402
	.word	187
	.word	-1558056233
	.word	577279431
	.word	-1342755502
	.word	190
	.word	-873828468
	.word	-352142535
	.word	-1678444378
	.word	193
	.word	-18543760
	.word	633563656
	.word	49428176
	.word	196
	.word	-1622202586
	.word	395977285
	.word	30892610
	.word	200
	.word	-954011409
	.word	-1652512042
	.word	1112357586
	.word	203
	.word	-118772437
	.word	-2065640053
	.word	-757036665
	.word	206
	.word	-1684845509
	.word	856458615
	.word	1674335732
	.word	210
	.word	-1032315063
	.word	-3168555
	.word	1019177841
	.word	213
	.word	-216652004
	.word	2143522954
	.word	-1947253170
	.word	216
	.word	-1746020239
	.word	-807781802
	.word	-1753904144
	.word	220
	.word	-1108783474
	.word	1137756396
	.word	1028845293
	.word	223
	.word	-312237519
	.word	-725288153
	.word	1286056616
	.word	226
	.word	-1805761185
	.word	620436728
	.word	-1880569175
	.word	230
	.word	-1183459658
	.word	-298195914
	.word	-1276969645
	.word	233
	.word	-405582748
	.word	-1446486716
	.word	1625013416
	.word	236
	.word	-1864101954
	.word	-367183286
	.word	-1131850263
	.word	240
	.word	-1256385618
	.word	-1532720931
	.word	1806412643
	.word	243
	.word	-496740198
	.word	1305324308
	.word	-963209668
	.word	246
	.word	-1921075360
	.word	1889569516
	.word	-65135131
	.word	250
	.word	-1327602376
	.word	-1933005400
	.word	992322911
	.word	253
	.word	-585761146
	.word	-1342514926
	.word	1240403639
	.word	256
	.word	-1976713452
	.word	771540907
	.word	1848994098
	.word	260
	.word	-1397149991
	.word	964426134
	.word	1237500799
	.word	263
	.word	-672695665
	.word	-2015692805
	.word	-600607650
	.word	266
	.word	-2031047527
	.word	-1259808003
	.word	1772103867
	.word	270
	.word	-1465067584
	.word	572723644
	.word	-1006095638
	.word	273
	.word	-757592656
	.word	715904555
	.word	-183877724
	.word	276
	.word	-2084108146
	.word	447440347
	.word	2032560070
	.word	280
	.word	-1531393359
	.word	-1588183214
	.word	1466958264
	.word	283
	.word	-840499874
	.word	162254630
	.word	-313785818
	.word	286
	.word	-2135925158
	.word	-972332680
	.word	1414496600
	.word	290
	.word	-1596164623
	.word	2005809622
	.word	1768120750
	.word	293
	.word	-921463955
	.word	-713963444
	.word	62667289
	.word	296
	.word	-78088119
	.word	1255029343
	.word	78334112
	.word	299
	.word	-1659417811
	.word	-826219397
	.word	1659571556
	.word	303
	.word	-1000530439
	.word	1114709402
	.word	1000722621
	.word	306
	.word	-176921225
	.word	-1827838720
	.word	-896580372
	.word	309
	.word	-1721188502
	.word	-1142399200
	.word	2123991827
	.word	313
	.word	-1077743803
	.word	1793226472
	.word	-1639977512
	.word	316
	.word	-273437930
	.word	-979692382
	.word	-976230066
	.word	319
	.word	-1781511442
	.word	998304997
	.word	-1147014703
	.word	323
	.word	-1153147479
	.word	-899602401
	.word	713715269
	.word	326
	.word	-367692524
	.word	1022980646
	.word	-181597737
	.word	329
	.word	-1840420564
	.word	-1508120744
	.word	1497114150
	.word	333
	.word	-1226783881
	.word	-811409106
	.word	1871392688
	.word	336
	.word	-459738027
	.word	-1014261382
	.word	191757212
	.word	339
	.word	-1897949003
	.word	-1707655188
	.word	1193590081
	.word	343
	.word	-1298694429
	.word	12914663
	.word	1491987601
	.word	346
	.word	-549626213
	.word	-1057598495
	.word	791242678
	.word	349
	.word	-1954129119
	.word	1486484588
	.word	-1116086062
	.word	353
	.word	-1368919575
	.word	-1363119737
	.word	-321365754
	.word	356
	.word	-637407644
	.word	443583977
	.word	-401707192
	.word	359
	.word	-2008992514
	.word	-1870243662
	.word	822674829
	.word	363
	.word	-1437498818
	.word	883420894
	.word	-1119140112
	.word	366
	.word	-723131699
	.word	-1043207530
	.word	1822300332
	.word	369
	.word	-2062570048
	.word	-1725746530
	.word	65195883
	.word	373
	.word	-1504470736
	.word	-1083441339
	.word	-2065988794
	.word	376
	.word	-806846596
	.word	-280559850
	.word	-435002344
	.word	379
	.word	-2114891858
	.word	361521006
	.word	1338736271
	.word	383
	.word	-1569872999
	.word	-1695582391
	.word	-474063309
	.word	386
	.word	-888599424
	.word	28005660
	.word	1554904511
	.word	389
	.word	-37007456
	.word	35007075
	.word	1943630639
	.word	392
	.word	-1633742396
	.word	21879422
	.word	677898237
	.word	396
	.word	-968436171
	.word	27349277
	.word	-1300110851
	.word	399
	.word	-136803390
	.word	1107928421
	.word	522345084
	.word	402
	.word	-1696114855
	.word	1766197087
	.word	863336589
	.word	406
	.word	-1046401745
	.word	-1013479113
	.word	5428913
	.word	409
	.word	-234260357
	.word	-1266848892
	.word	-1066955683
	.word	412
	.word	-1757025459
	.word	1355703090
	.word	-129976390
	.word	416
	.word	-1122540000
	.word	-1526596609
	.word	-1236212311
	.word	419
	.word	-329433176
	.word	-834503937
	.word	-1545265389
	.word	422
	.word	-1816508471
	.word	-2132177697
	.word	-965790868
	.word	426
	.word	-1196893765
	.word	-517738473
	.word	-1207238585
	.word	429
	.word	-422375382
	.word	-647173091
	.word	-1509048231
	.word	432
	.word	-1874597350
	.word	-941354094
	.word	-2016896969
	.word	436
	.word	-1269504863
	.word	2044532855
	.word	700104261
	.word	439
	.word	-513139255
	.word	-665559404
	.word	-198611498
	.word	442
	.word	-1931324770
	.word	657767197
	.word	412738726
	.word	446
	.word	-1340414139
	.word	-1325274652
	.word	1589665231
	.word	449
	.word	-601775849
	.word	490890333
	.word	1987081539
	.word	452
	.word	-1986722642
	.word	1917419194
	.word	1778796874
	.word	456
	.word	-1409661478
	.word	249290345
	.word	76012445
	.word	459
	.word	-688335024
	.word	-1835870717
	.word	1168757380
	.word	462
	.word	-2040822126
	.word	1536935362
	.word	193602450
	.word	466
	.word	-1477285834
	.word	-226314446
	.word	-1905480585
	.word	469
	.word	-772865468
	.word	-1356634881
	.word	839374741
	.word	472
	.word	-2093653654
	.word	-311025889
	.word	2135221949
	.word	476
	.word	-1543325243
	.word	-1462524185
	.word	1595285612
	.word	479
	.word	-855414729
	.word	319328417
	.word	920365191
	.word	482
	.word	-2145246942
	.word	1810192996
	.word	-1035384492
	.word	486
	.word	-1607816853
	.word	115257597
	.word	-220488790
	.word	489
	.word	-936029243
	.word	-929669827
	.word	1871872660
	.word	492
	.word	-96294729
	.word	985396364
	.word	-881384647
	.word	495
	.word	-1670796942
	.word	-2068481833
	.word	-13994492
	.word	499
	.word	-1014754353
	.word	635623181
	.word	-17493115
	.word	502
	.word	-194701118
	.word	-279212847
	.word	2125617254
	.word	505
	.word	-1732300935
	.word	-711378942
	.word	-282101953
	.word	509
	.word	-1091634344
	.word	1258259971
	.word	-1426369265
	.word	512
	.word	-290801106
	.word	1572824964
	.word	-1782961581
	.word	515
	.word	-1792363428
	.word	-90726222
	.word	-577480076
	.word	519
	.word	-1166712460
	.word	960334047
	.word	-1795591919
	.word	522
	.word	-384648751
	.word	1200417559
	.word	2050477398
	.word	525
	.word	-1851018206
	.word	-860351762
	.word	-1402806187
	.word	529
	.word	-1240030933
	.word	2145785770
	.word	1467717739
	.word	532
	.word	-476296842
	.word	1608490388
	.word	-312836475
	.word	535
	.word	-1908298263
	.word	-68435331
	.word	341348115
	.word	539
	.word	-1311631004
	.word	2061939484
	.word	1500426968
	.word	542
	.word	-565796931
	.word	-1717542941
	.word	1875533710
	.word	545
	.word	-1964235818
	.word	-2147206162
	.word	635337657
	.word	549
	.word	-1381552948
	.word	537217769
	.word	-1353311577
	.word	552
	.word	-653199361
	.word	671522212
	.word	455844177
	.word	555
	.word	-2018862337
	.word	2030314118
	.word	-1862581038
	.word	559
	.word	-1449836097
	.word	1464150824
	.word	892999175
	.word	562
	.word	-738553297
	.word	756446706
	.word	1116248969
	.word	565
	.word	-2072208547
	.word	2083391927
	.word	1771397429
	.word	569
	.word	-1516518860
	.word	-616985563
	.word	1140504963
	.word	572
	.word	-821906750
	.word	302509870
	.word	-1795594268
	.word	575
	.word	-2124304455
	.word	1262810493
	.word	488366318
	.word	579
	.word	-1581638745
	.word	-1642712356
	.word	1684199722
	.word	582
	.word	-903306607
	.word	-2053390445
	.word	2105249653
	.word	585
	.word	-55391435
	.word	-419254408
	.word	1557820242
	.word	588
	.word	-1645232383
	.word	-1335775829
	.word	973637651
	.word	592
	.word	-982798654
	.word	477763862
	.word	143305240
	.word	595
	.word	-154756494
	.word	-1550278821
	.word	-1968352098
	.word	598
	.word	-1707335545
	.word	-1505795175
	.word	917263586
	.word	602
	.word	-1060427607
	.word	-1882243969
	.word	-2074645989
	.word	605
	.word	-251792685
	.word	-205321313
	.word	1701659810
	.word	608
	.word	-1767983164
	.word	2019157827
	.word	-1620817179
	.word	612
	.word	-1136237131
	.word	-1771020012
	.word	-2026021473
	.word	615
	.word	-346554590
	.word	-66291367
	.word	-1458785018
	.word	618
	.word	-1827209355
	.word	-578303016
	.word	162001188
	.word	622
	.word	-1210269869
	.word	1424604878
	.word	202501485
	.word	625
	.word	-439095512
	.word	707014273
	.word	-1894356792
	.word	628
	.word	-1885047431
	.word	441883920
	.word	-110231171
	.word	632
	.word	-1282567465
	.word	1626096725
	.word	935952860
	.word	635
	.word	-529467507
	.word	958879082
	.word	-2051284397
	.word	638
	.word	-1941529928
	.word	1136170338
	.word	-1818923660
	.word	642
	.word	-1353170586
	.word	1420212923
	.word	947570897
	.word	645
	.word	-617721409
	.word	-372217494
	.word	110721797
	.word	648
	.word	-1996688617
	.word	-232635934
	.word	1142942947
	.word	652
	.word	-1422118947
	.word	-290794918
	.word	-718804964
	.word	655
	.word	-703906859
	.word	1783990001
	.word	-1972248029
	.word	658
	.word	-2050554523
	.word	1651864662
	.word	-158913194
	.word	662
	.word	-1489451330
	.word	-1156394644
	.word	-1272383316
	.word	665
	.word	-788072338
	.word	1775732167
	.word	-516737321
	.word	668
	.word	-2103157947
	.word	36090780
	.word	-322960826
	.word	672
	.word	-1555205610
	.word	1118855300
	.word	670040791
	.word	675
	.word	-870265189
	.word	-748914523
	.word	837550989
	.word	678
	.word	-14089662
	.word	-936143154
	.word	2120680561
	.word	681
	.word	-1619418775
	.word	-1121960383
	.word	251683526
	.word	685
	.word	-950531644
	.word	745033169
	.word	1388346232
	.word	688
	.word	-114422731
	.word	931291461
	.word	-1485792682
	.word	691
	.word	-1682126943
	.word	1118928075
	.word	-2002362250
	.word	695
	.word	-1028916855
	.word	-1822565378
	.word	1792014483
	.word	698
	.word	-212404245
	.word	-130723074
	.word	92534456
	.word	701
	.word	-1743365389
	.word	2065781726
	.word	-1015907789
	.word	705
	.word	-1105464912
	.word	1508485334
	.word	1951340736
	.word	708
	.word	-308089316
	.word	1885606668
	.word	291692272
	.word	711
	.word	-1803168559
	.word	-968979481
	.word	-1965175978
	.word	715
	.word	-1180218874
	.word	936259297
	.word	1838497323
	.word	718
	.word	-401531769
	.word	-977159527
	.word	-923103818
	.word	721
	.word	-1861570092
	.word	-610724704
	.word	496801938
	.word	725
	.word	-1253220790
	.word	310335944
	.word	621002422
	.word	728
	.word	-492784164
	.word	-1759563718
	.word	776253028
	.word	731
	.word	-1918602839
	.word	-562856412
	.word	1558899966
	.word	735
	.word	-1324511724
	.word	1443913133
	.word	1948624958
	.word	738
	.word	-581897831
	.word	1804891416
	.word	-785444274
	.word	741
	.word	-1974298881
	.word	-482555601
	.word	-2101515408
	.word	745
	.word	-1394131777
	.word	-603194501
	.word	1668073037
	.word	748
	.word	-668922897
	.word	-753993126
	.word	1011349472
	.word	751
	.word	-2028689547
	.word	-471245704
	.word	1705835244
	.word	755
	.word	-1462120109
	.word	1558426518
	.word	2132294055
	.word	758
	.word	-753908312
	.word	874291324
	.word	517883921
	.word	761
	.word	-2081805431
	.word	546432077
	.word	-1823806198
	.word	765
	.word	-1528514965
	.word	1756781920
	.word	-132274099
	.word	768
	.word	-836901882
	.word	1122235577
	.word	908399200
	.word	771
	.word	-2133676413
	.word	-372344589
	.word	-1042863236
	.word	775
	.word	-1593353692
	.word	-465430736
	.word	-1303579045
	.word	778
	.word	-917950290
	.word	491953404
	.word	-555731982
	.word	781
	.word	-73696039
	.word	-1532541892
	.word	379076847
	.word	784
	.word	-1656672760
	.word	115903141
	.word	-1910560619
	.word	788
	.word	-997099126
	.word	144878926
	.word	-240717126
	.word	791
	.word	-172632084
	.word	-1966384990
	.word	-1374638231
	.word	794
	.word	-1718507789
	.word	-692119707
	.word	-1396019807
	.word	798
	.word	-1074392912
	.word	-865149633
	.word	402458890
	.word	801
	.word	-269249316
	.word	-7695218
	.word	-570668212
	.word	804
	.word	-1778893558
	.word	532061401
	.word	1253945104
	.word	808
	.word	-1149875124
	.word	-1482406897
	.word	-1653794092
	.word	811
	.word	-363602081
	.word	-779266797
	.word	-2067242615
	.word	814
	.word	-1837864037
	.word	-487041748
	.word	855457013
	.word	818
	.word	-1223588222
	.word	-608802185
	.word	1069321267
	.word	821
	.word	-455743453
	.word	-1834744555
	.word	262909759
	.word	824
	.word	-1895452394
	.word	1000768301
	.word	701189511
	.word	828
	.word	-1295573669
	.word	-896523272
	.word	1950228713
	.word	831
	.word	-545725262
	.word	-1120654090
	.word	-1857181404
	.word	834
	.word	-1951691025
	.word	-1237279718
	.word	449874358
	.word	838
	.word	-1365871957
	.word	-1546599648
	.word	-1585140700
	.word	841
	.word	-633598122
	.word	-1933249560
	.word	-907684051
	.word	844
	.word	-2006611562
	.word	402331761
	.word	2117052028
	.word	848
	.word	-1434522629
	.word	-1644568947
	.word	-574910437
	.word	851
	.word	-719411462
	.word	-2055711183
	.word	1428845602
	.word	854
	.word	-2060244900
	.word	-1821690402
	.word	-717584235
	.word	858
	.word	-1501564301
	.word	-1203371178
	.word	-1970722118
	.word	861
	.word	-803213552
	.word	-1504213972
	.word	757822825
	.word	864
	.word	-2112621206
	.word	1744220827
	.word	-1673844382
	.word	868
	.word	-1567034683
	.word	32792386
	.word	-2092305478
	.word	871
	.word	-885051530
	.word	1114732307
	.word	605843625
	.word	874
	.word	-32572589
	.word	-754068265
	.word	-316437293
	.word	877
	.word	-1630970604
	.word	1676190982
	.word	-197773308
	.word	881
	.word	-964971431
	.word	2095238728
	.word	-1320958459
	.word	884
	.word	-132472465
	.word	-602177062
	.word	-577456250
	.word	887
	.word	-1693408027
	.word	-376360664
	.word	-897781068
	.word	891
	.word	-1043018209
	.word	1677032818
	.word	-48484511
	.word	894
	.word	-230030937
	.word	1022549199
	.word	-1134347463
	.word	897
	.word	-1754382072
	.word	-2045261311
	.word	-708967165
	.word	901
	.word	-1119235766
	.word	-1482834814
	.word	1261274692
	.word	904
	.word	-325302883
	.word	1367681954
	.word	-570890282
	.word	907
	.word	-1813927038
	.word	1391672133
	.word	-893677339
	.word	911
	.word	-1193666974
	.word	-407893481
	.word	1030386975
	.word	914
	.word	-418341893
	.word	-1583608675
	.word	214241895
	.word	917
	.word	-1872076419
	.word	1157728226
	.word	670772096
	.word	921
	.word	-1266353700
	.word	-1774065190
	.word	-1309018528
	.word	924
	.word	-509200301
	.word	-1143839663
	.word	1584952312
	.word	927
	.word	-1928862924
	.word	1432583858
	.word	-620017541
	.word	931
	.word	-1337336831
	.word	1790729823
	.word	-1848763750
	.word	934
	.word	-597929215
	.word	-982813193
	.word	1984012608
	.word	937
	.word	-1984318495
	.word	459483578
	.word	-1444346680
	.word	941
	.word	-1406656295
	.word	1648096297
	.word	1415792122
	.word	944
	.word	-684578545
	.word	-1161105101
	.word	-1451485319
	.word	947
	.word	-2038474327
	.word	-725690688
	.word	1240305323
	.word	951
	.word	-1474351084
	.word	1240370288
	.word	1550381654
	.word	954
	.word	-769197031
	.word	1550462860
	.word	1937977068
	.word	957
	.word	-2091360881
	.word	-641573449
	.word	-936247981
	.word	961
	.word	-1540459277
	.word	-801966811
	.word	-1170309976
	.word	964
	.word	-851832272
	.word	-1002458513
	.word	684596178
	.word	967
	.word	-2143007906
	.word	2057817989
	.word	2038485347
	.word	971
	.word	-1605018058
	.word	424788838
	.word	-673118788
	.word	974
	.word	-932530749
	.word	-1616497600
	.word	-1915140309
	.word	977
	.word	-91921612
	.word	-2020622000
	.word	-1320183562
	.word	980
	.word	-1668063744
	.word	-726017838
	.word	1859239834
	.word	984
	.word	-1011337855
	.word	166219527
	.word	176566144
	.word	987
	.word	-190430495
	.word	1281516232
	.word	-853034143
	.word	990
	.word	-1729631796
	.word	-809665091
	.word	-2143759076
	.word	994
	.word	-1088297920
	.word	61660460
	.word	-532215197
	.word	997
	.word	-286630576
	.word	77075576
	.word	408472828
	.word	1000
	.word	-1789756846
	.word	48172235
	.word	255295518
	.word	1004
	.word	-1163454234
	.word	-2087268355
	.word	-754622427
	.word	1007
	.word	-380575968
	.word	612140029
	.word	1204205614
	.word	1010
	.word	-1848472716
	.word	382587518
	.word	1289499421
	.word	1014
	.word	-1236849071
	.word	478234397
	.word	-535609372
	.word	1017
	.word	-472319515
	.word	1671534821
	.word	1477971933
	.word	1020
	.word	-1905812433
	.word	1581580175
	.word	1460603370
	.word	1024
	.word	-1308523717
	.word	903233395
	.word	752012389
	.word	1027
	.word	-561912822
	.word	55299919
	.word	-133726338
	.word	1030
	.word	-1961808250
	.word	1108304273
	.word	-83578961
	.word	1034
	.word	-1378518489
	.word	-762103306
	.word	2043009946
	.word	1037
	.word	-649406287
	.word	-952629132
	.word	406278785
	.word	1040
	.word	-2016491665
	.word	478348616
	.word	-1893559407
	.word	1044
	.word	-1446872758
	.word	-475806054
	.word	-1293207435
	.word	1047
	.word	-734849123
	.word	-1668499391
	.word	1604716178
	.word	1050
	.word	-2069893438
	.word	-2116553944
	.word	-607665125
	.word	1054
	.word	-1513624973
	.word	575533043
	.word	314160418
	.word	1057
	.word	-818289393
	.word	-354325521
	.word	-681041301
	.word	1060
	.word	-2122043607
	.word	-221453451
	.word	-425650813
	.word	1064
	.word	-1578812684
	.word	1870666835
	.word	1615420131
	.word	1067
	.word	-899774031
	.word	-1956633752
	.word	945533340
	.word	1070
	.word	-50975715
	.word	-298308542
	.word	1181916675
	.word	1073
	.word	-1642472558
	.word	-1260184663
	.word	1812439746
	.word	1077
	.section	.sdata,"aw"
	.align	3
	.type	dtoa_divmax, @object
	.size	dtoa_divmax, 4
dtoa_divmax:
	.word	2
	.zero	4
	.type	pmem_next, @object
	.size	pmem_next, 8
pmem_next:
	.dword	private_mem
	.text
.Letext0:
	.file 2 "/home/sai/Shakti-TEE-Build/riscv/lib/gcc/riscv64-unknown-elf/9.2.0/include/stddef.h"
	.file 3 "/home/sai/Shakti-TEE-Build/riscv/riscv64-unknown-elf/include/sys/_types.h"
	.file 4 "/home/sai/Shakti-TEE-Build/riscv/riscv64-unknown-elf/include/sys/reent.h"
	.file 5 "/home/sai/Shakti-TEE-Build/riscv/riscv64-unknown-elf/include/sys/lock.h"
	.file 6 "/home/sai/ocaml-freestanding-riscv/nolibc/include/errno.h"
	.file 7 "/home/sai/ocaml-freestanding-riscv/nolibc/include/stdlib.h"
	.file 8 "<built-in>"