	.file	"strrchr.c"
	.option nopic
	.attribute arch, "rv64i2p0_m2p0_a2p0_f2p0_d2p0_c2p0"
	.attribute unaligned_access, 0
	.attribute stack_align, 16
	.text
.Ltext0:
	.cfi_sections	.debug_frame
	.align	1
	.globl	strrchr
	.type	strrchr, @function
strrchr:
.LFB0:
	.file 1 "strrchr.c"
	.loc 1 18 1
	.cfi_startproc
.LVL0:
	addi	sp,sp,-32
	.cfi_def_cfa_offset 32
	sd	ra,24(sp)
	sd	s0,16(sp)
	sd	s1,8(sp)
	sd	s2,0(sp)
	.cfi_offset 1, -8
	.cfi_offset 8, -16
	.cfi_offset 9, -24
	.cfi_offset 18, -32
	mv	s0,a0
	.loc 1 19 3
	.loc 1 20 3
	andi	s1,a1,0xff
.LVL1:
	.loc 1 22 3
	.loc 1 22 6 is_stmt 0
	beq	s1,zero,.L7
	.loc 1 24 9
	li	s2,0
.LVL2:
.L2:
	.loc 1 25 9 is_stmt 1
	.loc 1 25 15 is_stmt 0
	mv	a1,s1
	mv	a0,s0
	call	strchr
.LVL3:
	.loc 1 25 9
	beq	a0,zero,.L1
	.loc 1 27 7 is_stmt 1
.LVL4:
	.loc 1 28 7
	.loc 1 28 9 is_stmt 0
	addi	s0,a0,1
.LVL5:
	.loc 1 27 13
	mv	s2,a0
	j	.L2
.LVL6:
.L7:
	.loc 1 23 5 is_stmt 1
	.loc 1 23 12 is_stmt 0
	call	strlen
.LVL7:
	add	s2,s0,a0
.L1:
	.loc 1 31 1
	mv	a0,s2
	ld	ra,24(sp)
	.cfi_restore 1
	ld	s0,16(sp)
	.cfi_restore 8
.LVL8:
	ld	s1,8(sp)
	.cfi_restore 9
.LVL9:
	ld	s2,0(sp)
	.cfi_restore 18
	addi	sp,sp,32
	.cfi_def_cfa_offset 0
	jr	ra
	.cfi_endproc
.LFE0:
	.size	strrchr, .-strrchr
.Letext0:
	.file 2 "/home/sai/ocaml-freestanding-riscv/nolibc/include/string.h"
	.file 3 "<built-in>"