	.file	"vfprintf.c"
	.option nopic
	.attribute arch, "rv64i2p0_m2p0_a2p0_f2p0_d2p0_c2p0"
	.attribute unaligned_access, 0
	.attribute stack_align, 16
	.text
.Ltext0:
	.cfi_sections	.debug_frame
	.globl	__extenddftf2
	.align	1
	.type	pop_arg, @function
pop_arg:
.LFB0:
	.file 1 "vfprintf.c"
	.loc 1 129 1
	.cfi_startproc
.LVL0:
	.loc 1 131 2
	.loc 1 131 6 is_stmt 0
	sext.w	a4,a1
	.loc 1 131 5
	li	a5,28
	bgtu	a4,a5,.L23
	.loc 1 129 1
	addi	sp,sp,-16
	.cfi_def_cfa_offset 16
	sd	ra,8(sp)
	sd	s0,0(sp)
	.cfi_offset 1, -8
	.cfi_offset 8, -16
	mv	s0,a0
	.loc 1 132 2 is_stmt 1
	addiw	a1,a1,-9
.LVL1:
	sext.w	a4,a1
	li	a5,17
	bgtu	a4,a5,.L1
	slli	a1,a1,32
.LVL2:
	srli	a1,a1,32
	slli	a1,a1,2
	lla	a4,.L4
.LVL3:
	add	a1,a1,a4
	lw	a5,0(a1)
	add	a5,a5,a4
	jr	a5
	.section	.rodata
	.align	2
	.align	2
.L4:
	.word	.L21-.L4
	.word	.L20-.L4
	.word	.L19-.L4
	.word	.L18-.L4
	.word	.L17-.L4
	.word	.L16-.L4
	.word	.L15-.L4
	.word	.L14-.L4
	.word	.L13-.L4
	.word	.L12-.L4
	.word	.L11-.L4
	.word	.L10-.L4
	.word	.L9-.L4
	.word	.L8-.L4
	.word	.L7-.L4
	.word	.L6-.L4
	.word	.L5-.L4
	.word	.L3-.L4
	.text
.L21:
	.loc 1 133 19
	.loc 1 133 28 is_stmt 0
	ld	a5,0(a2)
	addi	a4,a5,8
	sd	a4,0(a2)
	ld	a5,0(a5)
	.loc 1 133 26
	sd	a5,0(a0)
	.loc 1 134 2 is_stmt 1
.LVL4:
.L1:
	.loc 1 156 1 is_stmt 0
	ld	ra,8(sp)
	.cfi_remember_state
	.cfi_restore 1
	ld	s0,0(sp)
	.cfi_restore 8
.LVL5:
	addi	sp,sp,16
	.cfi_def_cfa_offset 0
	jr	ra
.LVL6:
.L20:
	.cfi_restore_state
	.loc 1 134 19 is_stmt 1
	.loc 1 134 28 is_stmt 0
	ld	a5,0(a2)
	addi	a4,a5,8
	sd	a4,0(a2)
	lw	a5,0(a5)
	.loc 1 134 26
	sd	a5,0(a0)
	.loc 1 135 2 is_stmt 1
	j	.L1
.L19:
	.loc 1 135 20
	.loc 1 135 29 is_stmt 0
	ld	a5,0(a2)
	addi	a4,a5,8
	sd	a4,0(a2)
	lwu	a5,0(a5)
	.loc 1 135 27
	sd	a5,0(a0)
	.loc 1 137 2 is_stmt 1
	j	.L1
.L17:
	.loc 1 137 20
	.loc 1 137 29 is_stmt 0
	ld	a5,0(a2)
	addi	a4,a5,8
	sd	a4,0(a2)
	ld	a5,0(a5)
	.loc 1 137 27
	sd	a5,0(a0)
	.loc 1 138 2 is_stmt 1
	j	.L1
.L16:
	.loc 1 138 21
	.loc 1 138 30 is_stmt 0
	ld	a5,0(a2)
	addi	a4,a5,8
	sd	a4,0(a2)
	ld	a5,0(a5)
	.loc 1 138 28
	sd	a5,0(a0)
	.loc 1 140 2 is_stmt 1
	j	.L1
.L18:
	.loc 1 140 22
	.loc 1 140 31 is_stmt 0
	ld	a5,0(a2)
	addi	a4,a5,8
	sd	a4,0(a2)
	ld	a5,0(a5)
	.loc 1 140 29
	sd	a5,0(a0)
	.loc 1 141 2 is_stmt 1
	j	.L1
.L15:
	.loc 1 141 21
	.loc 1 141 37 is_stmt 0
	ld	a5,0(a2)
	addi	a4,a5,8
	sd	a4,0(a2)
	.loc 1 141 30
	lh	a5,0(a5)
	.loc 1 141 28
	sd	a5,0(a0)
	.loc 1 142 2 is_stmt 1
	j	.L1
.L14:
	.loc 1 142 22
	.loc 1 142 47 is_stmt 0
	ld	a5,0(a2)
	addi	a4,a5,8
	sd	a4,0(a2)
	.loc 1 142 31
	lhu	a5,0(a5)
	.loc 1 142 29
	sd	a5,0(a0)
	.loc 1 143 2 is_stmt 1
	j	.L1
.L13:
	.loc 1 143 20
	.loc 1 143 42 is_stmt 0
	ld	a5,0(a2)
	addi	a4,a5,8
	sd	a4,0(a2)
	.loc 1 143 29
	lb	a5,0(a5)
	.loc 1 143 27
	sd	a5,0(a0)
	.loc 1 144 2 is_stmt 1
	j	.L1
.L12:
	.loc 1 144 21
	.loc 1 144 45 is_stmt 0
	ld	a5,0(a2)
	addi	a4,a5,8
	sd	a4,0(a2)
	.loc 1 144 30
	lbu	a5,0(a5)
	.loc 1 144 28
	sd	a5,0(a0)
	.loc 1 146 2 is_stmt 1
	j	.L1
.L11:
	.loc 1 146 21
	.loc 1 146 30 is_stmt 0
	ld	a5,0(a2)
	addi	a4,a5,8
	sd	a4,0(a2)
	ld	a5,0(a5)
	.loc 1 146 28
	sd	a5,0(a0)
	.loc 1 147 2 is_stmt 1
	j	.L1
.L10:
	.loc 1 147 21
	.loc 1 147 30 is_stmt 0
	ld	a5,0(a2)
	addi	a4,a5,8
	sd	a4,0(a2)
	ld	a5,0(a5)
	.loc 1 147 28
	sd	a5,0(a0)
	.loc 1 148 2 is_stmt 1
	j	.L1
.L9:
	.loc 1 148 20
	.loc 1 148 29 is_stmt 0
	ld	a5,0(a2)
	addi	a4,a5,8
	sd	a4,0(a2)
	ld	a5,0(a5)
	.loc 1 148 27
	sd	a5,0(a0)
	.loc 1 149 2 is_stmt 1
	j	.L1
.L8:
	.loc 1 149 20
	.loc 1 149 29 is_stmt 0
	ld	a5,0(a2)
	addi	a4,a5,8
	sd	a4,0(a2)
	ld	a5,0(a5)
	.loc 1 149 27
	sd	a5,0(a0)
	.loc 1 150 2 is_stmt 1
	j	.L1
.L7:
	.loc 1 150 21
	.loc 1 150 30 is_stmt 0
	ld	a5,0(a2)
	addi	a4,a5,8
	sd	a4,0(a2)
	ld	a5,0(a5)
	.loc 1 150 28
	sd	a5,0(a0)
	.loc 1 151 2 is_stmt 1
	j	.L1
.L6:
	.loc 1 151 21
	.loc 1 151 41 is_stmt 0
	ld	a5,0(a2)
	addi	a4,a5,8
	sd	a4,0(a2)
	ld	a5,0(a5)
	.loc 1 151 28
	sd	a5,0(a0)
	.loc 1 153 2 is_stmt 1
	j	.L1
.L5:
	.loc 1 153 19
	.loc 1 153 28 is_stmt 0
	ld	a5,0(a2)
	addi	a4,a5,8
	sd	a4,0(a2)
	fld	fa0,0(a5)
	call	__extenddftf2
.LVL7:
	.loc 1 153 26
	sd	a0,0(s0)
	sd	a1,8(s0)
	.loc 1 154 2 is_stmt 1
	j	.L1
.LVL8:
.L3:
	.loc 1 154 20
	.loc 1 154 29 is_stmt 0
	ld	a5,0(a2)
	addi	a5,a5,15
	andi	a5,a5,-16
	addi	a4,a5,16
	sd	a4,0(a2)
	ld	a4,0(a5)
	ld	a5,8(a5)
	.loc 1 154 27
	sd	a4,0(a0)
	sd	a5,8(a0)
	j	.L1
.LVL9:
.L23:
	.cfi_def_cfa_offset 0
	.cfi_restore 1
	.cfi_restore 8
	ret
	.cfi_endproc
.LFE0:
	.size	pop_arg, .-pop_arg
	.align	1
	.type	out, @function
out:
.LFB1:
	.loc 1 159 1 is_stmt 1
	.cfi_startproc
.LVL10:
	addi	sp,sp,-16
	.cfi_def_cfa_offset 16
	sd	ra,8(sp)
	.cfi_offset 1, -8
	.loc 1 160 2
	.loc 1 160 3 is_stmt 0
	ld	a5,0(a0)
	.loc 1 160 2
	jalr	a5
.LVL11:
	.loc 1 161 1
	ld	ra,8(sp)
	.cfi_restore 1
	addi	sp,sp,16
	.cfi_def_cfa_offset 0
	jr	ra
	.cfi_endproc
.LFE1:
	.size	out, .-out
	.align	1
	.type	fmt_x, @function
fmt_x:
.LFB3:
	.loc 1 179 1 is_stmt 1
	.cfi_startproc
.LVL12:
	mv	a5,a0
	mv	a0,a1
.LVL13:
	.loc 1 180 2
.L29:
	.loc 1 180 9 discriminator 1
	.loc 1 180 2 is_stmt 0 discriminator 1
	beq	a5,zero,.L31
	.loc 1 180 19 is_stmt 1 discriminator 2
	.loc 1 180 36 is_stmt 0 discriminator 2
	andi	a3,a5,15
	.loc 1 180 33 discriminator 2
	lla	a4,.LANCHOR0
	add	a4,a4,a3
	lb	a4,0(a4)
	.loc 1 180 24 discriminator 2
	addi	a0,a0,-1
.LVL14:
	.loc 1 180 41 discriminator 2
	or	a4,a4,a2
	.loc 1 180 24 discriminator 2
	sb	a4,0(a0)
	.loc 1 180 12 is_stmt 1 discriminator 2
	.loc 1 180 13 is_stmt 0 discriminator 2
	srli	a5,a5,4
.LVL15:
	j	.L29
.L31:
	.loc 1 182 1
	ret
	.cfi_endproc
.LFE3:
	.size	fmt_x, .-fmt_x
	.align	1
	.type	fmt_o, @function
fmt_o:
.LFB4:
	.loc 1 185 1 is_stmt 1
	.cfi_startproc
.LVL16:
	mv	a5,a0
	mv	a0,a1
.LVL17:
	.loc 1 186 2
.L33:
	.loc 1 186 9 discriminator 1
	.loc 1 186 2 is_stmt 0 discriminator 1
	beq	a5,zero,.L35
	.loc 1 186 19 is_stmt 1 discriminator 2
	.loc 1 186 34 is_stmt 0 discriminator 2
	andi	a4,a5,7
	.loc 1 186 24 discriminator 2
	addi	a0,a0,-1
.LVL18:
	.loc 1 186 30 discriminator 2
	addi	a4,a4,48
	.loc 1 186 24 discriminator 2
	sb	a4,0(a0)
	.loc 1 186 12 is_stmt 1 discriminator 2
	.loc 1 186 13 is_stmt 0 discriminator 2
	srli	a5,a5,3
.LVL19:
	j	.L33
.L35:
	.loc 1 188 1
	ret
	.cfi_endproc
.LFE4:
	.size	fmt_o, .-fmt_o
	.align	1
	.type	fmt_u, @function
fmt_u:
.LFB5:
	.loc 1 191 1 is_stmt 1
	.cfi_startproc
.LVL20:
	mv	a5,a0
	mv	a0,a1
.LVL21:
	.loc 1 192 2
	.loc 1 193 2
	.loc 1 193 12
	.loc 1 194 2
.L37:
	.loc 1 194 22 discriminator 1
	.loc 1 194 2 is_stmt 0 discriminator 1
	beq	a5,zero,.L39
	.loc 1 194 32 is_stmt 1 discriminator 3
	.loc 1 194 46 is_stmt 0 discriminator 3
	li	a3,10
	remu	a4,a5,a3
	.loc 1 194 37 discriminator 3
	addi	a0,a0,-1
.LVL22:
	.loc 1 194 43 discriminator 3
	addi	a4,a4,48
	.loc 1 194 37 discriminator 3
	sb	a4,0(a0)
	.loc 1 194 25 is_stmt 1 discriminator 3
	.loc 1 194 26 is_stmt 0 discriminator 3
	divu	a5,a5,a3
.LVL23:
	j	.L37
.L39:
	.loc 1 196 1
	ret
	.cfi_endproc
.LFE5:
	.size	fmt_u, .-fmt_u
	.align	1
	.type	getint, @function
getint:
.LFB7:
	.loc 1 438 29 is_stmt 1
	.cfi_startproc
.LVL24:
	mv	a2,a0
	.loc 1 439 2
	.loc 1 440 2
.LVL25:
	.loc 1 440 8 is_stmt 0
	li	a0,0
.LVL26:
.L41:
	.loc 1 440 12 is_stmt 1 discriminator 1
	.loc 1 440 21 is_stmt 0 discriminator 1
	ld	a3,0(a2)
	.loc 1 440 20 discriminator 1
	lbu	a4,0(a3)
	.loc 1 440 12 discriminator 1
	addiw	a1,a4,-48
	.loc 1 440 2 discriminator 1
	li	a5,9
	bgtu	a1,a5,.L43
	.loc 1 441 3 is_stmt 1 discriminator 3
	.loc 1 441 9 is_stmt 0 discriminator 3
	slliw	a5,a0,2
	addw	a5,a5,a0
	slliw	a5,a5,1
	.loc 1 441 18 discriminator 3
	addiw	a4,a4,-48
	.loc 1 441 5 discriminator 3
	addw	a0,a5,a4
.LVL27:
	.loc 1 440 26 is_stmt 1 discriminator 3
	.loc 1 440 30 is_stmt 0 discriminator 3
	addi	a3,a3,1
	sd	a3,0(a2)
	j	.L41
.LVL28:
.L43:
	.loc 1 443 1
	ret
	.cfi_endproc
.LFE7:
	.size	getint, .-getint
	.align	1
	.type	pad, @function
pad:
.LFB2:
	.loc 1 164 1 is_stmt 1
	.cfi_startproc
.LVL29:
	.loc 1 165 2
	.loc 1 166 2
	.loc 1 166 9 is_stmt 0
	li	a5,73728
	and	a4,a4,a5
.LVL30:
	sext.w	a4,a4
	.loc 1 166 5
	bne	a4,zero,.L53
	.loc 1 164 1 discriminator 2
	addi	sp,sp,-288
	.cfi_def_cfa_offset 288
	sd	ra,280(sp)
	sd	s0,272(sp)
	sd	s1,264(sp)
	sd	s2,256(sp)
	.cfi_offset 1, -8
	.cfi_offset 8, -16
	.cfi_offset 9, -24
	.cfi_offset 18, -32
	mv	s2,a0
	.loc 1 166 33 discriminator 2
	bge	a3,a2,.L44
	.loc 1 167 2 is_stmt 1
	.loc 1 167 4 is_stmt 0
	subw	a2,a2,a3
.LVL31:
	sext.w	s1,a2
.LVL32:
	.loc 1 168 2 is_stmt 1
	sext.w	a1,a1
.LVL33:
	.loc 1 168 18 is_stmt 0
	mv	a2,s1
.LVL34:
	.loc 1 168 2
	li	a5,256
	bleu	s1,a5,.L48
	li	a2,256
.L48:
	.loc 1 168 2 discriminator 4
	mv	a0,sp
.LVL35:
	call	memset
.LVL36:
	.loc 1 169 2 is_stmt 1 discriminator 4
	j	.L49
.L50:
	.loc 1 170 3 discriminator 2
	li	a2,256
	mv	a1,sp
	mv	a0,s2
	call	out
.LVL37:
	.loc 1 169 26 discriminator 2
	.loc 1 169 28 is_stmt 0 discriminator 2
	addiw	s1,s0,-256
.LVL38:
.L49:
	.loc 1 169 9 is_stmt 1 discriminator 1
	.loc 1 169 11 is_stmt 0 discriminator 1
	sext.w	s0,s1
	.loc 1 169 2 discriminator 1
	li	a5,255
	bgtu	s0,a5,.L50
	.loc 1 171 2 is_stmt 1
	mv	a2,s1
	mv	a1,sp
	mv	a0,s2
	call	out
.LVL39:
.L44:
	.loc 1 172 1 is_stmt 0
	ld	ra,280(sp)
	.cfi_restore 1
	ld	s0,272(sp)
	.cfi_restore 8
	ld	s1,264(sp)
	.cfi_restore 9
	ld	s2,256(sp)
	.cfi_restore 18
.LVL40:
	addi	sp,sp,288
	.cfi_def_cfa_offset 0
	jr	ra
.LVL41:
.L53:
	ret
	.cfi_endproc
.LFE2:
	.size	pad, .-pad
	.section	.rodata.str1.8,"aMS",@progbits,1
	.align	3
.LC0:
	.string	"-0X+0X 0X-0x+0x 0x"
	.align	3
.LC1:
	.string	"INF"
	.align	3
.LC2:
	.string	"inf"
	.align	3
.LC3:
	.string	"NAN"
	.align	3
.LC4:
	.string	"nan"
	.globl	__unordtf2
	.globl	__gttf2
	.globl	__netf2
	.globl	__trunctfdf2
	.globl	__multf3
	.globl	__subtf3
	.globl	__addtf3
	.globl	__fixtfsi
	.globl	__floatsitf
	.globl	__fixunstfsi
	.globl	__floatunsitf
	.align	3
.LC15:
	.string	"."
	.text
	.align	1
	.type	fmt_fp, @function
fmt_fp:
.LFB6:
	.loc 1 206 1 is_stmt 1
	.cfi_startproc
.LVL42:
	addi	sp,sp,-128
	.cfi_def_cfa_offset 128
	sd	ra,120(sp)
	sd	s0,112(sp)
	sd	s1,104(sp)
	sd	s2,96(sp)
	sd	s3,88(sp)
	sd	s4,80(sp)
	sd	s5,72(sp)
	sd	s6,64(sp)
	sd	s7,56(sp)
	sd	s8,48(sp)
	sd	s9,40(sp)
	sd	s10,32(sp)
	sd	s11,24(sp)
	fsd	fs0,8(sp)
	li	t1,-8192
	addi	t1,t1,704
	add	sp,sp,t1
	.cfi_def_cfa_offset 7616
	.cfi_offset 1, -8
	.cfi_offset 8, -16
	.cfi_offset 9, -24
	.cfi_offset 18, -32
	.cfi_offset 19, -40
	.cfi_offset 20, -48
	.cfi_offset 21, -56
	.cfi_offset 22, -64
	.cfi_offset 23, -72
	.cfi_offset 24, -80
	.cfi_offset 25, -88
	.cfi_offset 26, -96
	.cfi_offset 27, -104
	.cfi_offset 40, -120
	mv	s3,a0
	mv	s7,a1
	mv	s0,a2
	mv	s6,a3
	mv	s2,a4
	mv	s4,a5
	mv	s5,a6
	.loc 1 207 2
	.loc 1 209 2
	.loc 1 210 2
	.loc 1 210 6 is_stmt 0
	li	a5,-8192
.LVL43:
	li	a4,8192
.LVL44:
	addi	a4,a4,-752
	addi	a3,sp,48
.LVL45:
	add	a4,a4,a3
	add	a5,a4,a5
	sd	a5,0(sp)
	sw	zero,820(a5)
	.loc 1 211 2 is_stmt 1
	.loc 1 212 2
.LVL46:
	.loc 1 213 2
	.loc 1 214 2
	.loc 1 216 2
	.loc 1 217 2
	.loc 1 217 5 is_stmt 0
	bge	a2,zero,.L57
	.loc 1 218 3 is_stmt 1
	.loc 1 218 4 is_stmt 0
	li	a5,-1
	slli	a5,a5,63
	xor	s0,a2,a5
.LVL47:
	.loc 1 216 4
	li	s11,1
	.loc 1 212 14
	lla	a5,.LC0
	sd	a5,8(sp)
.LVL48:
.L58:
	.loc 1 225 2 is_stmt 1
	.loc 1 225 7 is_stmt 0
	li	s1,-1
	srli	s1,s1,1
	and	s1,s0,s1
	.loc 1 225 5
	lla	a5,.LC11
	ld	a2,0(a5)
	ld	a3,8(a5)
	mv	a0,s7
.LVL49:
	mv	a1,s1
.LVL50:
	call	__unordtf2
.LVL51:
	bne	a0,zero,.L198
	lla	a5,.LC11
	ld	a2,0(a5)
	ld	a3,8(a5)
	mv	a0,s7
	mv	a1,s1
	call	__gttf2
.LVL52:
	ble	a0,zero,.L201
.L198:
.LBB2:
	.loc 1 226 3 is_stmt 1
	.loc 1 226 15 is_stmt 0
	andi	s5,s5,32
	sext.w	s1,s5
	.loc 1 226 25
	beq	s5,zero,.L173
	lla	s2,.LC2
.L61:
.LVL53:
	.loc 1 227 3 is_stmt 1 discriminator 4
	.loc 1 227 6 is_stmt 0 discriminator 4
	mv	a2,s7
	mv	a3,s0
	mv	a0,s7
	mv	a1,s0
	call	__netf2
.LVL54:
	beq	a0,zero,.L62
	.loc 1 227 13 is_stmt 1 discriminator 1
	.loc 1 227 27 is_stmt 0 discriminator 1
	beq	s1,zero,.L174
	.loc 1 227 27
	lla	s2,.LC4
.LVL55:
.L62:
	.loc 1 228 3 is_stmt 1
	addiw	s0,s11,3
.LVL56:
	sext.w	s1,s0
	li	a4,-65536
	addi	a4,a4,-1
	and	a4,s4,a4
	mv	a3,s1
	mv	a2,s6
	li	a1,32
	mv	a0,s3
	call	pad
.LVL57:
	.loc 1 229 3
	mv	a2,s11
	ld	a1,8(sp)
	mv	a0,s3
	call	out
.LVL58:
	.loc 1 230 3
	li	a2,3
	mv	a1,s2
	mv	a0,s3
	call	out
.LVL59:
	.loc 1 231 3
	.loc 1 231 26 is_stmt 0
	li	a4,8192
	xor	a4,s4,a4
	.loc 1 231 3
	sext.w	a4,a4
	mv	a3,s1
	mv	a2,s6
	li	a1,32
	mv	a0,s3
	call	pad
.LVL60:
	.loc 1 232 3 is_stmt 1
	.loc 1 232 10 is_stmt 0
	mv	a0,s0
	mv	s0,s1
	bge	s1,s6,.L64
	mv	a0,s6
.L64:
	sext.w	a0,a0
.LVL61:
.L65:
.LBE2:
	.loc 1 436 1
	li	t1,8192
	addi	t1,t1,-704
	add	sp,sp,t1
	.cfi_remember_state
	.cfi_def_cfa_offset 128
	ld	ra,120(sp)
	.cfi_restore 1
	ld	s0,112(sp)
	.cfi_restore 8
	ld	s1,104(sp)
	.cfi_restore 9
	ld	s2,96(sp)
	.cfi_restore 18
	ld	s3,88(sp)
	.cfi_restore 19
.LVL62:
	ld	s4,80(sp)
	.cfi_restore 20
	ld	s5,72(sp)
	.cfi_restore 21
	ld	s6,64(sp)
	.cfi_restore 22
	ld	s7,56(sp)
	.cfi_restore 23
	ld	s8,48(sp)
	.cfi_restore 24
	ld	s9,40(sp)
	.cfi_restore 25
	ld	s10,32(sp)
	.cfi_restore 26
	ld	s11,24(sp)
	.cfi_restore 27
	fld	fs0,8(sp)
	.cfi_restore 40
	addi	sp,sp,128
	.cfi_def_cfa_offset 0
	jr	ra
.LVL63:
.L57:
	.cfi_restore_state
	slti	s11,a2,0
	.loc 1 219 9 is_stmt 1
	.loc 1 219 16 is_stmt 0
	sext.w	a4,s4
	li	a5,4096
	addi	a5,a5,-2048
	and	a5,s4,a5
	sext.w	a5,a5
	.loc 1 219 12
	bne	a5,zero,.L171
	.loc 1 221 9 is_stmt 1
	.loc 1 221 16 is_stmt 0
	andi	a4,a4,1
	.loc 1 221 12
	beq	a4,zero,.L172
	.loc 1 216 4
	li	s11,1
	.loc 1 222 9
	lla	a5,.LC0+6
	sd	a5,8(sp)
	j	.L58
.L171:
	.loc 1 216 4
	li	s11,1
	.loc 1 220 9
	lla	a5,.LC0+3
	sd	a5,8(sp)
	j	.L58
.L172:
	.loc 1 223 15
	lla	a5,.LC0+1
	sd	a5,8(sp)
	j	.L58
.LVL64:
.L173:
.LBB3:
	.loc 1 226 25
	lla	s2,.LC1
	j	.L61
.LVL65:
.L174:
	.loc 1 227 27
	lla	s2,.LC3
.LVL66:
	j	.L62
.L201:
.LBE3:
	.loc 1 236 2 is_stmt 1
	.loc 1 236 6 is_stmt 0
	li	s1,-8192
	addi	s1,s1,820
	li	s8,8192
	addi	a5,s8,-752
	addi	a4,sp,48
	add	a5,a5,a4
	add	s1,a5,s1
	mv	a0,s7
	mv	a1,s0
	call	__trunctfdf2
.LVL67:
	mv	a0,s1
	call	frexp
.LVL68:
	.loc 1 236 28
	fadd.d	fs0,fa0,fa0
	.loc 1 236 4
	fmv.d	fa0,fs0
	call	__extenddftf2
.LVL69:
	mv	s0,a0
.LVL70:
	mv	s9,a1
	mv	s1,a0
	mv	s7,a1
.LVL71:
	.loc 1 237 2 is_stmt 1
	.loc 1 237 5 is_stmt 0
	fmv.d.x	fa5,zero
	feq.d	a5,fs0,fa5
	bne	a5,zero,.L66
	.loc 1 237 9 is_stmt 1 discriminator 1
	.loc 1 237 11 is_stmt 0 discriminator 1
	li	a5,-8192
	addi	a4,s8,-752
	addi	a3,sp,48
	add	a4,a4,a3
	add	a5,a4,a5
	sd	a5,0(sp)
	lw	a5,820(a5)
	addiw	a5,a5,-1
	ld	a4,0(sp)
	sw	a5,820(a4)
.L66:
	.loc 1 239 2 is_stmt 1
	.loc 1 239 8 is_stmt 0
	ori	s8,s5,32
	.loc 1 239 5
	li	a5,97
	beq	s8,a5,.L205
	.loc 1 289 2 is_stmt 1
	.loc 1 289 5 is_stmt 0
	blt	s2,zero,.L206
.L81:
.LVL72:
	.loc 1 291 2 is_stmt 1
	.loc 1 291 5 is_stmt 0
	fmv.d.x	fa5,zero
	feq.d	a5,fs0,fa5
	bne	a5,zero,.L82
	.loc 1 291 9 is_stmt 1 discriminator 1
	.loc 1 291 11 is_stmt 0 discriminator 1
	lla	a5,.LC13
	ld	a2,0(a5)
	ld	a3,8(a5)
	mv	a0,s0
	mv	a1,s9
.LVL73:
	call	__multf3
.LVL74:
	mv	s1,a0
	mv	s7,a1
.LVL75:
	.loc 1 291 24 discriminator 1
	li	a5,-8192
	li	a4,8192
	addi	a4,a4,-752
	addi	a3,sp,48
	add	a4,a4,a3
	add	a5,a4,a5
	sd	a5,0(sp)
	lw	a5,820(a5)
	addiw	a5,a5,-28
	ld	a4,0(sp)
	sw	a5,820(a4)
.LVL76:
.L82:
	.loc 1 293 2 is_stmt 1
	.loc 1 293 8 is_stmt 0
	li	a5,-8192
	li	a3,8192
	addi	a4,a3,-752
	addi	a2,sp,48
	add	a4,a4,a2
	add	a5,a4,a5
	sd	a5,0(sp)
	lw	a5,820(a5)
	.loc 1 293 5
	blt	a5,zero,.L207
	.loc 1 294 8
	li	a5,8192
	addi	a5,a5,-1208
	addi	a4,sp,48
	add	s10,a4,a5
.L83:
	.loc 1 293 13 discriminator 1
	mv	s0,s10
.LVL77:
.L84:
	.loc 1 296 2 is_stmt 1 discriminator 1
	.loc 1 297 3 discriminator 1
	.loc 1 297 6 is_stmt 0 discriminator 1
	mv	a0,s1
	mv	a1,s7
	call	__fixunstfsi
.LVL78:
	sw	a0,0(s0)
	.loc 1 298 3 is_stmt 1 discriminator 1
	.loc 1 298 23 is_stmt 0 discriminator 1
	addi	s0,s0,4
.LVL79:
	.loc 1 298 20 discriminator 1
	sext.w	a0,a0
	call	__floatunsitf
.LVL80:
	mv	a2,a0
	mv	a3,a1
	mv	a0,s1
	mv	a1,s7
	call	__subtf3
.LVL81:
	.loc 1 298 5 discriminator 1
	lla	a5,.LC14
	ld	a2,0(a5)
	ld	a3,8(a5)
	call	__multf3
.LVL82:
	mv	s1,a0
.LVL83:
	mv	s7,a1
.LVL84:
	.loc 1 299 10 is_stmt 1 discriminator 1
	.loc 1 299 2 is_stmt 0 discriminator 1
	li	a2,0
	li	a3,0
	call	__netf2
.LVL85:
	bne	a0,zero,.L84
	mv	s1,s10
.LVL86:
	j	.L85
.LVL87:
.L205:
.LBB4:
	.loc 1 240 3 is_stmt 1
	.loc 1 241 3
	.loc 1 243 3
	.loc 1 243 8 is_stmt 0
	andi	a5,s5,32
	.loc 1 243 6
	beq	a5,zero,.L68
	.loc 1 243 13 is_stmt 1 discriminator 1
	.loc 1 243 20 is_stmt 0 discriminator 1
	ld	a5,8(sp)
	addi	a5,a5,9
	sd	a5,8(sp)
.LVL88:
.L68:
	.loc 1 244 3 is_stmt 1
	.loc 1 244 6 is_stmt 0
	addiw	a5,s11,2
	sw	a5,16(sp)
	sext.w	a5,a5
	sd	a5,0(sp)
.LVL89:
	.loc 1 246 3 is_stmt 1
	.loc 1 246 11 is_stmt 0
	sext.w	a5,s2
	mv	a4,a5
	sd	a5,32(sp)
	.loc 1 246 6
	li	a5,26
	bgtu	a4,a5,.L69
	.loc 1 247 8 is_stmt 1
	.loc 1 247 10 is_stmt 0
	li	a5,27
	subw	a5,a5,s2
.LVL90:
	.loc 1 249 3 is_stmt 1
	.loc 1 249 6 is_stmt 0
	bne	a5,zero,.L175
.LVL91:
.L69:
	.loc 1 262 3 is_stmt 1
	.loc 1 262 25 is_stmt 0
	li	a5,-8192
	lw	a4,116(sp)
	sraiw	a0,a4,31
	xor	a4,a0,a4
	.loc 1 262 8
	addi	s0,a5,760
	li	a5,8192
	addi	a5,a5,-752
	addi	a3,sp,48
	add	a5,a5,a3
	add	s0,a5,s0
	addi	s0,s0,12
	mv	a1,s0
	subw	a0,a4,a0
	call	fmt_u
.LVL92:
	.loc 1 263 3 is_stmt 1
	.loc 1 263 6 is_stmt 0
	beq	a0,s0,.L208
.L73:
	.loc 1 264 3 is_stmt 1
	.loc 1 264 16 is_stmt 0
	li	a5,-8192
	li	a4,8192
	addi	a4,a4,-752
	addi	a3,sp,48
	add	a4,a4,a3
	add	a5,a4,a5
	sd	a5,24(sp)
	lw	a5,820(a5)
	.loc 1 264 11
	blt	a5,zero,.L209
	li	a5,43
.L74:
.LVL93:
	.loc 1 264 11 discriminator 4
	sb	a5,-1(a0)
	.loc 1 265 3 is_stmt 1 discriminator 4
	.loc 1 265 11 is_stmt 0 discriminator 4
	addi	s11,a0,-2
.LVL94:
	.loc 1 265 14 discriminator 4
	addiw	a5,s5,15
	.loc 1 265 11 discriminator 4
	sb	a5,-2(a0)
	.loc 1 267 3 is_stmt 1 discriminator 4
.LVL95:
	.loc 1 267 4 is_stmt 0 discriminator 4
	li	s9,-8192
	addi	s9,s9,776
	li	a5,8192
	addi	a5,a5,-752
	addi	a4,sp,48
	add	a5,a5,a4
	add	s9,a5,s9
	j	.L77
.LVL96:
.L71:
	.loc 1 250 17 is_stmt 1 discriminator 2
	.loc 1 250 22 is_stmt 0 discriminator 2
	lla	a5,.LC12
.LVL97:
	ld	a2,0(a5)
	ld	a3,8(a5)
	mv	a0,s7
	mv	a1,s1
	call	__multf3
.LVL98:
	mv	s7,a0
.LVL99:
	mv	s1,a1
.LVL100:
	.loc 1 250 13 discriminator 2
	mv	a5,s8
.LVL101:
.L70:
	.loc 1 250 10 is_stmt 1 discriminator 1
	.loc 1 250 13 is_stmt 0 discriminator 1
	addiw	s8,a5,-1
.LVL102:
	.loc 1 250 10 discriminator 1
	bne	a5,zero,.L71
	.loc 1 251 4 is_stmt 1
	.loc 1 251 8 is_stmt 0
	ld	a5,8(sp)
.LVL103:
	lbu	a4,0(a5)
	.loc 1 251 7
	li	a5,45
	beq	a4,a5,.L210
	.loc 1 257 5 is_stmt 1
	.loc 1 257 6 is_stmt 0
	mv	a2,s0
	mv	a3,s9
	mv	a0,s7
	mv	a1,s1
	call	__addtf3
.LVL104:
	.loc 1 258 5 is_stmt 1
	.loc 1 258 6 is_stmt 0
	mv	a2,s7
	mv	a3,s1
	call	__subtf3
.LVL105:
	mv	s1,a0
.LVL106:
	mv	s7,a1
.LVL107:
	j	.L69
.LVL108:
.L175:
	.loc 1 240 15
	lla	a4,.LC5
	ld	s7,0(a4)
	ld	s1,8(a4)
	j	.L70
.LVL109:
.L210:
	.loc 1 252 5 is_stmt 1
	.loc 1 252 6 is_stmt 0
	li	s8,-1
	slli	s8,s8,63
.LVL110:
	.loc 1 253 5 is_stmt 1
	.loc 1 253 6 is_stmt 0
	mv	a2,s7
	mv	a3,s1
	mv	a0,s0
	xor	a1,s9,s8
	call	__subtf3
.LVL111:
	mv	a2,a0
	mv	a3,a1
.LVL112:
	.loc 1 254 5 is_stmt 1
	.loc 1 254 6 is_stmt 0
	mv	a0,s7
.LVL113:
	mv	a1,s1
.LVL114:
	call	__addtf3
.LVL115:
	.loc 1 255 5 is_stmt 1
	.loc 1 255 6 is_stmt 0
	mv	s1,a0
.LVL116:
	xor	s7,a1,s8
.LVL117:
	j	.L69
.LVL118:
.L208:
	.loc 1 263 19 is_stmt 1 discriminator 1
	.loc 1 263 26 is_stmt 0 discriminator 1
	li	a5,48
	sb	a5,-1(a0)
	addi	a0,a0,-1
.LVL119:
	j	.L73
.L209:
	.loc 1 264 11
	li	a5,45
	j	.L74
.LVL120:
.L213:
.LBB5:
	.loc 1 272 17 discriminator 1
	li	a2,0
	li	a3,0
	call	__netf2
.LVL121:
	bne	a0,zero,.L76
	.loc 1 272 22 discriminator 3
	ble	s2,zero,.L211
.L76:
	.loc 1 272 45 is_stmt 1 discriminator 6
.LVL122:
	.loc 1 272 49 is_stmt 0 discriminator 6
	li	a5,46
	sb	a5,1(s9)
	.loc 1 272 47 discriminator 6
	addi	s9,s9,2
.LVL123:
.L75:
.LBE5:
	.loc 1 273 11 is_stmt 1
	.loc 1 273 3 is_stmt 0
	li	a2,0
	li	a3,0
	mv	a0,s8
	mv	a1,s0
	call	__netf2
.LVL124:
	beq	a0,zero,.L212
.LVL125:
.L77:
	.loc 1 268 3 is_stmt 1
.LBB6:
	.loc 1 269 4
	.loc 1 269 8 is_stmt 0
	mv	a0,s1
	mv	a1,s7
	call	__fixtfsi
.LVL126:
	sext.w	a0,a0
.LVL127:
	.loc 1 270 4 is_stmt 1
	.loc 1 270 16 is_stmt 0
	lla	a5,.LANCHOR0
	add	a5,a5,a0
	lb	a4,0(a5)
	.loc 1 270 22
	andi	a5,s5,32
	.loc 1 270 6
	addi	s10,s9,1
.LVL128:
	.loc 1 270 19
	or	a5,a5,a4
	.loc 1 270 8
	sb	a5,0(s9)
	.loc 1 271 4 is_stmt 1
	.loc 1 271 11 is_stmt 0
	call	__floatsitf
.LVL129:
	mv	a2,a0
	mv	a3,a1
	mv	a0,s1
	mv	a1,s7
	call	__subtf3
.LVL130:
	.loc 1 271 5
	lla	a5,.LC12
	ld	a2,0(a5)
	ld	a3,8(a5)
	call	__multf3
.LVL131:
	mv	s8,a0
	mv	s0,a1
	mv	s1,a0
.LVL132:
	mv	s7,a1
.LVL133:
	.loc 1 272 4 is_stmt 1
	.loc 1 272 9 is_stmt 0
	li	a5,-8192
	addi	a5,a5,776
	li	a4,8192
	addi	a4,a4,-752
	addi	a3,sp,48
	add	a4,a4,a3
	add	a5,a4,a5
	sub	a5,s10,a5
	.loc 1 272 7
	li	a4,1
	beq	a5,a4,.L213
	.loc 1 270 6
	mv	s9,s10
	j	.L75
.L211:
	.loc 1 272 32 discriminator 5
	andi	a5,s4,8
	.loc 1 272 27 discriminator 5
	bne	a5,zero,.L76
	.loc 1 270 6
	mv	s9,s10
	j	.L75
.LVL134:
.L212:
.LBE6:
	.loc 1 275 3 is_stmt 1
	.loc 1 275 6 is_stmt 0
	beq	s2,zero,.L78
	.loc 1 275 13 discriminator 1
	li	a5,-8192
	addi	a5,a5,776
	li	a3,8192
	addi	a4,a3,-752
	addi	a2,sp,48
	add	a4,a4,a2
	add	a5,a4,a5
	sub	a5,s9,a5
	.loc 1 275 20 discriminator 1
	addi	a5,a5,-1
	.loc 1 275 9 discriminator 1
	bgt	a5,s2,.L78
	.loc 1 276 4 is_stmt 1
	.loc 1 276 21 is_stmt 0
	li	s0,-8192
.LVL135:
	addi	s0,s0,760
	addi	a5,a3,-752
	add	a5,a5,a2
	add	s0,a5,s0
	addi	s0,s0,12
	sub	s0,s0,s11
	.loc 1 276 14
	ld	a5,32(sp)
	addw	s0,s0,a5
	.loc 1 276 6
	addiw	s0,s0,2
.LVL136:
	j	.L79
.LVL137:
.L78:
	.loc 1 278 4 is_stmt 1
	.loc 1 278 10 is_stmt 0
	li	a5,-8192
	addi	s0,a5,776
.LVL138:
	li	a3,8192
	addi	a4,a3,-752
	addi	a2,sp,48
	add	a4,a4,a2
	add	s0,a4,s0
	sub	s0,s9,s0
	.loc 1 278 23
	addi	a5,a5,760
	addi	a4,a3,-752
	add	a4,a4,a2
	add	a5,a4,a5
	addi	a5,a5,12
	sub	a5,a5,s11
	.loc 1 278 6
	addw	s0,s0,a5
.LVL139:
.L79:
	.loc 1 280 3 is_stmt 1
	lw	a5,16(sp)
	addw	s2,s0,a5
	sext.w	s5,s2
	mv	a4,s4
	mv	a3,s5
	mv	a2,s6
	li	a1,32
	mv	a0,s3
	call	pad
.LVL140:
	.loc 1 281 3
	ld	a2,0(sp)
	ld	a1,8(sp)
	mv	a0,s3
	call	out
.LVL141:
	.loc 1 282 3
	.loc 1 282 26 is_stmt 0
	sext.w	s7,s4
.LVL142:
	li	a4,65536
	xor	a4,s4,a4
	.loc 1 282 3
	sext.w	a4,a4
	mv	a3,s5
	mv	a2,s6
	li	a1,48
	mv	a0,s3
	call	pad
.LVL143:
	.loc 1 283 3 is_stmt 1
	.loc 1 283 16 is_stmt 0
	li	s1,-8192
	addi	a1,s1,776
	li	s4,8192
	addi	a5,s4,-752
	addi	a4,sp,48
	add	a5,a5,a4
	add	a1,a5,a1
	sub	s9,s9,a1
.LVL144:
	.loc 1 283 3
	mv	a2,s9
	mv	a0,s3
	call	out
.LVL145:
	.loc 1 284 3 is_stmt 1
	.loc 1 284 22 is_stmt 0
	addi	s1,s1,760
	addi	a5,s4,-752
	addi	a4,sp,48
	add	a5,a5,a4
	add	s1,a5,s1
	addi	s1,s1,12
	sub	s1,s1,s11
	.loc 1 284 16
	subw	a2,s0,s1
	.loc 1 284 3
	li	a4,0
	li	a3,0
	subw	a2,a2,s9
	li	a1,48
	mv	a0,s3
	call	pad
.LVL146:
	.loc 1 285 3 is_stmt 1
	mv	a2,s1
	mv	a1,s11
	mv	a0,s3
	call	out
.LVL147:
	.loc 1 286 3
	.loc 1 286 26 is_stmt 0
	li	a4,8192
	xor	a4,s7,a4
	.loc 1 286 3
	sext.w	a4,a4
	mv	a3,s5
	mv	a2,s6
	li	a1,32
	mv	a0,s3
	call	pad
.LVL148:
	.loc 1 287 3 is_stmt 1
	.loc 1 287 10 is_stmt 0
	mv	a0,s2
	bge	s5,s6,.L80
	mv	a0,s6
.L80:
	sext.w	a0,a0
	j	.L65
.LVL149:
.L206:
.LBE4:
	.loc 1 289 12
	li	s2,6
	j	.L81
.LVL150:
.L207:
	.loc 1 293 13
	li	s10,-8192
	addi	s10,s10,824
	addi	a5,a3,-752
	add	a5,a5,a2
	add	s10,a5,s10
	j	.L83
.LVL151:
.L88:
.LBB7:
.LBB8:
	.loc 1 305 4 is_stmt 1 discriminator 3
	.loc 1 305 18 is_stmt 0 discriminator 3
	lwu	a4,0(a3)
	.loc 1 305 30 discriminator 3
	sll	a4,a4,a1
	.loc 1 305 35 discriminator 3
	slli	a5,a5,32
.LVL152:
	srli	a5,a5,32
	.loc 1 305 13 discriminator 3
	add	a5,a4,a5
.LVL153:
	.loc 1 306 4 is_stmt 1 discriminator 3
	.loc 1 306 11 is_stmt 0 discriminator 3
	li	a4,1000001536
	addi	a4,a4,-1536
	remu	a2,a5,a4
	.loc 1 306 7 discriminator 3
	sw	a2,0(a3)
	.loc 1 307 4 is_stmt 1 discriminator 3
	.loc 1 307 14 is_stmt 0 discriminator 3
	divu	a5,a5,a4
.LVL154:
	.loc 1 307 10 discriminator 3
	sext.w	a5,a5
.LVL155:
.LBE8:
	.loc 1 304 21 is_stmt 1 discriminator 3
	.loc 1 304 22 is_stmt 0 discriminator 3
	addi	a3,a3,-4
.LVL156:
.L87:
	.loc 1 304 15 is_stmt 1 discriminator 1
	.loc 1 304 3 is_stmt 0 discriminator 1
	bleu	s1,a3,.L88
	.loc 1 309 3 is_stmt 1
	.loc 1 309 6 is_stmt 0
	beq	a5,zero,.L90
	.loc 1 309 14 is_stmt 1 discriminator 1
.LVL157:
	.loc 1 309 19 is_stmt 0 discriminator 1
	sw	a5,-4(s1)
	addi	s1,s1,-4
.LVL158:
	j	.L90
.LVL159:
.L92:
	.loc 1 310 25 is_stmt 1 discriminator 3
	.loc 1 310 26 is_stmt 0 discriminator 3
	addi	s0,s0,-4
.LVL160:
.L90:
	.loc 1 310 9 is_stmt 1 discriminator 1
	bgeu	s1,s0,.L91
	.loc 1 310 19 is_stmt 0 discriminator 2
	lw	a5,-4(s0)
	.loc 1 310 14 discriminator 2
	beq	a5,zero,.L92
.L91:
	.loc 1 311 3 is_stmt 1
	.loc 1 311 5 is_stmt 0
	li	a5,-8192
	li	a4,8192
	addi	a4,a4,-752
	addi	a3,sp,48
.LVL161:
	add	a4,a4,a3
	add	a5,a4,a5
	sd	a5,0(sp)
	lw	a5,820(a5)
	subw	a1,a5,a1
.LVL162:
	ld	a5,0(sp)
	sw	a1,820(a5)
.L85:
.LBE7:
	.loc 1 301 8 is_stmt 1
	.loc 1 301 11 is_stmt 0
	li	a5,-8192
	li	a4,8192
	addi	a4,a4,-752
	addi	a3,sp,48
	add	a4,a4,a3
	add	a5,a4,a5
	sd	a5,0(sp)
	lw	a5,820(a5)
	.loc 1 301 8
	ble	a5,zero,.L94
.LBB9:
	.loc 1 302 3 is_stmt 1
.LVL163:
	.loc 1 303 3
	.loc 1 303 7 is_stmt 0
	mv	a1,a5
	li	a4,29
	ble	a5,a4,.L86
	li	a1,29
.L86:
	sext.w	a1,a1
.LVL164:
	.loc 1 304 3 is_stmt 1
	.loc 1 304 9 is_stmt 0
	addi	a3,s0,-4
.LVL165:
	.loc 1 302 12
	li	a5,0
	.loc 1 304 3
	j	.L87
.LVL166:
.L181:
.LBE9:
.LBB10:
	.loc 1 315 10
	li	a1,9
	j	.L95
.LVL167:
.L215:
	.loc 1 321 3 is_stmt 1
	.loc 1 321 8 is_stmt 0
	lw	a4,0(s1)
	.loc 1 321 6
	bne	a4,zero,.L98
	.loc 1 321 12 is_stmt 1 discriminator 1
	.loc 1 321 13 is_stmt 0 discriminator 1
	addi	s1,s1,4
.LVL168:
.L98:
	.loc 1 322 3 is_stmt 1
	.loc 1 322 6 is_stmt 0
	beq	a5,zero,.L99
	.loc 1 322 14 is_stmt 1 discriminator 1
.LVL169:
	.loc 1 322 19 is_stmt 0 discriminator 1
	sw	a5,0(s0)
	.loc 1 322 16 discriminator 1
	addi	s0,s0,4
.LVL170:
.L99:
	.loc 1 324 3 is_stmt 1
	.loc 1 324 23 is_stmt 0
	li	a5,102
.LVL171:
	beq	s8,a5,.L182
	mv	a4,s1
.L100:
.LVL172:
	.loc 1 325 3 is_stmt 1 discriminator 4
	.loc 1 325 8 is_stmt 0 discriminator 4
	sub	a5,s0,a4
	srai	a5,a5,2
	.loc 1 325 6 discriminator 4
	ble	a5,a0,.L101
	.loc 1 325 19 is_stmt 1 discriminator 1
	.loc 1 325 24 is_stmt 0 discriminator 1
	slli	s0,a0,2
.LVL173:
	.loc 1 325 21 discriminator 1
	add	s0,a4,s0
.LVL174:
.L101:
	.loc 1 326 3 is_stmt 1
	.loc 1 326 5 is_stmt 0
	li	a5,-8192
	li	a4,8192
.LVL175:
	addi	a4,a4,-752
	addi	a3,sp,48
	add	a4,a4,a3
	add	a5,a4,a5
	sd	a5,0(sp)
	lw	a5,820(a5)
	addw	a1,a5,a1
.LVL176:
	ld	a5,0(sp)
	sw	a1,820(a5)
.LVL177:
.L94:
.LBE10:
	.loc 1 313 8 is_stmt 1
	.loc 1 313 11 is_stmt 0
	li	a5,-8192
	li	a4,8192
	addi	a4,a4,-752
	addi	a3,sp,48
	add	a4,a4,a3
	add	a5,a4,a5
	sd	a5,0(sp)
	lw	a1,820(a5)
	.loc 1 313 8
	bge	a1,zero,.L214
.LBB12:
	.loc 1 314 3 is_stmt 1
.LVL178:
	.loc 1 315 3
	.loc 1 315 10 is_stmt 0
	li	a5,-9
	blt	a1,a5,.L181
	.loc 1 315 10 discriminator 1
	negw	a1,a1
.L95:
.LVL179:
	.loc 1 315 47 discriminator 4
	addiw	a0,s2,45
	.loc 1 315 50 discriminator 4
	li	a5,9
	divw	a0,a0,a5
	.loc 1 315 22 discriminator 4
	addiw	a0,a0,1
.LVL180:
	.loc 1 316 3 is_stmt 1 discriminator 4
	.loc 1 316 9 is_stmt 0 discriminator 4
	mv	a2,s1
	.loc 1 314 12 discriminator 4
	li	a5,0
.LVL181:
.L96:
	.loc 1 316 13 is_stmt 1 discriminator 1
	.loc 1 316 3 is_stmt 0 discriminator 1
	bgeu	a2,s0,.L215
.LBB11:
	.loc 1 317 4 is_stmt 1 discriminator 3
	.loc 1 317 18 is_stmt 0 discriminator 3
	lw	a3,0(a2)
	.loc 1 317 25 discriminator 3
	li	a4,1
	sllw	a4,a4,a1
	.loc 1 317 30 discriminator 3
	addiw	a4,a4,-1
	.loc 1 317 13 discriminator 3
	and	a4,a3,a4
.LVL182:
	.loc 1 318 4 is_stmt 1 discriminator 3
	.loc 1 318 12 is_stmt 0 discriminator 3
	srlw	a3,a3,a1
	.loc 1 318 18 discriminator 3
	addw	a5,a3,a5
.LVL183:
	.loc 1 318 7 discriminator 3
	sw	a5,0(a2)
	.loc 1 319 4 is_stmt 1 discriminator 3
	.loc 1 319 23 is_stmt 0 discriminator 3
	li	a5,1000001536
	addiw	a5,a5,-1536
	sraw	a5,a5,a1
	.loc 1 319 10 discriminator 3
	mulw	a5,a5,a4
.LVL184:
.LBE11:
	.loc 1 316 18 is_stmt 1 discriminator 3
	.loc 1 316 19 is_stmt 0 discriminator 3
	addi	a2,a2,4
.LVL185:
	j	.L96
.LVL186:
.L182:
	.loc 1 324 23
	mv	a4,s10
	j	.L100
.LVL187:
.L214:
.LBE12:
	.loc 1 329 2 is_stmt 1
	.loc 1 329 5 is_stmt 0
	bgeu	s1,s0,.L183
	.loc 1 329 11 is_stmt 1 discriminator 1
.LVL188:
	.loc 1 329 28 is_stmt 0 discriminator 1
	sub	a5,s10,s1
	srai	a5,a5,2
	.loc 1 329 23 discriminator 1
	slliw	s7,a5,3
	addw	s7,s7,a5
.LVL189:
	.loc 1 329 17 discriminator 1
	li	a5,10
.LVL190:
.L104:
	.loc 1 329 33 is_stmt 1 discriminator 2
	lw	a3,0(s1)
	.loc 1 329 35 is_stmt 0 discriminator 2
	sext.w	a4,a5
	.loc 1 329 11 discriminator 2
	bltu	a3,a4,.L103
	.loc 1 329 51 is_stmt 1 discriminator 4
	.loc 1 329 40 discriminator 4
	.loc 1 329 41 is_stmt 0 discriminator 4
	slliw	a4,a5,2
	addw	a5,a4,a5
.LVL191:
	slliw	a5,a5,1
	.loc 1 329 48 discriminator 4
	addiw	s7,s7,1
.LVL192:
	j	.L104
.L183:
	.loc 1 330 8
	li	s7,0
.L103:
.LVL193:
	.loc 1 333 2 is_stmt 1
	.loc 1 333 17 is_stmt 0
	addi	a5,s8,-102
	snez	a5,a5
	.loc 1 333 23
	mulw	a5,a5,s7
	.loc 1 333 8
	subw	a5,s2,a5
	.loc 1 333 41
	li	a4,103
	beq	s8,a4,.L216
	li	a4,0
.L106:
	.loc 1 333 4 discriminator 6
	subw	a4,a5,a4
	sext.w	a2,a4
.LVL194:
	.loc 1 334 2 is_stmt 1 discriminator 6
	.loc 1 334 14 is_stmt 0 discriminator 6
	sub	a5,s0,s10
	srai	a5,a5,2
	.loc 1 334 16 discriminator 6
	addi	a5,a5,-1
	.loc 1 334 11 discriminator 6
	slli	a3,a5,3
	add	a5,a3,a5
	.loc 1 334 5 discriminator 6
	bge	a2,a5,.L121
.LBB13:
	.loc 1 335 3 is_stmt 1
	.loc 1 337 3
	.loc 1 337 18 is_stmt 0
	li	a5,147456
	addw	a5,a5,a4
	.loc 1 337 34
	li	a3,9
	divw	s9,a5,a3
	.loc 1 337 13
	slli	s9,s9,2
	li	a4,-65536
.LVL195:
	addi	a4,a4,4
	add	s9,s9,a4
	.loc 1 337 5
	add	s9,s10,s9
.LVL196:
	.loc 1 338 3 is_stmt 1
	.loc 1 339 3
	.loc 1 339 5 is_stmt 0
	remw	a5,a5,a3
.LVL197:
	.loc 1 340 3 is_stmt 1
	.loc 1 340 15 is_stmt 0
	addiw	a4,a5,1
.LVL198:
	.loc 1 340 9
	li	a5,10
.LVL199:
	.loc 1 340 3
	j	.L108
.LVL200:
.L216:
.LBE13:
	.loc 1 333 41 discriminator 1
	bne	s2,zero,.L185
	.loc 1 333 41
	li	a4,0
	j	.L106
.L185:
	li	a4,1
	j	.L106
.LVL201:
.L109:
.LBB15:
	.loc 1 340 35 is_stmt 1 discriminator 3
	.loc 1 340 24 discriminator 3
	.loc 1 340 25 is_stmt 0 discriminator 3
	slliw	a3,a5,2
	addw	a5,a3,a5
.LVL202:
	slliw	a5,a5,1
	.loc 1 340 32 discriminator 3
	addiw	a4,a4,1
.LVL203:
.L108:
	.loc 1 340 19 is_stmt 1 discriminator 1
	.loc 1 340 3 is_stmt 0 discriminator 1
	li	a3,8
	ble	a4,a3,.L109
	.loc 1 341 3 is_stmt 1
	.loc 1 341 7 is_stmt 0
	lw	a4,0(s9)
.LVL204:
	.loc 1 341 10
	sext.w	a3,a5
	sd	a3,32(sp)
	.loc 1 341 5
	remuw	a1,a4,a5
	sext.w	a2,a1
.LVL205:
	.loc 1 343 3 is_stmt 1
	.loc 1 343 6 is_stmt 0
	bne	a2,zero,.L110
	.loc 1 343 13 discriminator 1
	addi	a3,s9,4
	.loc 1 343 9 discriminator 1
	beq	a3,s0,.L111
.L110:
.LBB14:
	.loc 1 344 4 is_stmt 1
.LVL206:
	.loc 1 345 4
	.loc 1 346 4
	.loc 1 346 10 is_stmt 0
	ld	a3,32(sp)
	divuw	a3,a4,a3
	.loc 1 346 13
	andi	a3,a3,1
	.loc 1 346 7
	bne	a3,zero,.L186
	.loc 1 344 16
	lla	a3,.LC7
	ld	a0,0(a3)
	sd	a0,24(sp)
	ld	a3,8(a3)
	sd	a3,0(sp)
.L112:
.LVL207:
	.loc 1 347 4 is_stmt 1
	.loc 1 347 11 is_stmt 0
	srai	a5,a5,1
.LVL208:
	.loc 1 347 7
	bgtu	a5,a2,.L187
	.loc 1 348 9 is_stmt 1
	.loc 1 348 12 is_stmt 0
	beq	a5,a2,.L217
	.loc 1 349 14
	lla	a5,.LC8
	ld	a2,0(a5)
	ld	a3,8(a5)
	j	.L113
.LVL209:
.L186:
	.loc 1 346 24
	lla	a3,.LC6
	ld	a0,0(a3)
	sd	a0,24(sp)
	ld	a3,8(a3)
	sd	a3,0(sp)
	j	.L112
.LVL210:
.L217:
	.loc 1 348 24 discriminator 1
	addi	a5,s9,4
	.loc 1 348 20 discriminator 1
	beq	a5,s0,.L189
	.loc 1 349 14
	lla	a5,.LC8
	ld	a2,0(a5)
	ld	a3,8(a5)
	j	.L113
.L187:
	.loc 1 347 20
	lla	a5,.LC9
	ld	a2,0(a5)
	ld	a3,8(a5)
.L113:
.LVL211:
	.loc 1 350 4 is_stmt 1
	.loc 1 350 7 is_stmt 0
	beq	s11,zero,.L114
	.loc 1 350 14 discriminator 1
	ld	a5,8(sp)
	lbu	a0,0(a5)
	.loc 1 350 11 discriminator 1
	li	a5,45
	beq	a0,a5,.L218
.LVL212:
.L114:
	.loc 1 351 4 is_stmt 1
	.loc 1 351 7 is_stmt 0
	subw	a5,a4,a1
	sw	a5,44(sp)
	sw	a5,0(s9)
	.loc 1 353 4 is_stmt 1
	.loc 1 353 13 is_stmt 0
	ld	a0,24(sp)
	ld	a1,0(sp)
.LVL213:
	call	__addtf3
.LVL214:
	.loc 1 353 7
	ld	a2,24(sp)
	ld	a3,0(sp)
	call	__netf2
.LVL215:
	beq	a0,zero,.L111
	.loc 1 354 5 is_stmt 1
	.loc 1 354 13 is_stmt 0
	ld	a4,32(sp)
	lw	a5,44(sp)
	addw	a5,a4,a5
	.loc 1 354 8
	sw	a5,0(s9)
	.loc 1 355 5 is_stmt 1
	.loc 1 355 11 is_stmt 0
	j	.L116
.LVL216:
.L189:
	.loc 1 348 36
	lla	a5,.LC10
	ld	a2,0(a5)
	ld	a3,8(a5)
	j	.L113
.LVL217:
.L218:
	.loc 1 350 28 is_stmt 1 discriminator 2
	.loc 1 350 33 is_stmt 0 discriminator 2
	li	a5,-1
	slli	a5,a5,63
	ld	a0,0(sp)
	xor	a0,a0,a5
	sd	a0,0(sp)
.LVL218:
	.loc 1 350 44 discriminator 2
	xor	a3,a3,a5
.LVL219:
	j	.L114
.LVL220:
.L117:
	.loc 1 358 6 is_stmt 1
	.loc 1 358 7 is_stmt 0
	lw	a4,0(a5)
	.loc 1 358 10
	addiw	a4,a4,1
	sw	a4,0(a5)
	.loc 1 356 8
	mv	s9,a5
.LVL221:
.L116:
	.loc 1 355 11 is_stmt 1
	.loc 1 355 12 is_stmt 0
	lw	a4,0(s9)
	.loc 1 355 11
	li	a5,1000001536
	addi	a5,a5,-1537
	bleu	a4,a5,.L219
	.loc 1 356 6 is_stmt 1
	.loc 1 356 8 is_stmt 0
	addi	a5,s9,-4
.LVL222:
	.loc 1 356 10
	sw	zero,0(s9)
	.loc 1 357 6 is_stmt 1
	.loc 1 357 9 is_stmt 0
	bleu	s1,a5,.L117
	.loc 1 357 15 is_stmt 1 discriminator 1
.LVL223:
	.loc 1 357 19 is_stmt 0 discriminator 1
	sw	zero,-4(s1)
	addi	s1,s1,-4
.LVL224:
	j	.L117
.LVL225:
.L219:
	.loc 1 360 5 is_stmt 1
	.loc 1 360 22 is_stmt 0
	sub	a5,s10,s1
	srai	a5,a5,2
	.loc 1 360 17
	slliw	s7,a5,3
.LVL226:
	addw	s7,s7,a5
.LVL227:
	.loc 1 360 11
	li	a5,10
.LVL228:
	.loc 1 360 5
	j	.L119
.LVL229:
.L120:
	.loc 1 360 45 is_stmt 1 discriminator 3
	.loc 1 360 34 discriminator 3
	.loc 1 360 35 is_stmt 0 discriminator 3
	slliw	a4,a5,2
	addw	a5,a4,a5
.LVL230:
	slliw	a5,a5,1
	.loc 1 360 42 discriminator 3
	addiw	s7,s7,1
.LVL231:
.L119:
	.loc 1 360 27 is_stmt 1 discriminator 1
	lw	a3,0(s1)
	.loc 1 360 29 is_stmt 0 discriminator 1
	sext.w	a4,a5
	.loc 1 360 5 discriminator 1
	bgeu	a3,a4,.L120
.LVL232:
.L111:
.LBE14:
	.loc 1 363 3 is_stmt 1
	.loc 1 363 10 is_stmt 0
	addi	s9,s9,4
.LVL233:
	.loc 1 363 6
	bgeu	s9,s0,.L121
	.loc 1 363 15
	mv	s0,s9
.LVL234:
	j	.L121
.LVL235:
.L123:
.LBE15:
	.loc 1 365 28 is_stmt 1 discriminator 3
	.loc 1 365 24 discriminator 3
	.loc 1 365 25 is_stmt 0 discriminator 3
	addi	s0,s0,-4
.LVL236:
.L121:
	.loc 1 365 9 is_stmt 1 discriminator 1
	.loc 1 365 2 is_stmt 0 discriminator 1
	bgeu	s1,s0,.L122
	.loc 1 365 18 discriminator 2
	lw	a5,-4(s0)
	.loc 1 365 13 discriminator 2
	beq	a5,zero,.L123
.L122:
	.loc 1 367 2 is_stmt 1
	.loc 1 367 5 is_stmt 0
	li	a5,103
	beq	s8,a5,.L220
.LVL237:
.L124:
	.loc 1 386 2 is_stmt 1
	.loc 1 386 8 is_stmt 0
	addiw	s9,s2,1
	.loc 1 386 17
	bne	s2,zero,.L193
	.loc 1 386 23 discriminator 2
	andi	a5,s4,8
	.loc 1 386 17 discriminator 2
	beq	a5,zero,.L194
	.loc 1 386 17
	li	a5,1
	j	.L136
.LVL238:
.L220:
	.loc 1 368 3 is_stmt 1
	.loc 1 368 6 is_stmt 0
	bne	s2,zero,.L125
	.loc 1 368 11 is_stmt 1 discriminator 1
	.loc 1 368 12 is_stmt 0 discriminator 1
	addiw	s2,s2,1
.LVL239:
.L125:
	.loc 1 369 3 is_stmt 1
	.loc 1 369 6 is_stmt 0
	ble	s2,s7,.L126
	.loc 1 369 11 discriminator 1
	li	a5,-4
	blt	s7,a5,.L126
	.loc 1 370 4 is_stmt 1
	.loc 1 370 5 is_stmt 0
	addiw	s5,s5,-1
.LVL240:
	.loc 1 371 4 is_stmt 1
	.loc 1 371 8 is_stmt 0
	addiw	a5,s7,1
	.loc 1 371 5
	subw	s2,s2,a5
.LVL241:
	j	.L127
.LVL242:
.L126:
	.loc 1 373 4 is_stmt 1
	.loc 1 373 5 is_stmt 0
	addiw	s5,s5,-2
.LVL243:
	.loc 1 374 4 is_stmt 1
	.loc 1 374 5 is_stmt 0
	addiw	s2,s2,-1
.LVL244:
.L127:
	.loc 1 376 3 is_stmt 1
	.loc 1 376 11 is_stmt 0
	andi	a5,s4,8
	.loc 1 376 6
	bne	a5,zero,.L124
	.loc 1 378 4 is_stmt 1
	.loc 1 378 7 is_stmt 0
	bgeu	s1,s0,.L191
	.loc 1 378 16 discriminator 1
	lw	a2,-4(s0)
	.loc 1 378 12 discriminator 1
	bne	a2,zero,.L192
	.loc 1 379 10
	li	a4,9
	j	.L128
.L192:
	.loc 1 378 34
	li	a4,0
	.loc 1 378 28
	li	a5,10
.L129:
.LVL245:
	.loc 1 378 38 is_stmt 1 discriminator 3
	.loc 1 378 43 is_stmt 0 discriminator 3
	remuw	a3,a2,a5
	.loc 1 378 22 discriminator 3
	bne	a3,zero,.L128
	.loc 1 378 61 is_stmt 1 discriminator 5
	.loc 1 378 50 discriminator 5
	.loc 1 378 51 is_stmt 0 discriminator 5
	slliw	a3,a5,2
	addw	a5,a3,a5
.LVL246:
	slliw	a5,a5,1
	.loc 1 378 58 discriminator 5
	addiw	a4,a4,1
.LVL247:
	j	.L129
.L191:
	.loc 1 379 10
	li	a4,9
.L128:
.LVL248:
	.loc 1 380 4 is_stmt 1
	.loc 1 380 10 is_stmt 0
	ori	a5,s5,32
	.loc 1 380 7
	li	a3,102
	beq	a5,a3,.L221
	.loc 1 383 5 is_stmt 1
	.loc 1 383 9 is_stmt 0
	sub	a5,s0,s10
	srai	a5,a5,2
	addi	a3,a5,-1
	slli	a5,a3,3
	add	a5,a5,a3
	add	a5,s7,a5
	sub	a4,a5,a4
.LVL249:
	blt	a4,zero,.L222
.L134:
	ble	s2,a4,.L135
	mv	s2,a4
.LVL250:
.L135:
	.loc 1 383 7
	sext.w	s2,s2
.LVL251:
	j	.L124
.LVL252:
.L221:
	.loc 1 381 5 is_stmt 1
	.loc 1 381 9 is_stmt 0
	sub	a5,s0,s10
	srai	a5,a5,2
	addi	a3,a5,-1
	slli	a5,a3,3
	add	a5,a5,a3
	sub	a4,a5,a4
.LVL253:
	blt	a4,zero,.L223
.L132:
	ble	s2,a4,.L133
	mv	s2,a4
.LVL254:
.L133:
	.loc 1 381 7
	sext.w	s2,s2
.LVL255:
	j	.L124
.L223:
	.loc 1 381 9
	li	a4,0
	j	.L132
.L222:
	.loc 1 383 9
	li	a4,0
	j	.L134
.L193:
	.loc 1 386 17
	li	a5,1
.L136:
	.loc 1 386 4 discriminator 6
	addw	s9,s9,a5
	sext.w	a5,s9
.LVL256:
	.loc 1 387 2 is_stmt 1 discriminator 6
	.loc 1 387 8 is_stmt 0 discriminator 6
	ori	s8,s5,32
	.loc 1 387 5 discriminator 6
	li	a4,102
	bne	s8,a4,.L137
	.loc 1 388 3 is_stmt 1
	.loc 1 388 6 is_stmt 0
	ble	s7,zero,.L138
	.loc 1 388 12 is_stmt 1 discriminator 1
	.loc 1 388 13 is_stmt 0 discriminator 1
	addw	a5,s9,s7
.LVL257:
	j	.L138
.LVL258:
.L194:
	.loc 1 386 17
	mv	a5,s2
	j	.L136
.LVL259:
.L137:
	.loc 1 390 3 is_stmt 1
	.loc 1 390 23 is_stmt 0
	sraiw	a5,s7,31
	xor	a0,s7,a5
	.loc 1 390 8
	li	a1,-8192
	addi	a1,a1,760
	li	a4,8192
	addi	a4,a4,-752
	addi	a3,sp,48
	add	a4,a4,a3
	add	a1,a4,a1
	addi	a1,a1,12
	subw	a0,a0,a5
	call	fmt_u
.LVL260:
	.loc 1 391 3 is_stmt 1
	.loc 1 391 8 is_stmt 0
	j	.L139
.L140:
	.loc 1 391 22 is_stmt 1 discriminator 2
	.loc 1 391 29 is_stmt 0 discriminator 2
	addi	a0,a0,-1
.LVL261:
	li	a5,48
	sb	a5,0(a0)
.L139:
	.loc 1 391 8 is_stmt 1 discriminator 1
	.loc 1 391 13 is_stmt 0 discriminator 1
	li	a5,-8192
	addi	a5,a5,760
	li	a4,8192
	addi	a4,a4,-752
	addi	a3,sp,48
	add	a4,a4,a3
	add	a5,a4,a5
	addi	a5,a5,12
	sub	a5,a5,a0
	.loc 1 391 8 discriminator 1
	li	a4,1
	ble	a5,a4,.L140
	.loc 1 392 3 is_stmt 1
	.loc 1 392 11 is_stmt 0
	blt	s7,zero,.L224
	li	a5,43
.L141:
.LVL262:
	.loc 1 392 11 discriminator 4
	sb	a5,-1(a0)
	.loc 1 393 3 is_stmt 1 discriminator 4
	.loc 1 393 11 is_stmt 0 discriminator 4
	addi	a4,a0,-2
	sd	a4,16(sp)
.LVL263:
	sb	s5,-2(a0)
	.loc 1 394 3 is_stmt 1 discriminator 4
	.loc 1 394 12 is_stmt 0 discriminator 4
	li	a5,-8192
	addi	a5,a5,760
	li	a3,8192
	addi	a3,a3,-752
	addi	a2,sp,48
	add	a3,a3,a2
	add	a5,a3,a5
	addi	a5,a5,12
	sub	a5,a5,a4
	.loc 1 394 5 discriminator 4
	addw	a5,s9,a5
.LVL264:
.L138:
	.loc 1 397 2 is_stmt 1
	addw	s7,a5,s11
.LVL265:
	sext.w	s5,s7
.LVL266:
	mv	a4,s4
	mv	a3,s5
	mv	a2,s6
	li	a1,32
	mv	a0,s3
	call	pad
.LVL267:
	.loc 1 398 2
	mv	a2,s11
	ld	a1,8(sp)
	mv	a0,s3
	call	out
.LVL268:
	.loc 1 399 2
	.loc 1 399 25 is_stmt 0
	sext.w	s9,s4
	li	a4,65536
	xor	a4,s4,a4
	.loc 1 399 2
	sext.w	a4,a4
	mv	a3,s5
	mv	a2,s6
	li	a1,48
	mv	a0,s3
	call	pad
.LVL269:
	.loc 1 401 2 is_stmt 1
	.loc 1 401 5 is_stmt 0
	li	a5,102
	beq	s8,a5,.L225
	.loc 1 417 3 is_stmt 1
	.loc 1 417 6 is_stmt 0
	bltu	s1,s0,.L159
	.loc 1 417 13 is_stmt 1 discriminator 1
	.loc 1 417 14 is_stmt 0 discriminator 1
	addi	s0,s1,4
.LVL270:
.L159:
	.loc 1 418 3 is_stmt 1
	.loc 1 418 9 is_stmt 0
	mv	s4,s1
	.loc 1 418 3
	j	.L160
.LVL271:
.L224:
	.loc 1 392 11
	li	a5,45
	j	.L141
.LVL272:
.L225:
	.loc 1 402 3 is_stmt 1
	.loc 1 402 6 is_stmt 0
	bleu	s1,s10,.L143
	.loc 1 402 13
	mv	s1,s10
.LVL273:
.L143:
	.loc 1 403 3 is_stmt 1
	.loc 1 403 9 is_stmt 0
	mv	s4,s1
	.loc 1 403 3
	j	.L144
.LVL274:
.L147:
.LBB16:
	.loc 1 405 28 is_stmt 1 discriminator 3
	.loc 1 405 32 is_stmt 0 discriminator 3
	addi	a1,a1,-1
.LVL275:
	li	a5,48
	sb	a5,0(a1)
.L145:
	.loc 1 405 20 is_stmt 1 discriminator 2
	li	a5,-8192
	addi	a5,a5,776
	li	a4,8192
	addi	a4,a4,-752
	addi	a3,sp,48
	add	a4,a4,a3
	add	a5,a4,a5
	bgtu	a1,a5,.L147
.L148:
	.loc 1 407 4 discriminator 2
	.loc 1 407 19 is_stmt 0 discriminator 2
	li	a2,-8192
	addi	a2,a2,776
	li	a5,8192
	addi	a5,a5,-752
	addi	a4,sp,48
	add	a5,a5,a4
	add	a2,a5,a2
	addi	a2,a2,9
	.loc 1 407 4 discriminator 2
	sub	a2,a2,a1
	mv	a0,s3
	call	out
.LVL276:
.LBE16:
	.loc 1 403 19 is_stmt 1 discriminator 2
	.loc 1 403 20 is_stmt 0 discriminator 2
	addi	s4,s4,4
.LVL277:
.L144:
	.loc 1 403 13 is_stmt 1 discriminator 1
	.loc 1 403 3 is_stmt 0 discriminator 1
	bgtu	s4,s10,.L226
.LBB17:
	.loc 1 404 4 is_stmt 1
	.loc 1 404 14 is_stmt 0
	li	a1,-8192
	addi	a1,a1,776
	li	a5,8192
	addi	a5,a5,-752
	addi	a4,sp,48
	add	a5,a5,a4
	add	a1,a5,a1
	addi	a1,a1,9
	lwu	a0,0(s4)
	call	fmt_u
.LVL278:
	mv	a1,a0
.LVL279:
	.loc 1 405 4 is_stmt 1
	.loc 1 405 7 is_stmt 0
	bne	s1,s4,.L145
	.loc 1 406 9 is_stmt 1
	.loc 1 406 12 is_stmt 0
	li	a5,-8192
	addi	a5,a5,776
	li	a4,8192
	addi	a4,a4,-752
	addi	a3,sp,48
	add	a4,a4,a3
	add	a5,a4,a5
	addi	a5,a5,9
	bne	a0,a5,.L148
	.loc 1 406 23 is_stmt 1 discriminator 1
.LVL280:
	.loc 1 406 27 is_stmt 0 discriminator 1
	li	a5,48
	sb	a5,-1(a0)
	addi	a1,a0,-1
.LVL281:
	j	.L148
.LVL282:
.L226:
.LBE17:
	.loc 1 409 3 is_stmt 1
	.loc 1 409 6 is_stmt 0
	bne	s2,zero,.L150
	.loc 1 409 15 discriminator 2
	andi	a5,s9,8
	.loc 1 409 9 discriminator 2
	beq	a5,zero,.L155
.L150:
	.loc 1 409 27 is_stmt 1 discriminator 3
	li	a2,1
	lla	a1,.LC15
	mv	a0,s3
	call	out
.LVL283:
	j	.L155
.LVL284:
.L153:
.LBB18:
	.loc 1 412 18 discriminator 2
	.loc 1 412 22 is_stmt 0 discriminator 2
	addi	a1,a1,-1
.LVL285:
	li	a5,48
	sb	a5,0(a1)
.L152:
	.loc 1 412 10 is_stmt 1 discriminator 1
	li	a5,-8192
	addi	a5,a5,776
	li	a4,8192
	addi	a4,a4,-752
	addi	a3,sp,48
	add	a4,a4,a3
	add	a5,a4,a5
	bgtu	a1,a5,.L153
	.loc 1 413 4
	.loc 1 413 14 is_stmt 0
	mv	a2,s2
	li	a5,9
	ble	s2,a5,.L154
.LVL286:
	li	a2,9
.LVL287:
.L154:
	.loc 1 413 4
	sext.w	a2,a2
	mv	a0,s3
	call	out
.LVL288:
.LBE18:
	.loc 1 410 22 is_stmt 1
	.loc 1 410 23 is_stmt 0
	addi	s4,s4,4
.LVL289:
	.loc 1 410 28
	addiw	s2,s2,-9
.LVL290:
.L155:
	.loc 1 410 10 is_stmt 1 discriminator 1
	.loc 1 410 3 is_stmt 0 discriminator 1
	bgeu	s4,s0,.L156
	.loc 1 410 14 discriminator 2
	ble	s2,zero,.L156
.LBB19:
	.loc 1 411 4 is_stmt 1
	.loc 1 411 14 is_stmt 0
	li	a1,-8192
	addi	a1,a1,776
	li	a5,8192
	addi	a5,a5,-752
	addi	a4,sp,48
	add	a5,a5,a4
	add	a1,a5,a1
	addi	a1,a1,9
	lwu	a0,0(s4)
	call	fmt_u
.LVL291:
	mv	a1,a0
.LVL292:
	.loc 1 412 4 is_stmt 1
	.loc 1 412 10 is_stmt 0
	j	.L152
.LVL293:
.L156:
.LBE19:
	.loc 1 415 3 is_stmt 1
	li	a4,0
	li	a3,9
	addiw	a2,s2,9
	li	a1,48
	mv	a0,s3
	call	pad
.LVL294:
	j	.L158
.LVL295:
.L227:
.LBB20:
	.loc 1 420 18 discriminator 1
	.loc 1 420 22 is_stmt 0 discriminator 1
	li	a5,48
	sb	a5,-1(a0)
	addi	a1,a0,-1
.LVL296:
	j	.L161
.L228:
	.loc 1 423 5 is_stmt 1
	addi	s8,a1,1
.LVL297:
	li	a2,1
	mv	a0,s3
	call	out
.LVL298:
	.loc 1 424 5
	.loc 1 424 8 is_stmt 0
	bgt	s2,zero,.L166
	.loc 1 424 17 discriminator 2
	andi	a5,s9,8
	.loc 1 424 12 discriminator 2
	beq	a5,zero,.L197
.L166:
	.loc 1 424 29 is_stmt 1 discriminator 3
	li	a2,1
	lla	a1,.LC15
	mv	a0,s3
	call	out
.LVL299:
	.loc 1 423 5 is_stmt 0 discriminator 3
	mv	a1,s8
.LVL300:
.L165:
	.loc 1 426 4 is_stmt 1 discriminator 2
	.loc 1 426 14 is_stmt 0 discriminator 2
	li	s8,-8192
	addi	s8,s8,776
	li	a5,8192
	addi	a5,a5,-752
	addi	a4,sp,48
	add	a5,a5,a4
	add	s8,a5,s8
	addi	s8,s8,9
	sub	s8,s8,a1
	mv	a2,s2
	ble	s2,s8,.L167
	mv	a2,s8
.L167:
	.loc 1 426 4 discriminator 2
	mv	a0,s3
	call	out
.LVL301:
	.loc 1 427 4 is_stmt 1 discriminator 2
	.loc 1 427 6 is_stmt 0 discriminator 2
	subw	s2,s2,s8
.LVL302:
.LBE20:
	.loc 1 418 26 is_stmt 1 discriminator 2
	.loc 1 418 27 is_stmt 0 discriminator 2
	addi	s4,s4,4
.LVL303:
.L160:
	.loc 1 418 13 is_stmt 1 discriminator 1
	.loc 1 418 3 is_stmt 0 discriminator 1
	bgeu	s4,s0,.L168
	.loc 1 418 17 discriminator 3
	blt	s2,zero,.L168
.LBB21:
	.loc 1 419 4 is_stmt 1
	.loc 1 419 14 is_stmt 0
	li	s8,-8192
	addi	s8,s8,776
	li	a5,8192
	addi	a5,a5,-752
	addi	a4,sp,48
	add	a5,a5,a4
	add	s8,a5,s8
	addi	s8,s8,9
	mv	a1,s8
	lwu	a0,0(s4)
	call	fmt_u
.LVL304:
	mv	a1,a0
.LVL305:
	.loc 1 420 4 is_stmt 1
	.loc 1 420 7 is_stmt 0
	beq	a0,s8,.L227
.LVL306:
.L161:
	.loc 1 421 4 is_stmt 1
	.loc 1 421 7 is_stmt 0
	beq	s1,s4,.L228
.L162:
	.loc 1 421 20 is_stmt 1 discriminator 2
	li	a5,-8192
	addi	a5,a5,776
	li	a4,8192
	addi	a4,a4,-752
	addi	a3,sp,48
	add	a4,a4,a3
	add	a5,a4,a5
	bleu	a1,a5,.L165
	.loc 1 421 28 discriminator 3
	.loc 1 421 32 is_stmt 0 discriminator 3
	addi	a1,a1,-1
.LVL307:
	li	a5,48
	sb	a5,0(a1)
	j	.L162
.LVL308:
.L197:
	.loc 1 423 5
	mv	a1,s8
	j	.L165
.LVL309:
.L168:
.LBE21:
	.loc 1 429 3 is_stmt 1
	li	a4,0
	li	a3,18
	addiw	a2,s2,18
	li	a1,48
	mv	a0,s3
	call	pad
.LVL310:
	.loc 1 430 3
	.loc 1 430 20 is_stmt 0
	li	a2,-8192
	addi	a2,a2,760
	li	a5,8192
	addi	a5,a5,-752
	addi	a4,sp,48
	add	a5,a5,a4
	add	a2,a5,a2
	addi	a2,a2,12
	.loc 1 430 3
	ld	a5,16(sp)
	sub	a2,a2,a5
	mv	a1,a5
	mv	a0,s3
	call	out
.LVL311:
.L158:
	.loc 1 433 2 is_stmt 1
	.loc 1 433 25 is_stmt 0
	li	a4,8192
	xor	a4,s9,a4
	.loc 1 433 2
	sext.w	a4,a4
	mv	a3,s5
	mv	a2,s6
	li	a1,32
	mv	a0,s3
	call	pad
.LVL312:
	.loc 1 435 2 is_stmt 1
	.loc 1 435 9 is_stmt 0
	mv	a0,s7
	sext.w	s7,s7
	bge	s7,s6,.L170
	mv	a0,s6
.L170:
	sext.w	a0,a0
	j	.L65
	.cfi_endproc
.LFE6:
	.size	fmt_fp, .-fmt_fp
	.section	.rodata.str1.8
	.align	3
.LC16:
	.string	"-+   0X0x"
	.align	3
.LC17:
	.string	"(null)"
	.text
	.align	1
	.globl	printf_core
	.type	printf_core, @function
printf_core:
.LFB8:
	.loc 1 446 1 is_stmt 1
	.cfi_startproc
.LVL313:
	addi	sp,sp,-224
	.cfi_def_cfa_offset 224
	sd	ra,216(sp)
	sd	s0,208(sp)
	sd	s1,200(sp)
	sd	s2,192(sp)
	sd	s3,184(sp)
	sd	s4,176(sp)
	sd	s5,168(sp)
	sd	s6,160(sp)
	sd	s7,152(sp)
	sd	s8,144(sp)
	sd	s9,136(sp)
	sd	s10,128(sp)
	sd	s11,120(sp)
	.cfi_offset 1, -8
	.cfi_offset 8, -16
	.cfi_offset 9, -24
	.cfi_offset 18, -32
	.cfi_offset 19, -40
	.cfi_offset 20, -48
	.cfi_offset 21, -56
	.cfi_offset 22, -64
	.cfi_offset 23, -72
	.cfi_offset 24, -80
	.cfi_offset 25, -88
	.cfi_offset 26, -96
	.cfi_offset 27, -104
	mv	s3,a0
	mv	s7,a2
	sd	a3,8(sp)
	sd	a4,0(sp)
	.loc 1 447 2
	.loc 1 447 16 is_stmt 0
	sd	a1,104(sp)
	.loc 1 448 2 is_stmt 1
.LVL314:
	.loc 1 449 2
	.loc 1 450 2
	.loc 1 451 2
	.loc 1 452 2
	.loc 1 453 2
	.loc 1 453 13 is_stmt 0
	li	s0,0
	.loc 1 453 6
	li	s4,0
	.loc 1 448 11
	li	s11,0
	j	.L230
.LVL315:
.L232:
	.loc 1 465 11 is_stmt 1
	.loc 1 465 15 is_stmt 0
	addw	s4,s4,s0
.LVL316:
	j	.L231
.LVL317:
.L239:
	.loc 1 471 47 is_stmt 1 discriminator 4
	.loc 1 471 37 discriminator 4
	.loc 1 471 38 is_stmt 0 discriminator 4
	addi	s0,s0,1
.LVL318:
	.loc 1 471 43 discriminator 4
	addi	a5,a5,2
	sd	a5,104(sp)
.LVL319:
.L237:
	.loc 1 471 13 is_stmt 1 discriminator 1
	.loc 1 471 14 is_stmt 0 discriminator 1
	ld	a5,104(sp)
	lbu	a3,0(a5)
	.loc 1 471 3 discriminator 1
	li	a4,37
	bne	a3,a4,.L238
	.loc 1 471 27 discriminator 3
	lbu	a3,1(a5)
	.loc 1 471 23 discriminator 3
	beq	a3,a4,.L239
.L238:
	.loc 1 472 3 is_stmt 1
	.loc 1 472 5 is_stmt 0
	subw	s0,s0,s2
.LVL320:
	.loc 1 473 3 is_stmt 1
	.loc 1 473 6 is_stmt 0
	beq	s3,zero,.L240
	.loc 1 473 10 is_stmt 1 discriminator 1
	mv	a2,s0
	mv	a1,s2
	mv	a0,s3
	call	out
.LVL321:
.L240:
	.loc 1 474 3
	.loc 1 474 6 is_stmt 0
	beq	s0,zero,.L325
.LVL322:
.L230:
	.loc 1 454 2 is_stmt 1
	.loc 1 455 2
	.loc 1 456 2
	.loc 1 457 2
	.loc 1 459 2
	.loc 1 461 3
	.loc 1 461 6 is_stmt 0
	blt	s4,zero,.L231
	.loc 1 462 4 is_stmt 1
	.loc 1 462 20 is_stmt 0
	li	a5,-2147483648
	xori	a5,a5,-1
	subw	a5,a5,s4
	.loc 1 462 7
	bge	a5,s0,.L232
	.loc 1 463 5 is_stmt 1
	.loc 1 463 11 is_stmt 0
	li	a5,4
	sw	a5,errno,a4
	.loc 1 464 5 is_stmt 1
.LVL323:
	.loc 1 464 9 is_stmt 0
	li	s4,-1
.LVL324:
.L231:
	.loc 1 467 3 is_stmt 1
	.loc 1 467 8 is_stmt 0
	ld	s2,104(sp)
	lbu	a5,0(s2)
	.loc 1 467 6
	beq	a5,zero,.L326
.LVL325:
.L234:
	.loc 1 470 13 is_stmt 1 discriminator 1
	ld	s0,104(sp)
	lbu	a5,0(s0)
	.loc 1 470 3 is_stmt 0 discriminator 1
	beq	a5,zero,.L237
	.loc 1 470 16 discriminator 3
	li	a4,37
	beq	a5,a4,.L237
	.loc 1 470 32 is_stmt 1 discriminator 4
	.loc 1 470 28 discriminator 4
	.loc 1 470 29 is_stmt 0 discriminator 4
	addi	s0,s0,1
	sd	s0,104(sp)
	j	.L234
.LVL326:
.L325:
	.loc 1 476 3 is_stmt 1
	.loc 1 476 16 is_stmt 0
	ld	a5,104(sp)
	lbu	s9,1(a5)
	.loc 1 476 7
	addiw	a3,s9,-48
	.loc 1 476 6
	li	a4,9
	bgtu	a3,a4,.L242
	.loc 1 476 25 discriminator 1
	lbu	a3,2(a5)
	.loc 1 476 21 discriminator 1
	li	a4,36
	beq	a3,a4,.L327
.L242:
	.loc 1 481 4 is_stmt 1
.LVL327:
	.loc 1 482 4
	.loc 1 482 5 is_stmt 0
	addi	a5,a5,1
	sd	a5,104(sp)
	.loc 1 481 11
	li	s9,-1
.LVL328:
.L243:
	.loc 1 486 3 is_stmt 1
	.loc 1 486 10 is_stmt 0
	li	s1,0
	.loc 1 486 3
	j	.L244
.LVL329:
.L327:
	.loc 1 477 4 is_stmt 1
	.loc 1 478 4
	.loc 1 478 11 is_stmt 0
	addiw	s9,s9,-48
.LVL330:
	.loc 1 479 4 is_stmt 1
	.loc 1 479 5 is_stmt 0
	addi	a5,a5,3
.LVL331:
	sd	a5,104(sp)
.LVL332:
	.loc 1 477 8
	li	s11,1
	.loc 1 479 5
	j	.L243
.LVL333:
.L246:
	.loc 1 487 4 is_stmt 1 discriminator 4
	.loc 1 487 12 is_stmt 0 discriminator 4
	li	a5,1
	sllw	a5,a5,a2
	.loc 1 487 7 discriminator 4
	or	s1,s1,a5
.LVL334:
	sext.w	s1,s1
.LVL335:
	.loc 1 486 62 is_stmt 1 discriminator 4
	.loc 1 486 63 is_stmt 0 discriminator 4
	addi	a4,a4,1
	sd	a4,104(sp)
.LVL336:
.L244:
	.loc 1 486 14 is_stmt 1 discriminator 1
	.loc 1 486 24 is_stmt 0 discriminator 1
	ld	a4,104(sp)
	lbu	a3,0(a4)
	.loc 1 486 26 discriminator 1
	addiw	a2,a3,-32
	.loc 1 486 3 discriminator 1
	li	a5,31
	bgtu	a2,a5,.L245
	.loc 1 486 34 discriminator 3
	li	a5,77824
	addiw	a5,a5,-1911
	srlw	a5,a5,a2
	andi	a5,a5,1
	bne	a5,zero,.L246
.L245:
	.loc 1 490 3 is_stmt 1
	.loc 1 490 6 is_stmt 0
	li	a5,42
	bne	a3,a5,.L247
	.loc 1 491 4 is_stmt 1
	.loc 1 491 17 is_stmt 0
	lbu	a5,1(a4)
	.loc 1 491 8
	addiw	a2,a5,-48
	.loc 1 491 7
	li	a3,9
	bgtu	a2,a3,.L248
	.loc 1 491 26 discriminator 1
	lbu	a3,2(a4)
	.loc 1 491 22 discriminator 1
	li	a4,36
	beq	a3,a4,.L328
.L248:
	.loc 1 496 11 is_stmt 1
	.loc 1 496 14 is_stmt 0
	bne	s11,zero,.L301
	.loc 1 497 5 is_stmt 1
	.loc 1 497 30 is_stmt 0
	beq	s3,zero,.L302
	ld	a5,0(s7)
	addi	a4,a5,8
	sd	a4,0(s7)
	lw	s5,0(a5)
.L251:
.LVL337:
	.loc 1 498 5 is_stmt 1 discriminator 4
	.loc 1 498 6 is_stmt 0 discriminator 4
	ld	a5,104(sp)
	addi	a5,a5,1
	sd	a5,104(sp)
.LVL338:
.L249:
	.loc 1 500 4 is_stmt 1
	.loc 1 500 7 is_stmt 0
	bge	s5,zero,.L252
	.loc 1 500 13 is_stmt 1 discriminator 1
	.loc 1 500 15 is_stmt 0 discriminator 1
	li	a5,8192
	or	s1,s1,a5
.LVL339:
	sext.w	s1,s1
.LVL340:
	.loc 1 500 28 discriminator 1
	negw	s5,s5
.LVL341:
	j	.L252
.L328:
	.loc 1 492 5 is_stmt 1
.LVL342:
	.loc 1 493 5
	.loc 1 493 12 is_stmt 0
	slli	a5,a5,2
	addi	a5,a5,-192
	ld	a4,0(sp)
	add	a5,a4,a5
	.loc 1 493 23
	li	a4,10
	sw	a4,0(a5)
	.loc 1 494 5 is_stmt 1
	.loc 1 494 17 is_stmt 0
	ld	a4,104(sp)
	lbu	a5,1(a4)
	.loc 1 494 15
	slli	a5,a5,4
	addi	a5,a5,-768
	ld	a3,8(sp)
	add	a5,a3,a5
	.loc 1 494 7
	lw	s5,0(a5)
.LVL343:
	.loc 1 495 5 is_stmt 1
	.loc 1 495 6 is_stmt 0
	addi	a4,a4,3
	sd	a4,104(sp)
	.loc 1 492 9
	li	s11,1
	.loc 1 495 6
	j	.L249
.LVL344:
.L302:
	.loc 1 497 30
	mv	s5,s0
	j	.L251
.L247:
	.loc 1 501 10 is_stmt 1
	.loc 1 501 17 is_stmt 0
	addi	a0,sp,104
	call	getint
.LVL345:
	mv	s5,a0
.LVL346:
	.loc 1 501 13
	blt	a0,zero,.L303
.LVL347:
.L252:
	.loc 1 504 3 is_stmt 1
	.loc 1 504 7 is_stmt 0
	ld	a5,104(sp)
	lbu	a4,0(a5)
	.loc 1 504 6
	li	a3,46
	bne	a4,a3,.L253
	.loc 1 504 19 discriminator 1
	lbu	a2,1(a5)
	.loc 1 504 15 discriminator 1
	li	a3,42
	bne	a2,a3,.L253
	.loc 1 505 4 is_stmt 1
	.loc 1 505 17 is_stmt 0
	lbu	a4,2(a5)
	.loc 1 505 8
	addiw	a2,a4,-48
	.loc 1 505 7
	li	a3,9
	bgtu	a2,a3,.L254
	.loc 1 505 26 discriminator 1
	lbu	a3,3(a5)
	.loc 1 505 22 discriminator 1
	li	a5,36
	beq	a3,a5,.L329
.L254:
	.loc 1 509 11 is_stmt 1
	.loc 1 509 14 is_stmt 0
	bne	s11,zero,.L304
	.loc 1 510 5 is_stmt 1
	.loc 1 510 30 is_stmt 0
	beq	s3,zero,.L305
	ld	a5,0(s7)
	addi	a4,a5,8
	sd	a4,0(s7)
	lw	s6,0(a5)
.L256:
.LVL348:
	.loc 1 511 5 is_stmt 1 discriminator 4
	.loc 1 511 6 is_stmt 0 discriminator 4
	ld	a5,104(sp)
	addi	a5,a5,2
	sd	a5,104(sp)
	j	.L255
.LVL349:
.L329:
	.loc 1 506 5 is_stmt 1
	.loc 1 506 12 is_stmt 0
	slli	a5,a4,2
	addi	a5,a5,-192
	ld	a4,0(sp)
	add	a5,a4,a5
	.loc 1 506 23
	li	a4,10
	sw	a4,0(a5)
	.loc 1 507 5 is_stmt 1
	.loc 1 507 17 is_stmt 0
	ld	a4,104(sp)
	lbu	a5,2(a4)
	.loc 1 507 15
	slli	a5,a5,4
	addi	a5,a5,-768
	ld	a3,8(sp)
	add	a5,a3,a5
	.loc 1 507 7
	lw	s6,0(a5)
.LVL350:
	.loc 1 508 5 is_stmt 1
	.loc 1 508 6 is_stmt 0
	addi	a4,a4,4
	sd	a4,104(sp)
	j	.L255
.LVL351:
.L305:
	.loc 1 510 30
	mv	s6,s0
	j	.L256
.L253:
	.loc 1 513 10 is_stmt 1
	.loc 1 513 13 is_stmt 0
	li	a3,46
	beq	a4,a3,.L330
	.loc 1 516 12
	li	s6,-1
.L255:
.LVL352:
	.loc 1 519 3 is_stmt 1
	.loc 1 519 5 is_stmt 0
	li	s8,0
	j	.L257
.LVL353:
.L330:
	.loc 1 514 4 is_stmt 1
	.loc 1 514 5 is_stmt 0
	addi	a5,a5,1
	sd	a5,104(sp)
	.loc 1 515 4 is_stmt 1
	.loc 1 515 8 is_stmt 0
	addi	a0,sp,104
	call	getint
.LVL354:
	mv	s6,a0
.LVL355:
	j	.L255
.LVL356:
.L308:
	.loc 1 523 6
	mv	s8,a5
.LVL357:
.L257:
	.loc 1 520 3 is_stmt 1
	.loc 1 521 4
	.loc 1 521 8 is_stmt 0
	ld	a4,104(sp)
	lbu	a5,0(a4)
	addiw	a5,a5,-65
	.loc 1 521 7
	li	a3,57
	bgtu	a5,a3,.L307
	.loc 1 522 4 is_stmt 1
.LVL358:
	.loc 1 523 4
	.loc 1 523 17 is_stmt 0
	addi	a5,a4,1
	sd	a5,104(sp)
	lbu	a5,0(a4)
	addiw	a4,a5,-65
	slli	a5,s8,32
	srli	a5,a5,32
	li	a3,58
	mul	a3,a5,a3
	lla	a5,.LANCHOR0
	add	a5,a5,a3
	add	a5,a5,a4
	lbu	a1,16(a5)
	.loc 1 523 6
	sext.w	a5,a1
.LVL359:
	.loc 1 524 11 is_stmt 1
	.loc 1 524 14 is_stmt 0
	addiw	a3,a1,-1
	.loc 1 524 3
	li	a4,7
	bleu	a3,a4,.L308
	.loc 1 525 3 is_stmt 1
	.loc 1 525 6 is_stmt 0
	beq	a5,zero,.L309
	.loc 1 528 3 is_stmt 1
	.loc 1 528 6 is_stmt 0
	li	a4,27
	beq	a5,a4,.L331
	.loc 1 531 4 is_stmt 1
	.loc 1 531 7 is_stmt 0
	blt	s9,zero,.L260
	.loc 1 531 19 is_stmt 1 discriminator 1
	.loc 1 531 26 is_stmt 0 discriminator 1
	slli	a5,s9,2
.LVL360:
	ld	a4,0(sp)
	add	a5,a4,a5
	.loc 1 531 34 discriminator 1
	sw	a1,0(a5)
	.loc 1 531 49 discriminator 1
	slli	a5,s9,4
	ld	a4,8(sp)
	add	a5,a4,a5
	.loc 1 531 42 discriminator 1
	ld	a4,0(a5)
	sd	a4,80(sp)
	ld	a5,8(a5)
	sd	a5,88(sp)
.LVL361:
.L259:
	.loc 1 536 3 is_stmt 1
	.loc 1 536 6 is_stmt 0
	beq	s3,zero,.L230
	.loc 1 538 3 is_stmt 1
.LVL362:
	.loc 1 539 3
	.loc 1 540 3
	.loc 1 541 3
	.loc 1 541 8 is_stmt 0
	ld	a5,104(sp)
	lbu	a5,-1(a5)
	.loc 1 541 5
	sext.w	s9,a5
.LVL363:
	.loc 1 544 3 is_stmt 1
	.loc 1 544 6 is_stmt 0
	beq	s8,zero,.L261
	.loc 1 544 10 discriminator 1
	andi	a5,a5,15
	li	a4,3
	beq	a5,a4,.L332
.L261:
	.loc 1 547 3 is_stmt 1
	.loc 1 547 10 is_stmt 0
	li	a5,8192
	and	a5,s1,a5
	sext.w	a5,a5
	.loc 1 547 6
	beq	a5,zero,.L262
	.loc 1 547 22 is_stmt 1 discriminator 1
	.loc 1 547 25 is_stmt 0 discriminator 1
	li	a5,-65536
	addi	a5,a5,-1
	and	s1,s1,a5
.LVL364:
.L262:
	.loc 1 549 3 is_stmt 1
	addiw	a5,s9,-65
	sext.w	a3,a5
	li	a4,55
	bgtu	a3,a4,.L312
	slli	a5,a5,32
	srli	a5,a5,32
	slli	a5,a5,2
	lla	a4,.L265
	add	a5,a5,a4
	lw	a5,0(a5)
	add	a5,a5,a4
	jr	a5
	.section	.rodata
	.align	2
	.align	2
.L265:
	.word	.L273-.L265
	.word	.L312-.L265
	.word	.L312-.L265
	.word	.L312-.L265
	.word	.L273-.L265
	.word	.L273-.L265
	.word	.L273-.L265
	.word	.L312-.L265
	.word	.L312-.L265
	.word	.L312-.L265
	.word	.L312-.L265
	.word	.L312-.L265
	.word	.L312-.L265
	.word	.L312-.L265
	.word	.L312-.L265
	.word	.L312-.L265
	.word	.L312-.L265
	.word	.L312-.L265
	.word	.L312-.L265
	.word	.L312-.L265
	.word	.L312-.L265
	.word	.L312-.L265
	.word	.L312-.L265
	.word	.L264-.L265
	.word	.L312-.L265
	.word	.L312-.L265
	.word	.L312-.L265
	.word	.L312-.L265
	.word	.L312-.L265
	.word	.L312-.L265
	.word	.L312-.L265
	.word	.L312-.L265
	.word	.L273-.L265
	.word	.L312-.L265
	.word	.L274-.L265
	.word	.L272-.L265
	.word	.L273-.L265
	.word	.L273-.L265
	.word	.L273-.L265
	.word	.L312-.L265
	.word	.L272-.L265
	.word	.L312-.L265
	.word	.L312-.L265
	.word	.L312-.L265
	.word	.L271-.L265
	.word	.L270-.L265
	.word	.L269-.L265
	.word	.L268-.L265
	.word	.L312-.L265
	.word	.L312-.L265
	.word	.L267-.L265
	.word	.L312-.L265
	.word	.L313-.L265
	.word	.L312-.L265
	.word	.L312-.L265
	.word	.L264-.L265
	.text
.LVL365:
.L331:
	.loc 1 529 4
	.loc 1 529 7 is_stmt 0
	blt	s9,zero,.L259
	.loc 1 529 26
	li	s4,-1
.LVL366:
	j	.L250
.LVL367:
.L260:
	.loc 1 532 9 is_stmt 1
	.loc 1 532 12 is_stmt 0
	beq	s3,zero,.L311
	.loc 1 532 16 is_stmt 1 discriminator 1
	mv	a2,s7
	addi	a0,sp,80
	call	pop_arg
.LVL368:
	j	.L259
.LVL369:
.L332:
	.loc 1 544 24 discriminator 2
	.loc 1 544 25 is_stmt 0 discriminator 2
	andi	s9,s9,223
.LVL370:
	j	.L261
.L270:
	.loc 1 551 4 is_stmt 1
	li	a5,7
	bgtu	s8,a5,.L230
	slli	s8,s8,2
.LVL371:
	lla	a4,.L277
	add	s8,s8,a4
	lw	a5,0(s8)
	add	a5,a5,a4
	jr	a5
	.section	.rodata
	.align	2
	.align	2
.L277:
	.word	.L283-.L277
	.word	.L282-.L277
	.word	.L281-.L277
	.word	.L280-.L277
	.word	.L279-.L277
	.word	.L230-.L277
	.word	.L278-.L277
	.word	.L276-.L277
	.text
.L283:
	.loc 1 552 15
	.loc 1 552 26 is_stmt 0
	ld	a5,80(sp)
	.loc 1 552 29
	sw	s4,0(a5)
	.loc 1 552 36 is_stmt 1
	.loc 1 552 4 is_stmt 0
	j	.L230
.L282:
	.loc 1 553 15 is_stmt 1
	.loc 1 553 27 is_stmt 0
	ld	a5,80(sp)
	.loc 1 553 30
	sd	s4,0(a5)
	.loc 1 553 37 is_stmt 1
	.loc 1 553 4 is_stmt 0
	j	.L230
.L281:
	.loc 1 554 16 is_stmt 1
	.loc 1 554 33 is_stmt 0
	ld	a5,80(sp)
	.loc 1 554 36
	sd	s4,0(a5)
	.loc 1 554 43 is_stmt 1
	.loc 1 554 4 is_stmt 0
	j	.L230
.L280:
	.loc 1 555 15 is_stmt 1
	.loc 1 555 37 is_stmt 0
	ld	a5,80(sp)
	.loc 1 555 40
	sh	s4,0(a5)
	.loc 1 555 47 is_stmt 1
	.loc 1 555 4 is_stmt 0
	j	.L230
.L279:
	.loc 1 556 16 is_stmt 1
	.loc 1 556 37 is_stmt 0
	ld	a5,80(sp)
	.loc 1 556 40
	sb	s4,0(a5)
	.loc 1 556 47 is_stmt 1
	.loc 1 556 4 is_stmt 0
	j	.L230
.L278:
	.loc 1 557 16 is_stmt 1
	.loc 1 557 30 is_stmt 0
	ld	a5,80(sp)
	.loc 1 557 33
	sd	s4,0(a5)
	.loc 1 557 40 is_stmt 1
	.loc 1 557 4 is_stmt 0
	j	.L230
.L276:
	.loc 1 558 15 is_stmt 1
	.loc 1 558 32 is_stmt 0
	ld	a5,80(sp)
	.loc 1 558 35
	sd	s4,0(a5)
	.loc 1 558 42 is_stmt 1
	.loc 1 560 4
	j	.L230
.LVL372:
.L268:
	.loc 1 562 4
	.loc 1 562 6 is_stmt 0
	mv	a5,s6
	sext.w	s6,s6
.LVL373:
	li	a4,16
	bgeu	s6,a4,.L284
	li	a5,16
.LVL374:
.L284:
	sext.w	s6,a5
.LVL375:
	.loc 1 563 4 is_stmt 1
	.loc 1 564 4
	.loc 1 564 7 is_stmt 0
	ori	s1,s1,8
.LVL376:
	.loc 1 563 6
	li	s9,120
.LVL377:
.L264:
	.loc 1 566 4 is_stmt 1
	.loc 1 566 8 is_stmt 0
	andi	a2,s9,32
	addi	a1,sp,79
.LVL378:
	ld	a0,80(sp)
	call	fmt_x
.LVL379:
	mv	s2,a0
.LVL380:
	.loc 1 567 4 is_stmt 1
	.loc 1 567 11 is_stmt 0
	ld	a5,80(sp)
	.loc 1 567 7
	beq	a5,zero,.L314
	.loc 1 567 21 discriminator 1
	andi	a5,s1,8
	.loc 1 567 14 discriminator 1
	beq	a5,zero,.L315
	.loc 1 567 34 is_stmt 1 discriminator 2
	.loc 1 567 44 is_stmt 0 discriminator 2
	srli	s9,s9,4
.LVL381:
	.loc 1 567 40 discriminator 2
	lla	a5,.LC16
	add	s9,s9,a5
.LVL382:
	.loc 1 567 52 discriminator 2
	li	s0,2
.LVL383:
	j	.L285
.LVL384:
.L269:
	.loc 1 570 4 is_stmt 1
	.loc 1 570 8 is_stmt 0
	addi	a1,sp,79
.LVL385:
	ld	a0,80(sp)
	call	fmt_o
.LVL386:
	mv	s2,a0
.LVL387:
	.loc 1 571 4 is_stmt 1
	.loc 1 571 11 is_stmt 0
	andi	a5,s1,8
	.loc 1 571 7
	beq	a5,zero,.L316
	.loc 1 571 28 discriminator 1
	addi	a5,sp,79
.LVL388:
	sub	a5,a5,a0
.LVL389:
	.loc 1 571 22 discriminator 1
	blt	a5,s6,.L317
	.loc 1 571 34 is_stmt 1 discriminator 2
	.loc 1 571 35 is_stmt 0 discriminator 2
	addiw	s6,a5,1
.LVL390:
	.loc 1 539 10 discriminator 2
	lla	s9,.LC16
.LVL391:
	j	.L285
.LVL392:
.L272:
	.loc 1 574 4 is_stmt 1
	.loc 1 575 4
	.loc 1 575 11 is_stmt 0
	ld	a5,80(sp)
	.loc 1 575 7
	blt	a5,zero,.L333
	.loc 1 577 11 is_stmt 1
	.loc 1 577 18 is_stmt 0
	li	a5,4096
	addi	a5,a5,-2048
	and	a5,s1,a5
	.loc 1 577 14
	bne	a5,zero,.L318
	.loc 1 579 11 is_stmt 1
	.loc 1 579 18 is_stmt 0
	andi	a5,s1,1
	.loc 1 579 14
	beq	a5,zero,.L319
	.loc 1 574 6
	li	s0,1
.LVL393:
	.loc 1 580 11
	lla	s9,.LC16+2
.LVL394:
	j	.L266
.LVL395:
.L333:
	.loc 1 576 5 is_stmt 1
	.loc 1 576 11 is_stmt 0
	neg	a5,a5
	.loc 1 576 10
	sd	a5,80(sp)
	.loc 1 574 6
	li	s0,1
.LVL396:
	.loc 1 539 10
	lla	s9,.LC16
.LVL397:
.L266:
	.loc 1 583 4 is_stmt 1
	.loc 1 583 8 is_stmt 0
	addi	a1,sp,79
.LVL398:
	ld	a0,80(sp)
	call	fmt_u
.LVL399:
	mv	s2,a0
.LVL400:
.L285:
	.loc 1 585 4 is_stmt 1
	.loc 1 585 7 is_stmt 0
	blt	s6,zero,.L287
	.loc 1 585 14 is_stmt 1 discriminator 1
	.loc 1 585 17 is_stmt 0 discriminator 1
	li	a5,-65536
	addi	a5,a5,-1
	and	s1,s1,a5
.LVL401:
.L287:
	.loc 1 586 4 is_stmt 1
	.loc 1 586 12 is_stmt 0
	ld	a4,80(sp)
	.loc 1 586 7
	bne	a4,zero,.L288
	.loc 1 586 15 discriminator 1
	beq	s6,zero,.L320
.L288:
	.loc 1 590 4 is_stmt 1
	.loc 1 590 8 is_stmt 0
	addi	a5,sp,79
.LVL402:
	sub	a5,a5,s2
.LVL403:
	seqz	a4,a4
	add	a5,a5,a4
	bge	s6,a5,.L289
	mv	s6,a5
.LVL404:
.L289:
	.loc 1 590 6
	sext.w	s6,s6
.LVL405:
	.loc 1 591 4 is_stmt 1
	.loc 1 538 5 is_stmt 0
	addi	a0,sp,79
.LVL406:
	.loc 1 591 4
	j	.L263
.LVL407:
.L313:
	.loc 1 539 10
	lla	s9,.LC16
.LVL408:
	j	.L266
.LVL409:
.L318:
	.loc 1 574 6
	li	s0,1
.LVL410:
	.loc 1 578 11
	lla	s9,.LC16+1
.LVL411:
	j	.L266
.LVL412:
.L319:
	.loc 1 539 10
	lla	s9,.LC16
.LVL413:
	j	.L266
.LVL414:
.L314:
	lla	s9,.LC16
.LVL415:
	j	.L285
.LVL416:
.L315:
	lla	s9,.LC16
.LVL417:
	j	.L285
.LVL418:
.L316:
	lla	s9,.LC16
.LVL419:
	j	.L285
.LVL420:
.L317:
	lla	s9,.LC16
.LVL421:
	j	.L285
.LVL422:
.L274:
	.loc 1 593 4 is_stmt 1
	.loc 1 593 20 is_stmt 0
	ld	a5,80(sp)
.LVL423:
	.loc 1 593 16
	sb	a5,78(sp)
	.loc 1 594 4 is_stmt 1
	.loc 1 594 7 is_stmt 0
	li	a5,-65536
	addi	a5,a5,-1
	and	s1,s1,a5
.LVL424:
	.loc 1 595 4 is_stmt 1
	.loc 1 539 10 is_stmt 0
	lla	s9,.LC16
.LVL425:
	.loc 1 593 12
	li	s6,1
	.loc 1 538 5
	addi	a0,sp,79
.LVL426:
	.loc 1 593 7
	addi	s2,sp,78
.LVL427:
	.loc 1 595 4
	j	.L263
.LVL428:
.L271:
	.loc 1 597 4 is_stmt 1 discriminator 1
	.loc 1 597 11 discriminator 1
	.loc 1 597 15 is_stmt 0 discriminator 1
	lw	a0,errno
	call	strerror
.LVL429:
	mv	s2,a0
.LVL430:
.L290:
	.loc 1 600 4 is_stmt 1
	.loc 1 600 8 is_stmt 0
	mv	a2,s6
	li	a1,0
	mv	a0,s2
	call	memchr
.LVL431:
	.loc 1 601 4 is_stmt 1
	.loc 1 601 7 is_stmt 0
	beq	a0,zero,.L334
	.loc 1 602 9 is_stmt 1
	.loc 1 602 10 is_stmt 0
	subw	s6,a0,s2
.LVL432:
.L292:
	.loc 1 603 4 is_stmt 1
	.loc 1 603 7 is_stmt 0
	li	a5,-65536
	addi	a5,a5,-1
	and	s1,s1,a5
.LVL433:
	.loc 1 604 4 is_stmt 1
	.loc 1 539 10 is_stmt 0
	lla	s9,.LC16
.LVL434:
	.loc 1 604 4
	j	.L263
.LVL435:
.L267:
	.loc 1 599 4 is_stmt 1
	.loc 1 599 11 is_stmt 0
	ld	s2,80(sp)
	.loc 1 599 22
	bne	s2,zero,.L290
	lla	s2,.LC17
	j	.L290
.LVL436:
.L334:
	.loc 1 601 12 is_stmt 1 discriminator 1
	.loc 1 601 13 is_stmt 0 discriminator 1
	add	a0,s2,s6
.LVL437:
	j	.L292
.LVL438:
.L273:
	.loc 1 607 4 is_stmt 1
	.loc 1 607 8 is_stmt 0
	mv	a6,s9
	mv	a5,s1
	mv	a4,s6
	mv	a3,s5
	ld	a1,80(sp)
	ld	a2,88(sp)
	mv	a0,s3
	call	fmt_fp
.LVL439:
	mv	s0,a0
.LVL440:
	.loc 1 608 4 is_stmt 1
	j	.L230
.L312:
	.loc 1 539 10 is_stmt 0
	lla	s9,.LC16
.LVL441:
	addi	a0,sp,79
.LVL442:
.L263:
	.loc 1 611 3 is_stmt 1
	.loc 1 611 12 is_stmt 0
	sub	s8,a0,s2
.LVL443:
	.loc 1 611 6
	bge	s6,s8,.L293
	.loc 1 611 16 is_stmt 1 discriminator 1
	.loc 1 611 18 is_stmt 0 discriminator 1
	sext.w	s6,s8
.LVL444:
.L293:
	.loc 1 612 3 is_stmt 1
	.loc 1 612 13 is_stmt 0
	addw	s10,s6,s0
	.loc 1 612 6
	ble	s10,s5,.L294
	.loc 1 612 19
	mv	s5,s10
.LVL445:
.L294:
	.loc 1 614 3 is_stmt 1
	mv	a4,s1
	mv	a3,s10
	mv	a2,s5
	li	a1,32
	mv	a0,s3
.LVL446:
	call	pad
.LVL447:
	.loc 1 615 3
	mv	a2,s0
	mv	a1,s9
	mv	a0,s3
	call	out
.LVL448:
	.loc 1 616 3
	.loc 1 616 26 is_stmt 0
	li	a4,65536
	xor	a4,s1,a4
	.loc 1 616 3
	sext.w	a4,a4
	mv	a3,s10
	mv	a2,s5
	li	a1,48
	mv	a0,s3
	call	pad
.LVL449:
	.loc 1 617 3 is_stmt 1
	li	a4,0
	sext.w	a3,s8
	mv	a2,s6
	li	a1,48
	mv	a0,s3
	call	pad
.LVL450:
	.loc 1 618 3
	mv	a2,s8
	mv	a1,s2
	mv	a0,s3
	call	out
.LVL451:
	.loc 1 619 3
	.loc 1 619 26 is_stmt 0
	li	a4,8192
	xor	a4,s1,a4
	.loc 1 619 3
	sext.w	a4,a4
	mv	a3,s10
	mv	a2,s5
	li	a1,32
	mv	a0,s3
	call	pad
.LVL452:
	.loc 1 621 3 is_stmt 1
	.loc 1 621 5 is_stmt 0
	mv	s0,s5
.LVL453:
	j	.L230
.LVL454:
.L320:
	.loc 1 538 5
	addi	a0,sp,79
.LVL455:
	.loc 1 587 6
	mv	s2,a0
.LVL456:
	j	.L263
.LVL457:
.L326:
	.loc 1 624 2 is_stmt 1
	.loc 1 624 5 is_stmt 0
	bne	s3,zero,.L250
	.loc 1 625 2 is_stmt 1
	.loc 1 625 5 is_stmt 0
	beq	s11,zero,.L322
	.loc 1 627 8
	li	s0,1
.LVL458:
	j	.L295
.LVL459:
.L297:
	.loc 1 628 3 is_stmt 1 discriminator 4
	.loc 1 628 17 is_stmt 0 discriminator 4
	slli	a0,s0,4
	.loc 1 628 3 discriminator 4
	mv	a2,s7
	ld	a5,8(sp)
	add	a0,a5,a0
	call	pop_arg
.LVL460:
	.loc 1 627 40 is_stmt 1 discriminator 4
	.loc 1 627 41 is_stmt 0 discriminator 4
	addiw	s0,s0,1
.LVL461:
.L295:
	.loc 1 627 12 is_stmt 1 discriminator 1
	.loc 1 627 2 is_stmt 0 discriminator 1
	li	a5,9
	bgt	s0,a5,.L298
	.loc 1 627 35 discriminator 3
	slli	a5,s0,2
	ld	a4,0(sp)
	add	a5,a4,a5
	lw	a1,0(a5)
	.loc 1 627 25 discriminator 3
	bne	a1,zero,.L297
	j	.L298
.L300:
	.loc 1 629 42 is_stmt 1 discriminator 3
	.loc 1 629 38 discriminator 3
	.loc 1 629 39 is_stmt 0 discriminator 3
	addiw	s0,s0,1
.LVL462:
.L298:
	.loc 1 629 9 is_stmt 1 discriminator 1
	.loc 1 629 2 is_stmt 0 discriminator 1
	li	a5,9
	bgt	s0,a5,.L299
	.loc 1 629 33 discriminator 2
	slli	a5,s0,2
	ld	a4,0(sp)
	add	a5,a4,a5
	lw	a5,0(a5)
	.loc 1 629 22 discriminator 2
	beq	a5,zero,.L300
.L299:
	.loc 1 630 2 is_stmt 1
	.loc 1 630 5 is_stmt 0
	li	a5,9
	ble	s0,a5,.L323
	.loc 1 631 9
	li	s4,1
.LVL463:
	j	.L250
.LVL464:
.L301:
	.loc 1 499 18
	li	s4,-1
.LVL465:
	j	.L250
.LVL466:
.L303:
	.loc 1 501 39
	li	s4,-1
.LVL467:
	j	.L250
.LVL468:
.L304:
	.loc 1 512 18
	li	s4,-1
.LVL469:
	j	.L250
.LVL470:
.L307:
	.loc 1 521 24
	li	s4,-1
.LVL471:
.L250:
	.loc 1 632 1
	mv	a0,s4
	ld	ra,216(sp)
	.cfi_remember_state
	.cfi_restore 1
	ld	s0,208(sp)
	.cfi_restore 8
	ld	s1,200(sp)
	.cfi_restore 9
	ld	s2,192(sp)
	.cfi_restore 18
	ld	s3,184(sp)
	.cfi_restore 19
.LVL472:
	ld	s4,176(sp)
	.cfi_restore 20
	ld	s5,168(sp)
	.cfi_restore 21
	ld	s6,160(sp)
	.cfi_restore 22
	ld	s7,152(sp)
	.cfi_restore 23
.LVL473:
	ld	s8,144(sp)
	.cfi_restore 24
	ld	s9,136(sp)
	.cfi_restore 25
	ld	s10,128(sp)
	.cfi_restore 26
	ld	s11,120(sp)
	.cfi_restore 27
.LVL474:
	addi	sp,sp,224
	.cfi_def_cfa_offset 0
.LVL475:
	jr	ra
.LVL476:
.L309:
	.cfi_restore_state
	.loc 1 525 19
	li	s4,-1
.LVL477:
	j	.L250
.LVL478:
.L311:
	.loc 1 533 16
	mv	s4,s0
.LVL479:
	j	.L250
.LVL480:
.L322:
	.loc 1 625 20
	li	s4,0
.LVL481:
	j	.L250
.LVL482:
.L323:
	.loc 1 630 27
	li	s4,-1
.LVL483:
	j	.L250
	.cfi_endproc
.LFE8:
	.size	printf_core, .-printf_core
	.align	1
	.globl	vfprintf
	.type	vfprintf, @function
vfprintf:
.LFB9:
	.loc 1 635 1 is_stmt 1
	.cfi_startproc
.LVL484:
	addi	sp,sp,-240
	.cfi_def_cfa_offset 240
	sd	ra,232(sp)
	sd	s0,224(sp)
	sd	s1,216(sp)
	.cfi_offset 1, -8
	.cfi_offset 8, -16
	.cfi_offset 9, -24
	mv	s0,a0
	mv	s1,a1
	.loc 1 636 2
	.loc 1 637 2
	.loc 1 637 6 is_stmt 0
	sd	zero,160(sp)
	sd	zero,168(sp)
	sd	zero,176(sp)
	sd	zero,184(sp)
	sd	zero,192(sp)
	.loc 1 638 2 is_stmt 1
	.loc 1 639 2
	.loc 1 642 2
	sd	a2,200(sp)
	.loc 1 643 2
	.loc 1 643 6 is_stmt 0
	addi	a4,sp,160
	mv	a3,sp
	addi	a2,sp,200
.LVL485:
	li	a0,0
.LVL486:
	call	printf_core
.LVL487:
	.loc 1 643 5
	blt	a0,zero,.L337
	.loc 1 648 2 is_stmt 1
	.loc 1 648 8 is_stmt 0
	addi	a4,sp,160
	mv	a3,sp
	addi	a2,sp,200
	mv	a1,s1
	mv	a0,s0
	call	printf_core
.LVL488:
	.loc 1 649 2 is_stmt 1
	.loc 1 650 2
.L336:
	.loc 1 651 1 is_stmt 0
	ld	ra,232(sp)
	.cfi_remember_state
	.cfi_restore 1
	ld	s0,224(sp)
	.cfi_restore 8
.LVL489:
	ld	s1,216(sp)
	.cfi_restore 9
.LVL490:
	addi	sp,sp,240
	.cfi_def_cfa_offset 0
	jr	ra
.LVL491:
.L337:
	.cfi_restore_state
	.loc 1 645 10
	li	a0,-1
	j	.L336
	.cfi_endproc
.LFE9:
	.size	vfprintf, .-vfprintf
	.section	.rodata.cst16,"aM",@progbits,16
	.align	4
.LC5:
	.word	0
	.word	0
	.word	0
	.word	1073872896
	.align	4
.LC6:
	.word	1
	.word	0
	.word	0
	.word	1081081856
	.align	4
.LC7:
	.word	0
	.word	0
	.word	0
	.word	1081081856
	.align	4
.LC8:
	.word	0
	.word	0
	.word	0
	.word	1073709056
	.align	4
.LC9:
	.word	0
	.word	0
	.word	0
	.word	1073610752
	.align	4
.LC10:
	.word	0
	.word	0
	.word	0
	.word	1073676288
	.align	4
.LC11:
	.word	4294967295
	.word	4294967295
	.word	4294967295
	.word	2147418111
	.align	4
.LC12:
	.word	0
	.word	0
	.word	0
	.word	1073938432
	.align	4
.LC13:
	.word	0
	.word	0
	.word	0
	.word	1075511296
	.align	4
.LC14:
	.word	0
	.word	0
	.word	1342177280
	.word	1075633366
	.section	.rodata
	.align	3
	.set	.LANCHOR0,. + 0
	.type	xdigits, @object
	.size	xdigits, 16
xdigits:
	.ascii	"0123456789ABCDEF"
	.type	states, @object
	.size	states, 464
states:
	.string	"\031"
	.string	"\n"
	.string	"\031\031\031"
	.string	""
	.string	""
	.string	""
	.string	"\005"
	.string	""
	.string	""
	.string	""
	.string	""
	.string	""
	.string	"\t"
	.string	""
	.string	""
	.string	""
	.string	"\013"
	.string	""
	.string	""
	.string	""
	.string	""
	.string	""
	.string	""
	.string	""
	.string	"\031"
	.string	"\021\n\031\031\031\003\n\007"
	.string	"\001\033\t\013\030"
	.string	""
	.string	"\t\006\013"
	.string	""
	.string	"\013"
	.ascii	"\006"
	.string	"\031"
	.string	""
	.string	""
	.string	"\031\031\031"
	.string	""
	.string	""
	.string	""
	.string	""
	.string	""
	.string	""
	.string	""
	.string	""
	.string	""
	.string	""
	.string	""
	.string	""
	.string	""
	.string	""
	.string	""
	.string	"\016"
	.string	""
	.string	""
	.string	""
	.string	""
	.string	""
	.string	""
	.string	""
	.string	"\031"
	.string	"\n\r\031\031\031"
	.string	"\r"
	.string	""
	.string	"\002"
	.string	"\t\016"
	.string	""
	.string	""
	.string	"\t"
	.string	"\016"
	.string	""
	.string	"\016"
	.zero	1
	.string	""
	.string	""
	.string	""
	.string	""
	.string	""
	.string	""
	.string	""
	.string	""
	.string	""
	.string	""
	.string	""
	.string	""
	.string	""
	.string	""
	.string	""
	.string	""
	.string	""
	.string	""
	.string	""
	.string	""
	.string	""
	.string	""
	.string	""
	.string	"\f"
	.string	""
	.string	""
	.string	""
	.string	""
	.string	""
	.string	""
	.string	""
	.string	""
	.string	""
	.string	""
	.string	"\023"
	.string	""
	.string	""
	.string	""
	.string	"\023"
	.string	""
	.string	""
	.string	""
	.string	"\t\f"
	.string	""
	.string	""
	.string	""
	.string	""
	.string	"\f"
	.string	""
	.string	"\f"
	.zero	1
	.string	""
	.string	""
	.string	""
	.string	""
	.string	""
	.string	""
	.string	""
	.string	""
	.string	""
	.string	""
	.string	""
	.string	""
	.string	""
	.string	""
	.string	""
	.string	""
	.string	""
	.string	""
	.string	""
	.string	""
	.string	""
	.string	""
	.string	""
	.string	"\020"
	.string	""
	.string	""
	.string	""
	.string	""
	.string	""
	.string	""
	.string	""
	.string	""
	.string	""
	.string	""
	.string	"\017"
	.string	""
	.string	""
	.string	"\004\017"
	.string	""
	.string	""
	.string	""
	.string	"\t\020"
	.string	""
	.string	""
	.string	""
	.string	""
	.string	"\020"
	.string	""
	.string	"\020"
	.zero	1
	.string	""
	.string	""
	.string	""
	.string	""
	.string	""
	.string	""
	.string	""
	.string	""
	.string	""
	.string	""
	.string	""
	.string	""
	.string	""
	.string	""
	.string	""
	.string	""
	.string	""
	.string	""
	.string	""
	.string	""
	.string	""
	.string	""
	.string	""
	.string	"\022"
	.string	""
	.string	""
	.string	""
	.string	""
	.string	""
	.string	""
	.string	""
	.string	""
	.string	""
	.string	""
	.string	"\021"
	.string	""
	.string	""
	.string	""
	.string	"\021"
	.string	""
	.string	""
	.string	""
	.string	"\t\022"
	.string	""
	.string	""
	.string	""
	.string	""
	.string	"\022"
	.string	""
	.string	"\022"
	.zero	1
	.string	"\032"
	.string	""
	.string	""
	.string	"\032\032\032"
	.string	""
	.string	""
	.string	""
	.string	""
	.string	""
	.string	""
	.string	""
	.string	""
	.string	""
	.string	""
	.string	""
	.string	""
	.string	""
	.string	""
	.string	""
	.string	""
	.string	""
	.string	""
	.string	""
	.string	""
	.string	""
	.string	""
	.string	""
	.string	""
	.string	"\032"
	.string	""
	.string	""
	.string	"\032\032\032"
	.string	""
	.string	""
	.string	""
	.string	""
	.string	""
	.string	"\t"
	.zero	11
	.string	""
	.string	""
	.string	""
	.string	""
	.string	""
	.string	""
	.string	""
	.string	""
	.string	""
	.string	""
	.string	""
	.string	""
	.string	""
	.string	""
	.string	""
	.string	""
	.string	""
	.string	""
	.string	""
	.string	""
	.string	""
	.string	""
	.string	""
	.string	"\024"
	.string	""
	.string	""
	.string	""
	.string	""
	.string	""
	.string	""
	.string	""
	.string	""
	.string	""
	.string	""
	.string	"\027"
	.string	""
	.string	""
	.string	""
	.string	"\027"
	.string	""
	.string	""
	.string	""
	.string	"\t\024"
	.string	""
	.string	""
	.string	""
	.string	""
	.string	"\024"
	.string	""
	.string	"\024"
	.zero	1
	.string	""
	.string	""
	.string	""
	.string	""
	.string	""
	.string	""
	.string	""
	.string	""
	.string	""
	.string	""
	.string	""
	.string	""
	.string	""
	.string	""
	.string	""
	.string	""
	.string	""
	.string	""
	.string	""
	.string	""
	.string	""
	.string	""
	.string	""
	.string	"\026"
	.string	""
	.string	""
	.string	""
	.string	""
	.string	""
	.string	""
	.string	""
	.string	""
	.string	""
	.string	""
	.string	"\025"
	.string	""
	.string	""
	.string	""
	.string	"\025"
	.string	""
	.string	""
	.string	""
	.string	"\t\026"
	.string	""
	.string	""
	.string	""
	.string	""
	.string	"\026"
	.string	""
	.string	"\026"
	.zero	1
	.text
.Letext0:
	.file 2 "/home/sai/Shakti-TEE-Build/riscv/lib/gcc/riscv64-unknown-elf/9.2.0/include/stdarg.h"
	.file 3 "/home/sai/Shakti-TEE-Build/riscv/lib/gcc/riscv64-unknown-elf/9.2.0/include/stddef.h"
	.file 4 "/home/sai/ocaml-freestanding-riscv/nolibc/include/stdio.h"
	.file 5 "/home/sai/ocaml-freestanding-riscv/nolibc/include/errno.h"
	.file 6 "/home/sai/Shakti-TEE-Build/riscv/riscv64-unknown-elf/include/machine/_default_types.h"
	.file 7 "/home/sai/Shakti-TEE-Build/riscv/riscv64-unknown-elf/include/sys/_types.h"
	.file 8 "/home/sai/Shakti-TEE-Build/riscv/riscv64-unknown-elf/include/sys/reent.h"
	.file 9 "/home/sai/Shakti-TEE-Build/riscv/riscv64-unknown-elf/include/sys/lock.h"
	.file 10 "/home/sai/Shakti-TEE-Build/riscv/riscv64-unknown-elf/include/sys/_stdint.h"
	.file 11 "/home/sai/ocaml-freestanding-riscv/nolibc/include/string.h"
	.file 12 "/home/sai/Shakti-TEE-Build/riscv/riscv64-unknown-elf/include/math.h"