	.file	"backtrace.c"
	.option nopic
	.attribute arch, "rv64i2p0_m2p0_a2p0_f2p0_d2p0_c2p0"
	.attribute unaligned_access, 0
	.attribute stack_align, 16
	.text
.Ltext0:
	.cfi_sections	.debug_frame
	.section	.rodata.str1.8,"aMS",@progbits,1
	.align	3
.LC0:
	.string	"Re-raised at"
	.align	3
.LC1:
	.string	"Raised at"
	.align	3
.LC2:
	.string	"Called from"
	.align	3
.LC3:
	.string	"Raised by primitive operation at"
	.align	3
.LC4:
	.string	""
	.align	3
.LC5:
	.string	" (inlined)"
	.align	3
.LC6:
	.string	"%s unknown location%s\n"
	.align	3
.LC7:
	.string	"%s file \"%s\"%s, line %d, characters %d-%d\n"
	.text
	.align	1
	.type	print_location, @function
print_location:
.LFB15:
	.file 1 "backtrace.c"
	.loc 1 76 1
	.cfi_startproc
.LVL0:
	.loc 1 77 3
	.loc 1 78 3
	.loc 1 81 3
	.loc 1 81 10 is_stmt 0
	lw	a5,0(a0)
	.loc 1 81 6
	bne	a5,zero,.L2
	.loc 1 81 27 discriminator 1
	lw	a4,4(a0)
	.loc 1 81 22 discriminator 1
	bne	a4,zero,.L12
.L2:
	.loc 1 76 1
	addi	sp,sp,-16
	.cfi_def_cfa_offset 16
	sd	ra,8(sp)
	.cfi_offset 1, -8
	.loc 1 83 3 is_stmt 1
	.loc 1 83 9 is_stmt 0
	lw	a4,4(a0)
	.loc 1 83 6
	beq	a4,zero,.L4
	.loc 1 85 5 is_stmt 1
	.loc 1 85 8 is_stmt 0
	bne	a1,zero,.L8
	.loc 1 86 12
	lla	a2,.LC1
.L5:
.LVL1:
	.loc 1 95 3 is_stmt 1
	.loc 1 95 9 is_stmt 0
	lw	a4,28(a0)
	.loc 1 95 6
	beq	a4,zero,.L10
	.loc 1 96 13
	lla	a4,.LC5
.L6:
.LVL2:
	.loc 1 100 3 is_stmt 1
	.loc 1 100 6 is_stmt 0
	bne	a5,zero,.L7
	.loc 1 101 5 is_stmt 1
	mv	a3,a4
	lla	a1,.LC6
.LVL3:
	ld	a0,stderr
.LVL4:
	call	fprintf
.LVL5:
.L1:
	.loc 1 107 1 is_stmt 0
	ld	ra,8(sp)
	.cfi_remember_state
	.cfi_restore 1
	addi	sp,sp,16
	.cfi_def_cfa_offset 0
	jr	ra
.LVL6:
.L4:
	.cfi_restore_state
	.loc 1 90 5 is_stmt 1
	.loc 1 90 8 is_stmt 0
	bne	a1,zero,.L9
	.loc 1 91 12
	lla	a2,.LC3
	j	.L5
.L8:
	.loc 1 88 12
	lla	a2,.LC0
	j	.L5
.L9:
	.loc 1 93 12
	lla	a2,.LC2
	j	.L5
.LVL7:
.L10:
	.loc 1 98 13
	lla	a4,.LC4
	j	.L6
.LVL8:
.L7:
	.loc 1 103 5 is_stmt 1
	lw	a7,24(a0)
	lw	a6,20(a0)
	lw	a5,16(a0)
	ld	a3,8(a0)
	lla	a1,.LC7
.LVL9:
	ld	a0,stderr
.LVL10:
	call	fprintf
.LVL11:
	j	.L1
.LVL12:
.L12:
	.cfi_def_cfa_offset 0
	.cfi_restore 1
	ret
	.cfi_endproc
.LFE15:
	.size	print_location, .-print_location
	.align	1
	.type	caml_convert_debuginfo, @function
caml_convert_debuginfo:
.LFB19:
	.loc 1 212 1
	.cfi_startproc
.LVL13:
	addi	sp,sp,-128
	.cfi_def_cfa_offset 128
	sd	ra,120(sp)
	sd	s0,112(sp)
	.cfi_offset 1, -8
	.cfi_offset 8, -16
	.loc 1 213 3
	lla	a4,caml_local_roots
	ld	s0,0(a4)
.LVL14:
	.loc 1 214 3
	li	a5,1
	sd	a5,104(sp)
	sd	a5,96(sp)
	.loc 1 214 3
	.loc 1 214 3
	sd	s0,32(sp)
	addi	a3,sp,32
	sd	a3,0(a4)
	sd	a5,48(sp)
	li	a5,2
	sd	a5,40(sp)
	addi	a5,sp,104
	sd	a5,56(sp)
	addi	a5,sp,96
	sd	a5,64(sp)
.LVL15:
	.loc 1 215 3
	.loc 1 217 3
	mv	a1,sp
	call	caml_debuginfo_location
.LVL16:
	.loc 1 219 3
	.loc 1 219 9 is_stmt 0
	lw	a5,0(sp)
	.loc 1 219 6
	beq	a5,zero,.L15
	.loc 1 220 5 is_stmt 1
	.loc 1 220 13 is_stmt 0
	ld	a0,8(sp)
	call	caml_copy_string
.LVL17:
	.loc 1 220 11
	sd	a0,96(sp)
	.loc 1 221 5 is_stmt 1
	.loc 1 221 9 is_stmt 0
	li	a1,0
	li	a0,6
	call	caml_alloc_small
.LVL18:
	.loc 1 221 7
	sd	a0,104(sp)
	.loc 1 222 5 is_stmt 1
	.loc 1 222 19 is_stmt 0
	lw	a5,4(sp)
	beq	a5,zero,.L20
	li	a5,3
.L16:
	.loc 1 222 17 discriminator 4
	sd	a5,0(a0)
	.loc 1 223 5 is_stmt 1 discriminator 4
	.loc 1 223 17 is_stmt 0 discriminator 4
	ld	a4,96(sp)
	ld	a5,104(sp)
	sd	a4,8(a5)
	.loc 1 224 5 is_stmt 1 discriminator 4
	.loc 1 224 19 is_stmt 0 discriminator 4
	lw	a5,16(sp)
	slli	a5,a5,1
	addi	a5,a5,1
	.loc 1 224 17 discriminator 4
	ld	a4,104(sp)
	sd	a5,16(a4)
	.loc 1 225 5 is_stmt 1 discriminator 4
	.loc 1 225 19 is_stmt 0 discriminator 4
	lw	a5,20(sp)
	slli	a5,a5,1
	addi	a5,a5,1
	.loc 1 225 17 discriminator 4
	ld	a4,104(sp)
	sd	a5,24(a4)
	.loc 1 226 5 is_stmt 1 discriminator 4
	.loc 1 226 19 is_stmt 0 discriminator 4
	lw	a5,24(sp)
	slli	a5,a5,1
	addi	a5,a5,1
	.loc 1 226 17 discriminator 4
	ld	a4,104(sp)
	sd	a5,32(a4)
	.loc 1 227 5 is_stmt 1 discriminator 4
	.loc 1 227 19 is_stmt 0 discriminator 4
	lw	a5,28(sp)
	beq	a5,zero,.L21
	.loc 1 227 19
	li	a4,3
.L17:
	.loc 1 227 5 discriminator 4
	ld	a5,104(sp)
	.loc 1 227 17 discriminator 4
	sd	a4,40(a5)
.L18:
	.loc 1 233 3 is_stmt 1
.LBB2:
	.loc 1 233 3
.LVL19:
	.loc 1 233 3
	sd	s0,caml_local_roots,a5
	.loc 1 233 3
.LBE2:
	.loc 1 233 3
	.loc 1 234 1 is_stmt 0
	ld	a0,104(sp)
	ld	ra,120(sp)
	.cfi_remember_state
	.cfi_restore 1
	ld	s0,112(sp)
	.cfi_restore 8
.LVL20:
	addi	sp,sp,128
	.cfi_def_cfa_offset 0
.LVL21:
	jr	ra
.LVL22:
.L20:
	.cfi_restore_state
	.loc 1 222 19
	li	a5,1
	j	.L16
.L21:
	.loc 1 227 19
	li	a4,1
	j	.L17
.L15:
	.loc 1 229 5 is_stmt 1
	.loc 1 229 9 is_stmt 0
	li	a1,1
	li	a0,1
	call	caml_alloc_small
.LVL23:
	.loc 1 229 7
	sd	a0,104(sp)
	.loc 1 230 5 is_stmt 1
	.loc 1 230 19 is_stmt 0
	lw	a5,4(sp)
	beq	a5,zero,.L22
	li	a5,3
.L19:
	.loc 1 230 17 discriminator 4
	sd	a5,0(a0)
	j	.L18
.L22:
	.loc 1 230 19
	li	a5,1
	j	.L19
	.cfi_endproc
.LFE19:
	.size	caml_convert_debuginfo, .-caml_convert_debuginfo
	.align	1
	.globl	caml_init_backtrace
	.type	caml_init_backtrace, @function
caml_init_backtrace:
.LFB12:
	.loc 1 39 1 is_stmt 1
	.cfi_startproc
	addi	sp,sp,-16
	.cfi_def_cfa_offset 16
	sd	ra,8(sp)
	.cfi_offset 1, -8
	.loc 1 40 3
	lla	a0,caml_backtrace_last_exn
	call	caml_register_global_root
.LVL24:
	.loc 1 41 1 is_stmt 0
	ld	ra,8(sp)
	.cfi_restore 1
	addi	sp,sp,16
	.cfi_def_cfa_offset 0
	jr	ra
	.cfi_endproc
.LFE12:
	.size	caml_init_backtrace, .-caml_init_backtrace
	.align	1
	.globl	caml_record_backtrace
	.type	caml_record_backtrace, @function
caml_record_backtrace:
.LFB13:
	.loc 1 45 1 is_stmt 1
	.cfi_startproc
.LVL25:
	.loc 1 46 3
	.loc 1 46 14 is_stmt 0
	srai	a0,a0,1
.LVL26:
	.loc 1 46 7
	sext.w	a0,a0
.LVL27:
	.loc 1 48 3 is_stmt 1
	.loc 1 48 12 is_stmt 0
	lw	a5,caml_backtrace_active
	.loc 1 48 6
	beq	a5,a0,.L27
	.loc 1 49 5 is_stmt 1
	.loc 1 49 27 is_stmt 0
	sw	a0,caml_backtrace_active,a5
	.loc 1 50 5 is_stmt 1
	.loc 1 50 24 is_stmt 0
	sw	zero,caml_backtrace_pos,a5
	.loc 1 51 5 is_stmt 1
	.loc 1 51 29 is_stmt 0
	li	a5,1
	sd	a5,caml_backtrace_last_exn,a4
.L27:
	.loc 1 58 3 is_stmt 1
	.loc 1 59 1 is_stmt 0
	li	a0,1
.LVL28:
	ret
	.cfi_endproc
.LFE13:
	.size	caml_record_backtrace, .-caml_record_backtrace
	.align	1
	.globl	caml_backtrace_status
	.type	caml_backtrace_status, @function
caml_backtrace_status:
.LFB14:
	.loc 1 63 1 is_stmt 1
	.cfi_startproc
.LVL29:
	.loc 1 64 3
	.loc 1 64 10 is_stmt 0
	lw	a5,caml_backtrace_active
	bne	a5,zero,.L31
	li	a0,1
.LVL30:
	.loc 1 65 1
	ret
.LVL31:
.L31:
	.loc 1 64 10
	li	a0,3
.LVL32:
	ret
	.cfi_endproc
.LFE14:
	.size	caml_backtrace_status, .-caml_backtrace_status
	.section	.rodata.str1.8
	.align	3
.LC8:
	.string	"(Cannot print stack backtrace: no debug information available)\n"
	.text
	.align	1
	.globl	caml_print_exception_backtrace
	.type	caml_print_exception_backtrace, @function
caml_print_exception_backtrace:
.LFB16:
	.loc 1 111 1 is_stmt 1
	.cfi_startproc
	addi	sp,sp,-64
	.cfi_def_cfa_offset 64
	sd	ra,56(sp)
	sd	s0,48(sp)
	sd	s1,40(sp)
	.cfi_offset 1, -8
	.cfi_offset 8, -16
	.cfi_offset 9, -24
	.loc 1 112 3
	.loc 1 113 3
	.loc 1 114 3
	.loc 1 116 3
	.loc 1 116 8 is_stmt 0
	call	caml_debug_info_available
.LVL33:
	.loc 1 116 6
	beq	a0,zero,.L40
	.loc 1 122 10
	li	s1,0
	j	.L33
.L40:
	.loc 1 117 5 is_stmt 1
	ld	a3,stderr
	li	a2,63
	li	a1,1
	lla	a0,.LC8
	call	fwrite
.LVL34:
	.loc 1 119 5
.L32:
	.loc 1 131 1 is_stmt 0
	ld	ra,56(sp)
	.cfi_remember_state
	.cfi_restore 1
	ld	s0,48(sp)
	.cfi_restore 8
	ld	s1,40(sp)
	.cfi_restore 9
	addi	sp,sp,64
	.cfi_def_cfa_offset 0
	jr	ra
.LVL35:
.L36:
	.cfi_restore_state
	.loc 1 127 7 is_stmt 1
	mv	a1,sp
	mv	a0,s0
	call	caml_debuginfo_location
.LVL36:
	.loc 1 128 7
	mv	a1,s1
	mv	a0,sp
	call	print_location
.LVL37:
	.loc 1 125 10
	.loc 1 125 16 is_stmt 0
	mv	a0,s0
	call	caml_debuginfo_next
.LVL38:
	mv	s0,a0
.LVL39:
.L35:
	.loc 1 124 10 is_stmt 1 discriminator 1
	.loc 1 123 5 is_stmt 0 discriminator 1
	bne	s0,zero,.L36
	.loc 1 122 39 is_stmt 1 discriminator 2
	.loc 1 122 40 is_stmt 0 discriminator 2
	addiw	s1,s1,1
.LVL40:
.L33:
	.loc 1 122 15 is_stmt 1 discriminator 1
	.loc 1 122 17 is_stmt 0 discriminator 1
	lw	a5,caml_backtrace_pos
	.loc 1 122 3 discriminator 1
	ble	a5,s1,.L32
	.loc 1 123 5 is_stmt 1
	.loc 1 123 60 is_stmt 0
	slli	a5,s1,3
	ld	a4,caml_backtrace_buffer
	add	a5,a4,a5
	.loc 1 123 16
	ld	a0,0(a5)
	call	caml_debuginfo_extract
.LVL41:
	mv	s0,a0
.LVL42:
	.loc 1 123 5
	j	.L35
	.cfi_endproc
.LFE16:
	.size	caml_print_exception_backtrace, .-caml_print_exception_backtrace
	.align	1
	.globl	caml_get_exception_raw_backtrace
	.type	caml_get_exception_raw_backtrace, @function
caml_get_exception_raw_backtrace:
.LFB17:
	.loc 1 135 1 is_stmt 1
	.cfi_startproc
.LVL43:
	addi	sp,sp,-128
	.cfi_def_cfa_offset 128
	sd	ra,120(sp)
	sd	s0,112(sp)
	sd	s1,104(sp)
	sd	s2,96(sp)
	li	t1,-8192
	add	sp,sp,t1
	.cfi_def_cfa_offset 8320
	.cfi_offset 1, -8
	.cfi_offset 8, -16
	.cfi_offset 9, -24
	.cfi_offset 18, -32
	.loc 1 136 3
	lla	a4,caml_local_roots
	ld	s1,0(a4)
.LVL44:
	.loc 1 137 3
	li	a5,1
	li	a2,8192
	addi	a3,a2,72
	addi	a1,sp,16
	add	a3,a3,a1
	sd	a5,0(a3)
	.loc 1 137 3
	.loc 1 137 3
	addi	a3,a2,8
	add	a3,a3,a1
	sd	s1,0(a3)
	addi	a3,a2,8
	add	a3,a1,a3
	sd	a3,0(a4)
	addi	a3,a2,24
	add	a3,a3,a1
	sd	a5,0(a3)
	addi	a3,a2,16
	add	a3,a3,a1
	sd	a5,0(a3)
	addi	a5,a2,72
	add	a5,a1,a5
	addi	a4,a2,32
	add	a4,a4,a1
	sd	a5,0(a4)
.LVL45:
	.loc 1 144 3
	.loc 1 144 7 is_stmt 0
	lw	a5,caml_backtrace_active
	.loc 1 144 6
	beq	a5,zero,.L42
	.loc 1 145 29 discriminator 1
	ld	a1,caml_backtrace_buffer
	.loc 1 144 30 discriminator 1
	beq	a1,zero,.L42
	.loc 1 146 26
	lw	s0,caml_backtrace_pos
	.loc 1 145 37
	bne	s0,zero,.L43
.L42:
	.loc 1 147 5 is_stmt 1
	.loc 1 147 11 is_stmt 0
	li	a1,0
	li	a0,0
.LVL46:
	call	caml_alloc
.LVL47:
	.loc 1 147 9
	li	a5,8192
	addi	a5,a5,72
	addi	a4,sp,16
	add	a5,a5,a4
	sd	a0,0(a5)
.L44:
	.loc 1 169 3 is_stmt 1
.LBB3:
	.loc 1 169 3
.LVL48:
	.loc 1 169 3
	sd	s1,caml_local_roots,a5
	.loc 1 169 3
.LBE3:
	.loc 1 169 3
	.loc 1 170 1 is_stmt 0
	li	a5,8192
	addi	a5,a5,72
	addi	a4,sp,16
	add	a5,a5,a4
	ld	a0,0(a5)
	li	t1,8192
	add	sp,sp,t1
	.cfi_remember_state
	.cfi_def_cfa_offset 128
	ld	ra,120(sp)
	.cfi_restore 1
	ld	s0,112(sp)
	.cfi_restore 8
	ld	s1,104(sp)
	.cfi_restore 9
.LVL49:
	ld	s2,96(sp)
	.cfi_restore 18
	addi	sp,sp,128
	.cfi_def_cfa_offset 0
	jr	ra
.LVL50:
.L43:
	.cfi_restore_state
.LBB4:
	.loc 1 150 5 is_stmt 1
	.loc 1 151 5
	.loc 1 152 5
	.loc 1 154 5
	.loc 1 156 5
	.loc 1 156 8 is_stmt 0
	li	a5,1024
	ble	s0,a5,.L45
	.loc 1 157 32
	li	s0,1024
.LVL51:
.L45:
	.loc 1 160 5 is_stmt 1
	slli	a2,s0,3
	li	a0,-8192
.LVL52:
	addi	a0,a0,-72
	li	s2,8192
	addi	a5,s2,80
	addi	a4,sp,16
	add	a5,a5,a4
	add	a0,a5,a0
	call	memcpy
.LVL53:
	.loc 1 163 5
	.loc 1 163 11 is_stmt 0
	li	a1,0
	mv	a0,s0
	call	caml_alloc
.LVL54:
	.loc 1 163 9
	addi	a5,s2,72
	addi	a4,sp,16
	add	a5,a5,a4
	sd	a0,0(a5)
	.loc 1 164 5 is_stmt 1
.LVL55:
	.loc 1 164 12 is_stmt 0
	li	a4,0
	.loc 1 164 5
	j	.L46
.LVL56:
.L47:
	.loc 1 165 7 is_stmt 1 discriminator 3
	.loc 1 165 23 is_stmt 0 discriminator 3
	li	a3,-8192
	slli	a5,a4,3
	li	a1,8192
	addi	a2,a1,80
	addi	a0,sp,16
	add	a2,a2,a0
	add	a3,a2,a3
	sd	a3,8(sp)
	add	a3,a3,a5
	ld	a3,-72(a3)
	.loc 1 165 7 discriminator 3
	addi	a2,a1,72
	add	a2,a2,a0
	ld	a2,0(a2)
	add	a5,a5,a2
	.loc 1 165 23 discriminator 3
	ori	a3,a3,1
	.loc 1 165 21 discriminator 3
	sd	a3,0(a5)
	.loc 1 164 47 is_stmt 1 discriminator 3
	.loc 1 164 48 is_stmt 0 discriminator 3
	addi	a4,a4,1
.LVL57:
.L46:
	.loc 1 164 17 is_stmt 1 discriminator 1
	.loc 1 164 5 is_stmt 0 discriminator 1
	bgt	s0,a4,.L47
	j	.L44
.LBE4:
	.cfi_endproc
.LFE17:
	.size	caml_get_exception_raw_backtrace, .-caml_get_exception_raw_backtrace
	.align	1
	.globl	caml_restore_raw_backtrace
	.type	caml_restore_raw_backtrace, @function
caml_restore_raw_backtrace:
.LFB18:
	.loc 1 176 1 is_stmt 1
	.cfi_startproc
.LVL58:
	addi	sp,sp,-32
	.cfi_def_cfa_offset 32
	sd	ra,24(sp)
	sd	s0,16(sp)
	sd	s1,8(sp)
	.cfi_offset 1, -8
	.cfi_offset 8, -16
	.cfi_offset 9, -24
	.loc 1 177 3
	.loc 1 178 3
	.loc 1 180 3
	.loc 1 180 27 is_stmt 0
	sd	a0,caml_backtrace_last_exn,a5
	.loc 1 182 3 is_stmt 1
	.loc 1 182 13 is_stmt 0
	mv	s0,a1
	ld	s1,-8(a1)
	.loc 1 182 11
	srli	s1,s1,10
.LVL59:
	.loc 1 183 3 is_stmt 1
	.loc 1 183 5 is_stmt 0
	li	a5,1024
	bgtu	s1,a5,.L56
	.loc 1 189 3 is_stmt 1
	.loc 1 189 5 is_stmt 0
	bne	s1,zero,.L51
	.loc 1 190 5 is_stmt 1
	.loc 1 190 24 is_stmt 0
	sw	zero,caml_backtrace_pos,a5
	.loc 1 191 5 is_stmt 1
.LVL60:
.L52:
	.loc 1 205 1 is_stmt 0
	li	a0,1
	ld	ra,24(sp)
	.cfi_remember_state
	.cfi_restore 1
	ld	s0,16(sp)
	.cfi_restore 8
.LVL61:
	ld	s1,8(sp)
	.cfi_restore 9
	addi	sp,sp,32
	.cfi_def_cfa_offset 0
	jr	ra
.LVL62:
.L56:
	.cfi_restore_state
	.loc 1 184 13
	li	s1,1024
.LVL63:
.L51:
	.loc 1 195 3 is_stmt 1
	.loc 1 195 29 is_stmt 0
	ld	a5,caml_backtrace_buffer
	.loc 1 195 6
	beq	a5,zero,.L58
.LVL64:
.L53:
	.loc 1 199 3 is_stmt 1
	.loc 1 199 22 is_stmt 0
	sw	s1,caml_backtrace_pos,a5
	.loc 1 200 3 is_stmt 1
.LVL65:
	.loc 1 200 8 is_stmt 0
	li	a5,0
.LVL66:
.L54:
	.loc 1 200 12 is_stmt 1 discriminator 1
	.loc 1 200 14 is_stmt 0 discriminator 1
	lw	a4,caml_backtrace_pos
	.loc 1 200 3 discriminator 1
	ble	a4,a5,.L52
	.loc 1 201 5 is_stmt 1 discriminator 3
	.loc 1 201 32 is_stmt 0 discriminator 3
	slli	a2,a5,3
	add	a4,s0,a2
	ld	a3,0(a4)
	andi	a3,a3,-2
	.loc 1 201 26 discriminator 3
	ld	a4,caml_backtrace_buffer
	add	a4,a4,a2
	.loc 1 201 30 discriminator 3
	sd	a3,0(a4)
	.loc 1 200 36 is_stmt 1 discriminator 3
	.loc 1 200 37 is_stmt 0 discriminator 3
	addi	a5,a5,1
.LVL67:
	j	.L54
.LVL68:
.L58:
	.loc 1 195 40 discriminator 1
	call	caml_alloc_backtrace_buffer
.LVL69:
	.loc 1 195 37 discriminator 1
	li	a5,-1
	bne	a0,a5,.L53
	j	.L52
	.cfi_endproc
.LFE18:
	.size	caml_restore_raw_backtrace, .-caml_restore_raw_backtrace
	.section	.rodata.str1.8
	.align	3
.LC9:
	.string	"No debug information available"
	.text
	.align	1
	.globl	caml_convert_raw_backtrace_slot
	.type	caml_convert_raw_backtrace_slot, @function
caml_convert_raw_backtrace_slot:
.LFB20:
	.loc 1 237 1 is_stmt 1
	.cfi_startproc
.LVL70:
	addi	sp,sp,-16
	.cfi_def_cfa_offset 16
	sd	ra,8(sp)
	sd	s0,0(sp)
	.cfi_offset 1, -8
	.cfi_offset 8, -16
	mv	s0,a0
	.loc 1 238 3
	.loc 1 238 8 is_stmt 0
	call	caml_debug_info_available
.LVL71:
	.loc 1 238 6
	beq	a0,zero,.L62
	.loc 1 241 3 is_stmt 1
	.loc 1 241 11 is_stmt 0
	andi	a0,s0,-2
	call	caml_convert_debuginfo
.LVL72:
	.loc 1 242 1
	ld	ra,8(sp)
	.cfi_remember_state
	.cfi_restore 1
	ld	s0,0(sp)
	.cfi_restore 8
.LVL73:
	addi	sp,sp,16
	.cfi_def_cfa_offset 0
	jr	ra
.LVL74:
.L62:
	.cfi_restore_state
	.loc 1 239 5 is_stmt 1
	lla	a0,.LC9
	call	caml_failwith
.LVL75:
	.cfi_endproc
.LFE20:
	.size	caml_convert_raw_backtrace_slot, .-caml_convert_raw_backtrace_slot
	.align	1
	.globl	caml_convert_raw_backtrace
	.type	caml_convert_raw_backtrace, @function
caml_convert_raw_backtrace:
.LFB21:
	.loc 1 246 1
	.cfi_startproc
.LVL76:
	addi	sp,sp,-208
	.cfi_def_cfa_offset 208
	sd	ra,200(sp)
	sd	s0,192(sp)
	sd	s1,184(sp)
	sd	s2,176(sp)
	sd	s3,168(sp)
	.cfi_offset 1, -8
	.cfi_offset 8, -16
	.cfi_offset 9, -24
	.cfi_offset 18, -32
	.cfi_offset 19, -40
	sd	a0,8(sp)
	.loc 1 247 3
	lla	a4,caml_local_roots
	ld	s2,0(a4)
.LVL77:
	.loc 1 247 3
	.loc 1 247 3
	sd	s2,96(sp)
	li	a5,1
	sd	a5,112(sp)
	sd	a5,104(sp)
	addi	a3,sp,8
	sd	a3,120(sp)
.LVL78:
	.loc 1 248 3
	sd	a5,88(sp)
	.loc 1 248 3
	.loc 1 248 3
	addi	a3,sp,96
	sd	a3,24(sp)
	addi	a3,sp,24
	sd	a3,0(a4)
	sd	a5,40(sp)
	sd	a5,32(sp)
	addi	a5,sp,88
	sd	a5,48(sp)
.LVL79:
	.loc 1 249 3
	.loc 1 251 3
	.loc 1 251 8 is_stmt 0
	call	caml_debug_info_available
.LVL80:
	.loc 1 251 6
	beq	a0,zero,.L74
	.loc 1 254 21
	li	s0,0
	.loc 1 254 10
	li	s1,0
	j	.L64
.L74:
	.loc 1 252 5 is_stmt 1
	lla	a0,.LC9
	call	caml_failwith
.LVL81:
.L76:
	.loc 1 254 46 discriminator 2
	addi	s1,s1,1
.LVL82:
.L64:
	.loc 1 254 26 discriminator 1
	.loc 1 254 30 is_stmt 0 discriminator 1
	ld	a4,8(sp)
	ld	a5,-8(a4)
	srli	a5,a5,10
	.loc 1 254 3 discriminator 1
	bleu	a5,s1,.L75
.LBB5:
	.loc 1 256 5 is_stmt 1
	.loc 1 257 5
	.loc 1 257 39 is_stmt 0
	slli	a5,s1,3
	add	a5,a5,a4
	ld	a0,0(a5)
	.loc 1 257 16
	andi	a0,a0,-2
	call	caml_debuginfo_extract
.LVL83:
.L65:
	.loc 1 258 10 is_stmt 1 discriminator 1
	.loc 1 257 5 is_stmt 0 discriminator 1
	beq	a0,zero,.L76
	.loc 1 260 7 is_stmt 1
	.loc 1 260 12 is_stmt 0
	addi	s0,s0,1
.LVL84:
	.loc 1 259 10 is_stmt 1
	.loc 1 259 16 is_stmt 0
	call	caml_debuginfo_next
.LVL85:
	j	.L65
.LVL86:
.L75:
.LBE5:
	.loc 1 263 3 is_stmt 1
	.loc 1 263 11 is_stmt 0
	li	a1,0
	mv	a0,s0
	call	caml_alloc
.LVL87:
	.loc 1 263 9
	sd	a0,88(sp)
	.loc 1 265 3 is_stmt 1
.LVL88:
	.loc 1 265 21 is_stmt 0
	li	s1,0
	.loc 1 265 10
	li	s3,0
	.loc 1 265 3
	j	.L68
.LVL89:
.L70:
.LBB6:
	.loc 1 272 7 is_stmt 1
.LBB7:
	.loc 1 272 7
	.loc 1 272 7
	mv	a0,s0
	call	caml_convert_debuginfo
.LVL90:
	mv	a1,a0
.LVL91:
	.loc 1 272 7
	slli	a4,s1,3
	ld	a0,88(sp)
.LVL92:
	add	a0,a4,a0
	call	caml_modify
.LVL93:
.LBE7:
	.loc 1 272 7
	.loc 1 273 7
	.loc 1 273 12 is_stmt 0
	addi	s1,s1,1
.LVL94:
	.loc 1 270 10 is_stmt 1
	.loc 1 270 16 is_stmt 0
	mv	a0,s0
	call	caml_debuginfo_next
.LVL95:
	mv	s0,a0
.LVL96:
.L69:
	.loc 1 269 10 is_stmt 1 discriminator 1
	.loc 1 268 5 is_stmt 0 discriminator 1
	bne	s0,zero,.L70
.LBE6:
	.loc 1 265 46 is_stmt 1 discriminator 2
	addi	s3,s3,1
.LVL97:
.L68:
	.loc 1 265 26 discriminator 1
	.loc 1 265 30 is_stmt 0 discriminator 1
	ld	a4,8(sp)
	ld	a5,-8(a4)
	srli	a5,a5,10
	.loc 1 265 3 discriminator 1
	bleu	a5,s3,.L77
.LBB8:
	.loc 1 267 5 is_stmt 1
	.loc 1 268 5
	.loc 1 268 39 is_stmt 0
	slli	a5,s3,3
	add	a5,a5,a4
	ld	a0,0(a5)
	.loc 1 268 16
	andi	a0,a0,-2
	call	caml_debuginfo_extract
.LVL98:
	mv	s0,a0
.LVL99:
	.loc 1 268 5
	j	.L69
.LVL100:
.L77:
.LBE8:
	.loc 1 277 3 is_stmt 1
.LBB9:
	.loc 1 277 3
	.loc 1 277 3
	sd	s2,caml_local_roots,a5
	.loc 1 277 3
.LBE9:
	.loc 1 277 3
	.loc 1 278 1 is_stmt 0
	ld	a0,88(sp)
	ld	ra,200(sp)
	.cfi_restore 1
	ld	s0,192(sp)
	.cfi_restore 8
	ld	s1,184(sp)
	.cfi_restore 9
.LVL101:
	ld	s2,176(sp)
	.cfi_restore 18
.LVL102:
	ld	s3,168(sp)
	.cfi_restore 19
.LVL103:
	addi	sp,sp,208
	.cfi_def_cfa_offset 0
.LVL104:
	jr	ra
	.cfi_endproc
.LFE21:
	.size	caml_convert_raw_backtrace, .-caml_convert_raw_backtrace
	.align	1
	.globl	caml_raw_backtrace_length
	.type	caml_raw_backtrace_length, @function
caml_raw_backtrace_length:
.LFB22:
	.loc 1 281 1 is_stmt 1
	.cfi_startproc
.LVL105:
	.loc 1 282 3
	.loc 1 282 10 is_stmt 0
	ld	a0,-8(a0)
.LVL106:
	srli	a0,a0,10
	slli	a0,a0,1
	.loc 1 283 1
	addi	a0,a0,1
	ret
	.cfi_endproc
.LFE22:
	.size	caml_raw_backtrace_length, .-caml_raw_backtrace_length
	.section	.rodata.str1.8
	.align	3
.LC10:
	.string	"Printexc.get_raw_backtrace_slot: index out of bounds"
	.text
	.align	1
	.globl	caml_raw_backtrace_slot
	.type	caml_raw_backtrace_slot, @function
caml_raw_backtrace_slot:
.LFB23:
	.loc 1 286 1 is_stmt 1
	.cfi_startproc
.LVL107:
	addi	sp,sp,-16
	.cfi_def_cfa_offset 16
	sd	ra,8(sp)
	.cfi_offset 1, -8
	.loc 1 287 3
	.loc 1 288 3
	.loc 1 290 3
	.loc 1 290 7 is_stmt 0
	srai	a1,a1,1
.LVL108:
	.loc 1 291 3 is_stmt 1
	.loc 1 291 12 is_stmt 0
	ld	a5,-8(a0)
	srli	a5,a5,10
	.loc 1 291 6
	bleu	a5,a1,.L82
	.loc 1 294 3 is_stmt 1
	.loc 1 294 32 is_stmt 0
	slli	a1,a1,3
.LVL109:
	add	a0,a1,a0
.LVL110:
	ld	a0,0(a0)
	.loc 1 294 9
	andi	a0,a0,-2
	call	caml_debuginfo_extract
.LVL111:
	.loc 1 295 3 is_stmt 1
	.loc 1 296 1 is_stmt 0
	ori	a0,a0,1
.LVL112:
	ld	ra,8(sp)
	.cfi_remember_state
	.cfi_restore 1
	addi	sp,sp,16
	.cfi_def_cfa_offset 0
	jr	ra
.LVL113:
.L82:
	.cfi_restore_state
	.loc 1 292 5 is_stmt 1
	lla	a0,.LC10
.LVL114:
	call	caml_invalid_argument
.LVL115:
	.cfi_endproc
.LFE23:
	.size	caml_raw_backtrace_slot, .-caml_raw_backtrace_slot
	.align	1
	.globl	caml_raw_backtrace_next_slot
	.type	caml_raw_backtrace_next_slot, @function
caml_raw_backtrace_next_slot:
.LFB24:
	.loc 1 299 1
	.cfi_startproc
.LVL116:
	addi	sp,sp,-192
	.cfi_def_cfa_offset 192
	sd	ra,184(sp)
	sd	s0,176(sp)
	sd	s1,168(sp)
	.cfi_offset 1, -8
	.cfi_offset 8, -16
	.cfi_offset 9, -24
	sd	a0,8(sp)
	.loc 1 300 3
	.loc 1 302 3
	lla	a4,caml_local_roots
	ld	s1,0(a4)
.LVL117:
	.loc 1 302 3
	.loc 1 302 3
	sd	s1,96(sp)
	li	a5,1
	sd	a5,112(sp)
	sd	a5,104(sp)
	addi	a3,sp,8
	sd	a3,120(sp)
.LVL118:
	.loc 1 303 3
	sd	a5,88(sp)
	.loc 1 303 3
	.loc 1 303 3
	addi	a3,sp,96
	sd	a3,24(sp)
	addi	a3,sp,24
	sd	a3,0(a4)
	sd	a5,40(sp)
	sd	a5,32(sp)
	addi	a5,sp,88
	sd	a5,48(sp)
.LVL119:
	.loc 1 305 3
	.loc 1 306 3
	.loc 1 306 9 is_stmt 0
	andi	a0,a0,-2
.LVL120:
	call	caml_debuginfo_next
.LVL121:
	.loc 1 308 3 is_stmt 1
	.loc 1 308 6 is_stmt 0
	beq	a0,zero,.L87
	mv	s0,a0
	.loc 1 312 5 is_stmt 1
	.loc 1 312 9 is_stmt 0
	li	a1,0
	li	a0,1
.LVL122:
	call	caml_alloc
.LVL123:
	.loc 1 312 7
	sd	a0,88(sp)
	.loc 1 313 5 is_stmt 1
	.loc 1 313 19 is_stmt 0
	ori	s0,s0,1
.LVL124:
	.loc 1 313 17
	sd	s0,0(a0)
.L85:
	.loc 1 316 3 is_stmt 1
.LBB10:
	.loc 1 316 3
.LVL125:
	.loc 1 316 3
	sd	s1,caml_local_roots,a5
	.loc 1 316 3
.LBE10:
	.loc 1 316 3
	.loc 1 317 1 is_stmt 0
	ld	a0,88(sp)
	ld	ra,184(sp)
	.cfi_remember_state
	.cfi_restore 1
	ld	s0,176(sp)
	.cfi_restore 8
	ld	s1,168(sp)
	.cfi_restore 9
.LVL126:
	addi	sp,sp,192
	.cfi_def_cfa_offset 0
.LVL127:
	jr	ra
.LVL128:
.L87:
	.cfi_restore_state
	.loc 1 309 5 is_stmt 1
	.loc 1 309 7 is_stmt 0
	li	a5,1
	sd	a5,88(sp)
	j	.L85
	.cfi_endproc
.LFE24:
	.size	caml_raw_backtrace_next_slot, .-caml_raw_backtrace_next_slot
	.align	1
	.globl	caml_get_exception_backtrace
	.type	caml_get_exception_backtrace, @function
caml_get_exception_backtrace:
.LFB25:
	.loc 1 328 1 is_stmt 1
	.cfi_startproc
.LVL129:
	addi	sp,sp,-128
	.cfi_def_cfa_offset 128
	sd	ra,120(sp)
	sd	s0,112(sp)
	sd	s1,104(sp)
	sd	s2,96(sp)
	.cfi_offset 1, -8
	.cfi_offset 8, -16
	.cfi_offset 9, -24
	.cfi_offset 18, -32
	.loc 1 329 3
	lla	a4,caml_local_roots
	ld	s2,0(a4)
.LVL130:
	.loc 1 330 3
	li	a5,1
	sd	a5,88(sp)
	sd	a5,80(sp)
	sd	a5,72(sp)
	.loc 1 330 3
	.loc 1 330 3
	sd	s2,8(sp)
	addi	a3,sp,8
	sd	a3,0(a4)
	sd	a5,24(sp)
	li	a5,3
	sd	a5,16(sp)
	addi	a5,sp,88
	sd	a5,32(sp)
	addi	a5,sp,80
	sd	a5,40(sp)
	addi	a5,sp,72
	sd	a5,48(sp)
.LVL131:
	.loc 1 331 3
	.loc 1 333 3
	.loc 1 333 8 is_stmt 0
	call	caml_debug_info_available
.LVL132:
	.loc 1 333 6
	bne	a0,zero,.L89
	.loc 1 334 5 is_stmt 1
	.loc 1 334 9 is_stmt 0
	li	a5,1
	sd	a5,80(sp)
.L90:
	.loc 1 348 3 is_stmt 1
.LBB11:
	.loc 1 348 3
.LVL133:
	.loc 1 348 3
	sd	s2,caml_local_roots,a5
	.loc 1 348 3
.LBE11:
	.loc 1 348 3
	.loc 1 349 1 is_stmt 0
	ld	a0,80(sp)
	ld	ra,120(sp)
	.cfi_remember_state
	.cfi_restore 1
	ld	s0,112(sp)
	.cfi_restore 8
	ld	s1,104(sp)
	.cfi_restore 9
	ld	s2,96(sp)
	.cfi_restore 18
.LVL134:
	addi	sp,sp,128
	.cfi_def_cfa_offset 0
.LVL135:
	jr	ra
.LVL136:
.L89:
	.cfi_restore_state
	.loc 1 336 5 is_stmt 1
	.loc 1 336 17 is_stmt 0
	li	a0,1
	call	caml_get_exception_raw_backtrace
.LVL137:
	.loc 1 336 15
	sd	a0,72(sp)
	.loc 1 338 5 is_stmt 1
	.loc 1 338 22 is_stmt 0
	ld	a0,-8(a0)
	.loc 1 338 11
	li	a1,0
	srli	a0,a0,10
	call	caml_alloc
.LVL138:
	.loc 1 338 9
	sd	a0,88(sp)
	.loc 1 339 5 is_stmt 1
.LVL139:
	.loc 1 339 12 is_stmt 0
	li	s0,0
.LVL140:
.L91:
	.loc 1 339 17 is_stmt 1 discriminator 1
	.loc 1 339 21 is_stmt 0 discriminator 1
	ld	a5,72(sp)
	ld	a4,-8(a5)
	srli	a4,a4,10
	.loc 1 339 5 discriminator 1
	bleu	a4,s0,.L94
.LBB12:
	.loc 1 340 7 is_stmt 1 discriminator 3
	.loc 1 340 29 is_stmt 0 discriminator 3
	slli	s1,s0,3
	add	a5,s1,a5
	ld	a0,0(a5)
.LVL141:
	.loc 1 341 7 is_stmt 1 discriminator 3
	.loc 1 341 23 is_stmt 0 discriminator 3
	andi	a0,a0,-2
.LVL142:
	call	caml_debuginfo_extract
.LVL143:
	.loc 1 342 7 is_stmt 1 discriminator 3
.LBB13:
	.loc 1 342 7 discriminator 3
	.loc 1 342 7 discriminator 3
	call	caml_convert_debuginfo
.LVL144:
	mv	a1,a0
.LVL145:
	.loc 1 342 7 discriminator 3
	ld	a0,88(sp)
.LVL146:
	add	a0,s1,a0
	call	caml_modify
.LVL147:
.LBE13:
	.loc 1 342 7 discriminator 3
.LBE12:
	.loc 1 339 44 discriminator 3
	.loc 1 339 45 is_stmt 0 discriminator 3
	addi	s0,s0,1
.LVL148:
	j	.L91
.LVL149:
.L94:
	.loc 1 345 5 is_stmt 1
	.loc 1 345 11 is_stmt 0
	li	a1,0
	li	a0,1
	call	caml_alloc_small
.LVL150:
	.loc 1 345 9
	sd	a0,80(sp)
	.loc 1 345 35 is_stmt 1
	.loc 1 345 49 is_stmt 0
	ld	a5,88(sp)
	sd	a5,0(a0)
	j	.L90
	.cfi_endproc
.LFE25:
	.size	caml_get_exception_backtrace, .-caml_get_exception_backtrace
	.globl	caml_backtrace_last_exn
	.globl	caml_backtrace_buffer
	.globl	caml_backtrace_pos
	.globl	caml_backtrace_active
	.comm	caml_debug_info,16,8
	.comm	caml_major_work_credit,8,8
	.comm	caml_major_ring_index,4,4
	.comm	caml_major_ring,400,8
	.section	.sbss,"aw",@nobits
	.align	3
	.type	caml_backtrace_buffer, @object
	.size	caml_backtrace_buffer, 8
caml_backtrace_buffer:
	.zero	8
	.type	caml_backtrace_pos, @object
	.size	caml_backtrace_pos, 4
caml_backtrace_pos:
	.zero	4
	.type	caml_backtrace_active, @object
	.size	caml_backtrace_active, 4
caml_backtrace_active:
	.zero	4
	.section	.sdata,"aw"
	.align	3
	.type	caml_backtrace_last_exn, @object
	.size	caml_backtrace_last_exn, 8
caml_backtrace_last_exn:
	.dword	1
	.text
.Letext0:
	.file 2 "/home/sai/ocaml-freestanding-riscv/nolibc/include/stdio.h"
	.file 3 "/home/sai/Shakti-TEE-Build/riscv/lib/gcc/riscv64-unknown-elf/9.2.0/include/stddef.h"
	.file 4 "caml/config.h"
	.file 5 "caml/misc.h"
	.file 6 "caml/mlvalues.h"
	.file 7 "caml/freelist.h"
	.file 8 "caml/major_gc.h"
	.file 9 "caml/address_class.h"
	.file 10 "caml/minor_gc.h"
	.file 11 "caml/memory.h"
	.file 12 "caml/backtrace.h"
	.file 13 "caml/backtrace_prim.h"
	.file 14 "/home/sai/ocaml-freestanding-riscv/nolibc/include/signal.h"
	.file 15 "caml/fail.h"
	.file 16 "caml/alloc.h"
	.file 17 "<built-in>"