	.file	"bigarray.c"
	.option nopic
	.attribute arch, "rv64i2p0_m2p0_a2p0_f2p0_d2p0_c2p0"
	.attribute unaligned_access, 0
	.attribute stack_align, 16
	.text
.Ltext0:
	.cfi_sections	.debug_frame
	.align	1
	.globl	caml_ba_finalize
	.type	caml_ba_finalize, @function
caml_ba_finalize:
.LFB16:
	.file 1 "bigarray.c"
	.loc 1 150 1
	.cfi_startproc
.LVL0:
	addi	sp,sp,-16
	.cfi_def_cfa_offset 16
	sd	ra,8(sp)
	sd	s0,0(sp)
	.cfi_offset 1, -8
	.cfi_offset 8, -16
	.loc 1 151 3
	.loc 1 151 30 is_stmt 0
	addi	s0,a0,8
.LVL1:
	.loc 1 153 3 is_stmt 1
	.loc 1 153 12 is_stmt 0
	ld	a5,16(s0)
	.loc 1 153 20
	andi	a5,a5,1536
	.loc 1 153 3
	li	a4,512
	beq	a5,a4,.L5
.LVL2:
.L1:
	.loc 1 171 1
	ld	ra,8(sp)
	.cfi_remember_state
	.cfi_restore 1
	ld	s0,0(sp)
	.cfi_restore 8
.LVL3:
	addi	sp,sp,16
	.cfi_def_cfa_offset 0
	jr	ra
.LVL4:
.L5:
	.cfi_restore_state
	.loc 1 157 5 is_stmt 1
	.loc 1 157 10 is_stmt 0
	ld	a4,24(s0)
	.loc 1 157 8
	beq	a4,zero,.L6
	.loc 1 160 7 is_stmt 1
	.loc 1 160 22 is_stmt 0
	ld	a5,0(a4)
	.loc 1 160 11
	addi	a5,a5,-1
	.loc 1 160 10
	sd	a5,0(a4)
	bne	a5,zero,.L1
	.loc 1 161 9 is_stmt 1
	.loc 1 161 15 is_stmt 0
	ld	a5,24(s0)
	.loc 1 161 9
	ld	a0,8(a5)
.LVL5:
	call	free
.LVL6:
	.loc 1 162 9 is_stmt 1
	ld	a0,24(s0)
	call	free
.LVL7:
	.loc 1 169 5
	.loc 1 171 1 is_stmt 0
	j	.L1
.LVL8:
.L6:
	.loc 1 158 7 is_stmt 1
	ld	a0,8(a0)
.LVL9:
	call	free
.LVL10:
	j	.L1
	.cfi_endproc
.LFE16:
	.size	caml_ba_finalize, .-caml_ba_finalize
	.align	1
	.globl	caml_ba_hash
	.type	caml_ba_hash, @function
caml_ba_hash:
.LFB18:
	.loc 1 259 1
	.cfi_startproc
.LVL11:
	addi	sp,sp,-32
	.cfi_def_cfa_offset 32
	sd	ra,24(sp)
	sd	s0,16(sp)
	sd	s1,8(sp)
	sd	s2,0(sp)
	.cfi_offset 1, -8
	.cfi_offset 8, -16
	.cfi_offset 9, -24
	.cfi_offset 18, -32
	.loc 1 260 3
	.loc 1 260 30 is_stmt 0
	addi	a3,a0,8
.LVL12:
	.loc 1 261 3 is_stmt 1
	.loc 1 262 3
	.loc 1 263 3
	.loc 1 265 3
	.loc 1 266 3
	.loc 1 266 10 is_stmt 0
	li	a4,0
	.loc 1 265 12
	li	s0,1
.LVL13:
.L8:
	.loc 1 266 15 is_stmt 1 discriminator 1
	.loc 1 266 20 is_stmt 0 discriminator 1
	ld	a5,8(a3)
	.loc 1 266 3 discriminator 1
	bge	a4,a5,.L56
	.loc 1 266 37 is_stmt 1 discriminator 3
	.loc 1 266 65 is_stmt 0 discriminator 3
	addi	a5,a4,4
	slli	a5,a5,3
	add	a5,a3,a5
	ld	a5,0(a5)
	.loc 1 266 46 discriminator 3
	mul	s0,s0,a5
.LVL14:
	.loc 1 266 32 is_stmt 1 discriminator 3
	.loc 1 266 33 is_stmt 0 discriminator 3
	addiw	a4,a4,1
.LVL15:
	j	.L8
.LVL16:
.L56:
	.loc 1 267 3 is_stmt 1
	.loc 1 269 3
	.loc 1 269 20 is_stmt 0
	lbu	a5,16(a3)
	li	a4,12
.LVL17:
	bgtu	a5,a4,.L45
	slli	a5,a5,2
	lla	a4,.L12
	add	a5,a5,a4
	lw	a5,0(a5)
	add	a5,a5,a4
	jr	a5
	.section	.rodata
	.align	2
	.align	2
.L12:
	.word	.L20-.L12
	.word	.L19-.L12
	.word	.L11-.L12
	.word	.L11-.L12
	.word	.L18-.L12
	.word	.L18-.L12
	.word	.L17-.L12
	.word	.L16-.L12
	.word	.L15-.L12
	.word	.L15-.L12
	.word	.L14-.L12
	.word	.L13-.L12
	.word	.L11-.L12
	.text
.L11:
.LBB55:
	.loc 1 273 5 is_stmt 1
	.loc 1 273 21 is_stmt 0
	ld	s1,8(a0)
.LVL18:
	.loc 1 274 5 is_stmt 1
	.loc 1 274 8 is_stmt 0
	li	a5,256
	ble	s0,a5,.L21
	.loc 1 274 34
	li	s0,256
.LVL19:
.L21:
	.loc 1 275 5 is_stmt 1
.LBE55:
	.loc 1 267 5 is_stmt 0
	li	a0,0
.LVL20:
.LBB56:
	.loc 1 275 12
	li	s2,0
	.loc 1 275 5
	j	.L22
.LVL21:
.L23:
	.loc 1 276 7 is_stmt 1 discriminator 3
	.loc 1 276 12 is_stmt 0 discriminator 3
	lbu	a5,0(s1)
	.loc 1 276 20 discriminator 3
	lbu	a1,1(s1)
	.loc 1 276 24 discriminator 3
	slliw	a1,a1,8
	.loc 1 276 16 discriminator 3
	or	a5,a5,a1
	.loc 1 276 34 discriminator 3
	lbu	a1,2(s1)
	.loc 1 276 38 discriminator 3
	slliw	a1,a1,16
	.loc 1 276 30 discriminator 3
	or	a5,a5,a1
	.loc 1 276 49 discriminator 3
	lbu	a1,3(s1)
	.loc 1 276 53 discriminator 3
	slliw	a1,a1,24
.LVL22:
	.loc 1 277 7 is_stmt 1 discriminator 3
	.loc 1 277 11 is_stmt 0 discriminator 3
	or	a1,a5,a1
.LVL23:
	call	caml_hash_mix_uint32
.LVL24:
	sext.w	a0,a0
.LVL25:
	.loc 1 275 36 is_stmt 1 discriminator 3
	.loc 1 275 46 is_stmt 0 discriminator 3
	addi	s1,s1,4
.LVL26:
.L22:
	.loc 1 275 17 is_stmt 1 discriminator 1
	.loc 1 275 19 is_stmt 0 discriminator 1
	addi	s2,s2,4
.LVL27:
	.loc 1 275 5 discriminator 1
	ble	s2,s0,.L23
	.loc 1 279 5 is_stmt 1
.LVL28:
	.loc 1 280 5
	.loc 1 280 22 is_stmt 0
	andi	s0,s0,3
.LVL29:
	li	a5,2
	beq	s0,a5,.L47
	li	a5,3
	beq	s0,a5,.L25
	li	a5,1
	bne	s0,a5,.L10
	li	a1,0
	j	.L26
.L25:
	.loc 1 281 13 is_stmt 1
	.loc 1 281 19 is_stmt 0
	lbu	a1,2(s1)
	.loc 1 281 16
	slliw	a1,a1,16
.LVL30:
.L24:
	.loc 1 282 13 is_stmt 1
	.loc 1 282 19 is_stmt 0
	lbu	a5,1(s1)
	.loc 1 282 23
	slliw	a5,a5,8
	.loc 1 282 15
	or	a1,a1,a5
.LVL31:
	sext.w	a1,a1
.LVL32:
.L26:
	.loc 1 283 13 is_stmt 1
	.loc 1 283 19 is_stmt 0
	lbu	a5,0(s1)
	.loc 1 283 15
	or	a1,a1,a5
.LVL33:
	.loc 1 284 13 is_stmt 1
	.loc 1 284 17 is_stmt 0
	sext.w	a1,a1
	call	caml_hash_mix_uint32
.LVL34:
	sext.w	a0,a0
.LVL35:
	j	.L10
.LVL36:
.L47:
	li	a1,0
	j	.L24
.LVL37:
.L18:
.LBE56:
.LBB57:
	.loc 1 290 5 is_stmt 1
	.loc 1 290 22 is_stmt 0
	ld	s1,8(a0)
.LVL38:
	.loc 1 291 5 is_stmt 1
	.loc 1 291 8 is_stmt 0
	li	a5,128
	ble	s0,a5,.L27
	.loc 1 291 34
	li	s0,128
.LVL39:
.L27:
	.loc 1 292 5 is_stmt 1
.LBE57:
	.loc 1 267 5 is_stmt 0
	li	a0,0
.LVL40:
.LBB58:
	.loc 1 292 12
	li	s2,0
	.loc 1 292 5
	j	.L28
.LVL41:
.L29:
	.loc 1 293 7 is_stmt 1 discriminator 3
	.loc 1 293 12 is_stmt 0 discriminator 3
	lhu	a1,0(s1)
	.loc 1 293 20 discriminator 3
	lhu	a5,2(s1)
	.loc 1 293 24 discriminator 3
	slliw	a5,a5,16
.LVL42:
	.loc 1 294 7 is_stmt 1 discriminator 3
	.loc 1 294 11 is_stmt 0 discriminator 3
	or	a1,a1,a5
.LVL43:
	call	caml_hash_mix_uint32
.LVL44:
	sext.w	a0,a0
.LVL45:
	.loc 1 292 36 is_stmt 1 discriminator 3
	.loc 1 292 46 is_stmt 0 discriminator 3
	addi	s1,s1,4
.LVL46:
.L28:
	.loc 1 292 17 is_stmt 1 discriminator 1
	.loc 1 292 19 is_stmt 0 discriminator 1
	addi	s2,s2,2
.LVL47:
	.loc 1 292 5 discriminator 1
	ble	s2,s0,.L29
	.loc 1 296 5 is_stmt 1
	.loc 1 296 19 is_stmt 0
	andi	s0,s0,1
.LVL48:
	.loc 1 296 8
	beq	s0,zero,.L10
	.loc 1 297 7 is_stmt 1
	.loc 1 297 11 is_stmt 0
	lhu	a1,0(s1)
	call	caml_hash_mix_uint32
.LVL49:
	sext.w	a0,a0
.LVL50:
	j	.L10
.LVL51:
.L17:
.LBE58:
.LBB59:
	.loc 1 302 5 is_stmt 1
	.loc 1 302 16 is_stmt 0
	ld	s2,8(a0)
.LVL52:
	.loc 1 303 5 is_stmt 1
	.loc 1 303 8 is_stmt 0
	li	a5,64
	ble	s0,a5,.L30
	.loc 1 303 33
	li	s0,64
.LVL53:
.L30:
	.loc 1 304 5 is_stmt 1
.LBE59:
	.loc 1 267 5 is_stmt 0
	li	a0,0
.LVL54:
.LBB60:
	.loc 1 304 12
	li	s1,0
	.loc 1 304 5
	j	.L31
.LVL55:
.L32:
	.loc 1 304 41 is_stmt 1 discriminator 3
	.loc 1 304 45 is_stmt 0 discriminator 3
	lw	a1,0(s2)
	call	caml_hash_mix_uint32
.LVL56:
	sext.w	a0,a0
.LVL57:
	.loc 1 304 31 is_stmt 1 discriminator 3
	.loc 1 304 32 is_stmt 0 discriminator 3
	addi	s1,s1,1
.LVL58:
	.loc 1 304 37 discriminator 3
	addi	s2,s2,4
.LVL59:
.L31:
	.loc 1 304 17 is_stmt 1 discriminator 1
	.loc 1 304 5 is_stmt 0 discriminator 1
	bgt	s0,s1,.L32
	j	.L10
.LVL60:
.L15:
.LBE60:
.LBB61:
	.loc 1 310 5 is_stmt 1
	.loc 1 310 14 is_stmt 0
	ld	s2,8(a0)
.LVL61:
	.loc 1 311 5 is_stmt 1
	.loc 1 311 8 is_stmt 0
	li	a5,64
	ble	s0,a5,.L33
	.loc 1 311 33
	li	s0,64
.LVL62:
.L33:
	.loc 1 312 5 is_stmt 1
.LBE61:
	.loc 1 267 5 is_stmt 0
	li	a0,0
.LVL63:
.LBB62:
	.loc 1 312 12
	li	s1,0
	.loc 1 312 5
	j	.L34
.LVL64:
.L35:
	.loc 1 312 41 is_stmt 1 discriminator 3
	.loc 1 312 45 is_stmt 0 discriminator 3
	ld	a1,0(s2)
	call	caml_hash_mix_intnat
.LVL65:
	sext.w	a0,a0
.LVL66:
	.loc 1 312 31 is_stmt 1 discriminator 3
	.loc 1 312 32 is_stmt 0 discriminator 3
	addi	s1,s1,1
.LVL67:
	.loc 1 312 37 discriminator 3
	addi	s2,s2,8
.LVL68:
.L34:
	.loc 1 312 17 is_stmt 1 discriminator 1
	.loc 1 312 5 is_stmt 0 discriminator 1
	bgt	s0,s1,.L35
	j	.L10
.LVL69:
.L16:
.LBE62:
.LBB63:
	.loc 1 317 5 is_stmt 1
	.loc 1 317 15 is_stmt 0
	ld	s2,8(a0)
.LVL70:
	.loc 1 318 5 is_stmt 1
	.loc 1 318 8 is_stmt 0
	li	a5,32
	ble	s0,a5,.L36
	.loc 1 318 33
	li	s0,32
.LVL71:
.L36:
	.loc 1 319 5 is_stmt 1
.LBE63:
	.loc 1 267 5 is_stmt 0
	li	a0,0
.LVL72:
.LBB64:
	.loc 1 319 12
	li	s1,0
	.loc 1 319 5
	j	.L37
.LVL73:
.L38:
	.loc 1 319 41 is_stmt 1 discriminator 3
	.loc 1 319 45 is_stmt 0 discriminator 3
	ld	a1,0(s2)
	call	caml_hash_mix_int64
.LVL74:
	sext.w	a0,a0
.LVL75:
	.loc 1 319 31 is_stmt 1 discriminator 3
	.loc 1 319 32 is_stmt 0 discriminator 3
	addi	s1,s1,1
.LVL76:
	.loc 1 319 37 discriminator 3
	addi	s2,s2,8
.LVL77:
.L37:
	.loc 1 319 17 is_stmt 1 discriminator 1
	.loc 1 319 5 is_stmt 0 discriminator 1
	bgt	s0,s1,.L38
	j	.L10
.LVL78:
.L14:
.LBE64:
	.loc 1 323 5 is_stmt 1
	.loc 1 323 14 is_stmt 0
	slli	s0,s0,1
.LVL79:
.L20:
.LBB65:
	.loc 1 326 5 is_stmt 1
	.loc 1 326 13 is_stmt 0
	ld	s2,8(a0)
.LVL80:
	.loc 1 327 5 is_stmt 1
	.loc 1 327 8 is_stmt 0
	li	a5,64
	ble	s0,a5,.L39
	.loc 1 327 33
	li	s0,64
.LVL81:
.L39:
	.loc 1 328 5 is_stmt 1
.LBE65:
	.loc 1 267 5 is_stmt 0
	li	a0,0
.LVL82:
.LBB66:
	.loc 1 328 12
	li	s1,0
	.loc 1 328 5
	j	.L40
.LVL83:
.L41:
	.loc 1 328 41 is_stmt 1 discriminator 3
	.loc 1 328 45 is_stmt 0 discriminator 3
	flw	fa0,0(s2)
	call	caml_hash_mix_float
.LVL84:
	sext.w	a0,a0
.LVL85:
	.loc 1 328 31 is_stmt 1 discriminator 3
	.loc 1 328 32 is_stmt 0 discriminator 3
	addi	s1,s1,1
.LVL86:
	.loc 1 328 37 discriminator 3
	addi	s2,s2,4
.LVL87:
.L40:
	.loc 1 328 17 is_stmt 1 discriminator 1
	.loc 1 328 5 is_stmt 0 discriminator 1
	bgt	s0,s1,.L41
.LVL88:
.L10:
.LBE66:
	.loc 1 341 3 is_stmt 1
	.loc 1 342 1 is_stmt 0
	slli	a0,a0,32
.LVL89:
	srli	a0,a0,32
	ld	ra,24(sp)
	.cfi_remember_state
	.cfi_restore 1
	ld	s0,16(sp)
	.cfi_restore 8
	ld	s1,8(sp)
	.cfi_restore 9
	ld	s2,0(sp)
	.cfi_restore 18
	addi	sp,sp,32
	.cfi_def_cfa_offset 0
	jr	ra
.LVL90:
.L13:
	.cfi_restore_state
	.loc 1 332 5 is_stmt 1
	.loc 1 332 14 is_stmt 0
	slli	s0,s0,1
.LVL91:
.L19:
.LBB67:
	.loc 1 335 5 is_stmt 1
	.loc 1 335 14 is_stmt 0
	ld	s2,8(a0)
.LVL92:
	.loc 1 336 5 is_stmt 1
	.loc 1 336 8 is_stmt 0
	li	a5,32
	ble	s0,a5,.L42
	.loc 1 336 33
	li	s0,32
.LVL93:
.L42:
	.loc 1 337 5 is_stmt 1
.LBE67:
	.loc 1 267 5 is_stmt 0
	li	a0,0
.LVL94:
.LBB68:
	.loc 1 337 12
	li	s1,0
	.loc 1 337 5
	j	.L43
.LVL95:
.L44:
	.loc 1 337 41 is_stmt 1 discriminator 3
	.loc 1 337 45 is_stmt 0 discriminator 3
	fld	fa0,0(s2)
	call	caml_hash_mix_double
.LVL96:
	sext.w	a0,a0
.LVL97:
	.loc 1 337 31 is_stmt 1 discriminator 3
	.loc 1 337 32 is_stmt 0 discriminator 3
	addi	s1,s1,1
.LVL98:
	.loc 1 337 37 discriminator 3
	addi	s2,s2,8
.LVL99:
.L43:
	.loc 1 337 17 is_stmt 1 discriminator 1
	.loc 1 337 5 is_stmt 0 discriminator 1
	bgt	s0,s1,.L44
	j	.L10
.LVL100:
.L45:
.LBE68:
	.loc 1 269 20
	li	a0,0
.LVL101:
	j	.L10
	.cfi_endproc
.LFE18:
	.size	caml_ba_hash, .-caml_ba_hash
	.align	1
	.type	caml_ba_serialize_longarray, @function
caml_ba_serialize_longarray:
.LFB19:
	.loc 1 347 1 is_stmt 1
	.cfi_startproc
.LVL102:
	addi	sp,sp,-32
	.cfi_def_cfa_offset 32
	sd	ra,24(sp)
	sd	s0,16(sp)
	sd	s1,8(sp)
	sd	s2,0(sp)
	.cfi_offset 1, -8
	.cfi_offset 8, -16
	.cfi_offset 9, -24
	.cfi_offset 18, -32
	mv	s1,a0
	mv	s0,a1
	.loc 1 349 3
.LVL103:
	.loc 1 350 3
	.loc 1 351 3
	.loc 1 351 17 is_stmt 0
	mv	a4,a0
	.loc 1 351 10
	li	a5,0
	.loc 1 351 3
	j	.L58
.LVL104:
.L69:
	.loc 1 351 39 is_stmt 1 discriminator 2
	.loc 1 351 40 is_stmt 0 discriminator 2
	addi	a5,a5,1
.LVL105:
	.loc 1 351 45 discriminator 2
	addi	a4,a4,8
.LVL106:
.L58:
	.loc 1 351 25 is_stmt 1 discriminator 1
	.loc 1 351 3 is_stmt 0 discriminator 1
	bge	a5,s0,.L68
	.loc 1 352 5 is_stmt 1
	.loc 1 352 9 is_stmt 0
	ld	a6,0(a4)
	.loc 1 352 8
	blt	a6,a2,.L65
	.loc 1 352 22 discriminator 2
	ble	a6,a3,.L69
	.loc 1 352 53
	li	a5,1
.LVL107:
	j	.L59
.LVL108:
.L68:
	.loc 1 349 7
	li	a5,0
.LVL109:
.L59:
	.loc 1 354 3 is_stmt 1
	.loc 1 354 6 is_stmt 0
	beq	a5,zero,.L61
	.loc 1 355 5 is_stmt 1
	li	a0,1
	call	caml_serialize_int_1
.LVL110:
	.loc 1 356 5
	mv	a1,s0
	mv	a0,s1
	call	caml_serialize_block_8
.LVL111:
.L57:
	.loc 1 366 1 is_stmt 0
	ld	ra,24(sp)
	.cfi_remember_state
	.cfi_restore 1
	ld	s0,16(sp)
	.cfi_restore 8
.LVL112:
	ld	s1,8(sp)
	.cfi_restore 9
	ld	s2,0(sp)
	.cfi_restore 18
	addi	sp,sp,32
	.cfi_def_cfa_offset 0
	jr	ra
.LVL113:
.L65:
	.cfi_restore_state
	.loc 1 352 53
	li	a5,1
.LVL114:
	j	.L59
.LVL115:
.L61:
	.loc 1 358 5 is_stmt 1
	li	a0,0
	call	caml_serialize_int_1
.LVL116:
	.loc 1 359 5
	.loc 1 359 12 is_stmt 0
	li	s2,0
	.loc 1 359 5
	j	.L63
.LVL117:
.L64:
	.loc 1 360 7 is_stmt 1 discriminator 3
	lw	a0,0(s1)
	call	caml_serialize_int_4
.LVL118:
	.loc 1 359 41 discriminator 3
	.loc 1 359 42 is_stmt 0 discriminator 3
	addi	s2,s2,1
.LVL119:
	.loc 1 359 47 discriminator 3
	addi	s1,s1,8
.LVL120:
.L63:
	.loc 1 359 27 is_stmt 1 discriminator 1
	.loc 1 359 5 is_stmt 0 discriminator 1
	blt	s2,s0,.L64
	j	.L57
	.cfi_endproc
.LFE19:
	.size	caml_ba_serialize_longarray, .-caml_ba_serialize_longarray
	.align	1
	.globl	caml_ba_serialize
	.type	caml_ba_serialize, @function
caml_ba_serialize:
.LFB20:
	.loc 1 371 1 is_stmt 1
	.cfi_startproc
.LVL121:
	addi	sp,sp,-48
	.cfi_def_cfa_offset 48
	sd	ra,40(sp)
	sd	s0,32(sp)
	sd	s1,24(sp)
	sd	s2,16(sp)
	sd	s3,8(sp)
	sd	s4,0(sp)
	.cfi_offset 1, -8
	.cfi_offset 8, -16
	.cfi_offset 9, -24
	.cfi_offset 18, -32
	.cfi_offset 19, -40
	.cfi_offset 20, -48
	mv	s2,a0
	mv	s4,a1
	mv	s3,a2
	.loc 1 372 3
	.loc 1 372 30 is_stmt 0
	addi	s1,a0,8
.LVL122:
	.loc 1 373 3 is_stmt 1
	.loc 1 374 3
	.loc 1 377 3
	lw	a0,16(a0)
.LVL123:
	call	caml_serialize_int_4
.LVL124:
	.loc 1 378 3
	.loc 1 378 25 is_stmt 0
	ld	a0,16(s1)
	.loc 1 378 3
	andi	a0,a0,511
	call	caml_serialize_int_4
.LVL125:
	.loc 1 383 3 is_stmt 1
	.loc 1 383 10 is_stmt 0
	li	s0,0
.LVL126:
.L71:
	.loc 1 383 15 is_stmt 1 discriminator 1
	.loc 1 383 20 is_stmt 0 discriminator 1
	ld	a3,8(s1)
	.loc 1 383 3 discriminator 1
	bge	s0,a3,.L86
	.loc 1 383 37 is_stmt 1 discriminator 3
	.loc 1 383 64 is_stmt 0 discriminator 3
	addi	a5,s0,4
	slli	a5,a5,3
	add	a5,s1,a5
	.loc 1 383 37 discriminator 3
	lw	a0,0(a5)
	call	caml_serialize_int_4
.LVL127:
	.loc 1 383 32 is_stmt 1 discriminator 3
	.loc 1 383 33 is_stmt 0 discriminator 3
	addiw	s0,s0,1
.LVL128:
	j	.L71
.LVL129:
.L86:
	.loc 1 386 10
	li	a4,0
	.loc 1 385 12
	li	a1,1
	j	.L73
.LVL130:
.L74:
	.loc 1 386 37 is_stmt 1 discriminator 3
	.loc 1 386 65 is_stmt 0 discriminator 3
	addi	a5,a4,4
	slli	a5,a5,3
	add	a5,s1,a5
	ld	a5,0(a5)
	.loc 1 386 46 discriminator 3
	mul	a1,a1,a5
.LVL131:
	.loc 1 386 32 is_stmt 1 discriminator 3
	.loc 1 386 33 is_stmt 0 discriminator 3
	addiw	a4,a4,1
.LVL132:
.L73:
	.loc 1 386 15 is_stmt 1 discriminator 1
	.loc 1 386 3 is_stmt 0 discriminator 1
	bgt	a3,a4,.L74
	.loc 1 388 3 is_stmt 1
	.loc 1 388 20 is_stmt 0
	lbu	a5,16(s1)
	li	a4,12
.LVL133:
	bgtu	a5,a4,.L75
	slli	a5,a5,2
	lla	a4,.L77
	add	a5,a5,a4
	lw	a5,0(a5)
	add	a5,a5,a4
	jr	a5
	.section	.rodata
	.align	2
	.align	2
.L77:
	.word	.L83-.L77
	.word	.L82-.L77
	.word	.L76-.L77
	.word	.L76-.L77
	.word	.L84-.L77
	.word	.L84-.L77
	.word	.L83-.L77
	.word	.L82-.L77
	.word	.L81-.L77
	.word	.L80-.L77
	.word	.L79-.L77
	.word	.L78-.L77
	.word	.L76-.L77
	.text
.L76:
	.loc 1 392 5 is_stmt 1
	ld	a0,8(s2)
	call	caml_serialize_block_1
.LVL134:
	.loc 1 392 48
.L75:
	.loc 1 415 3
	.loc 1 416 3
	.loc 1 416 21 is_stmt 0
	ld	a5,8(s1)
	.loc 1 416 18
	addi	a5,a5,4
	.loc 1 416 33
	slli	a5,a5,2
	.loc 1 416 13
	sd	a5,0(s4)
	.loc 1 417 3 is_stmt 1
	.loc 1 417 21 is_stmt 0
	ld	a5,8(s1)
	.loc 1 417 18
	addi	a5,a5,4
	.loc 1 417 33
	slli	a5,a5,3
	.loc 1 417 13
	sd	a5,0(s3)
	.loc 1 418 1
	ld	ra,40(sp)
	.cfi_remember_state
	.cfi_restore 1
	ld	s0,32(sp)
	.cfi_restore 8
	ld	s1,24(sp)
	.cfi_restore 9
.LVL135:
	ld	s2,16(sp)
	.cfi_restore 18
.LVL136:
	ld	s3,8(sp)
	.cfi_restore 19
.LVL137:
	ld	s4,0(sp)
	.cfi_restore 20
.LVL138:
	addi	sp,sp,48
	.cfi_def_cfa_offset 0
	jr	ra
.LVL139:
.L84:
	.cfi_restore_state
	.loc 1 395 5 is_stmt 1
	ld	a0,8(s2)
	call	caml_serialize_block_2
.LVL140:
	.loc 1 395 48
	.loc 1 395 5 is_stmt 0
	j	.L75
.LVL141:
.L83:
	.loc 1 398 5 is_stmt 1
	ld	a0,8(s2)
	call	caml_serialize_block_4
.LVL142:
	.loc 1 398 48
	.loc 1 398 5 is_stmt 0
	j	.L75
.LVL143:
.L79:
	.loc 1 400 5 is_stmt 1
	slli	a1,a1,1
.LVL144:
	ld	a0,8(s2)
	call	caml_serialize_block_4
.LVL145:
	.loc 1 400 52
	.loc 1 400 5 is_stmt 0
	j	.L75
.LVL146:
.L82:
	.loc 1 403 5 is_stmt 1
	ld	a0,8(s2)
	call	caml_serialize_block_8
.LVL147:
	.loc 1 403 48
	.loc 1 403 5 is_stmt 0
	j	.L75
.LVL148:
.L78:
	.loc 1 405 5 is_stmt 1
	slli	a1,a1,1
.LVL149:
	ld	a0,8(s2)
	call	caml_serialize_block_8
.LVL150:
	.loc 1 405 52
	.loc 1 405 5 is_stmt 0
	j	.L75
.LVL151:
.L81:
	.loc 1 407 5 is_stmt 1
	li	a3,1073741824
	addi	a3,a3,-1
	li	a2,-1073741824
	ld	a0,8(s2)
	call	caml_ba_serialize_longarray
.LVL152:
	.loc 1 408 5
	j	.L75
.LVL153:
.L80:
	.loc 1 410 5
	li	a3,-2147483648
	xori	a3,a3,-1
	li	a2,1
	slli	a2,a2,31
	ld	a0,8(s2)
	call	caml_ba_serialize_longarray
.LVL154:
	.loc 1 411 5
	j	.L75
	.cfi_endproc
.LFE20:
	.size	caml_ba_serialize, .-caml_ba_serialize
	.align	1
	.type	caml_ba_deserialize_longarray, @function
caml_ba_deserialize_longarray:
.LFB21:
	.loc 1 421 1
	.cfi_startproc
.LVL155:
	addi	sp,sp,-32
	.cfi_def_cfa_offset 32
	sd	ra,24(sp)
	sd	s0,16(sp)
	sd	s1,8(sp)
	sd	s2,0(sp)
	.cfi_offset 1, -8
	.cfi_offset 8, -16
	.cfi_offset 9, -24
	.cfi_offset 18, -32
	mv	s0,a0
	mv	s2,a1
	.loc 1 422 3
	.loc 1 422 15 is_stmt 0
	call	caml_deserialize_uint_1
.LVL156:
	.loc 1 424 3 is_stmt 1
	.loc 1 424 6 is_stmt 0
	bne	a0,zero,.L93
.LBB69:
	.loc 1 428 12
	li	s1,0
	j	.L88
.L93:
.LBE69:
	.loc 1 425 5 is_stmt 1
	mv	a1,s2
	mv	a0,s0
.LVL157:
	call	caml_deserialize_block_8
.LVL158:
	j	.L87
.LVL159:
.L90:
.LBB70:
	.loc 1 429 7 discriminator 3
	.loc 1 429 12 is_stmt 0 discriminator 3
	call	caml_deserialize_sint_4
.LVL160:
	.loc 1 429 10 discriminator 3
	sd	a0,0(s0)
	.loc 1 428 41 is_stmt 1 discriminator 3
	.loc 1 428 42 is_stmt 0 discriminator 3
	addi	s1,s1,1
.LVL161:
	.loc 1 428 47 discriminator 3
	addi	s0,s0,8
.LVL162:
.L88:
	.loc 1 428 27 is_stmt 1 discriminator 1
	.loc 1 428 5 is_stmt 0 discriminator 1
	blt	s1,s2,.L90
.LVL163:
.L87:
.LBE70:
	.loc 1 437 1
	ld	ra,24(sp)
	.cfi_restore 1
	ld	s0,16(sp)
	.cfi_restore 8
	ld	s1,8(sp)
	.cfi_restore 9
	ld	s2,0(sp)
	.cfi_restore 18
.LVL164:
	addi	sp,sp,32
	.cfi_def_cfa_offset 0
	jr	ra
	.cfi_endproc
.LFE21:
	.size	caml_ba_deserialize_longarray, .-caml_ba_deserialize_longarray
	.section	.rodata.str1.8,"aMS",@progbits,1
	.align	3
.LC0:
	.string	"input_value: wrong number of bigarray dimensions"
	.align	3
.LC1:
	.string	"input_value: size overflow for bigarray"
	.align	3
.LC2:
	.string	"input_value: bad bigarray kind"
	.align	3
.LC3:
	.string	"input_value: out of memory for bigarray"
	.text
	.align	1
	.globl	caml_ba_deserialize
	.type	caml_ba_deserialize, @function
caml_ba_deserialize:
.LFB22:
	.loc 1 440 1 is_stmt 1
	.cfi_startproc
.LVL165:
	addi	sp,sp,-32
	.cfi_def_cfa_offset 32
	sd	ra,24(sp)
	sd	s0,16(sp)
	sd	s1,8(sp)
	sd	s2,0(sp)
	.cfi_offset 1, -8
	.cfi_offset 8, -16
	.cfi_offset 9, -24
	.cfi_offset 18, -32
	mv	s0,a0
	.loc 1 441 3
.LVL166:
	.loc 1 442 3
	.loc 1 443 3
	.loc 1 446 3
	.loc 1 446 17 is_stmt 0
	call	caml_deserialize_uint_4
.LVL167:
	slli	a0,a0,32
	srli	a0,a0,32
	.loc 1 446 15
	sd	a0,8(s0)
	.loc 1 447 3 is_stmt 1
	.loc 1 447 6 is_stmt 0
	li	a5,16
	bgtu	a0,a5,.L118
.L95:
	.loc 1 449 3 is_stmt 1
	.loc 1 449 14 is_stmt 0
	call	caml_deserialize_uint_4
.LVL168:
	sext.w	a5,a0
	.loc 1 449 40
	ori	a5,a5,512
	slli	a5,a5,32
	srli	a5,a5,32
	.loc 1 449 12
	sd	a5,16(s0)
	.loc 1 450 3 is_stmt 1
	.loc 1 450 12 is_stmt 0
	sd	zero,24(s0)
	.loc 1 451 3 is_stmt 1
.LVL169:
	.loc 1 451 10 is_stmt 0
	li	s1,0
.LVL170:
.L96:
	.loc 1 451 15 is_stmt 1 discriminator 1
	.loc 1 451 20 is_stmt 0 discriminator 1
	ld	a5,8(s0)
	.loc 1 451 3 discriminator 1
	bge	s1,a5,.L119
	.loc 1 451 37 is_stmt 1 discriminator 3
	.loc 1 451 49 is_stmt 0 discriminator 3
	call	caml_deserialize_uint_4
.LVL171:
	slli	a0,a0,32
	srli	a0,a0,32
	.loc 1 451 47 discriminator 3
	addi	a5,s1,4
	slli	a5,a5,3
	add	a5,s0,a5
	sd	a0,0(a5)
	.loc 1 451 32 is_stmt 1 discriminator 3
	.loc 1 451 33 is_stmt 0 discriminator 3
	addiw	s1,s1,1
.LVL172:
	j	.L96
.L118:
	.loc 1 448 5 is_stmt 1
	lla	a0,.LC0
	call	caml_deserialize_error
.LVL173:
	j	.L95
.LVL174:
.L119:
	.loc 1 453 12 is_stmt 0
	li	s2,1
	.loc 1 454 10
	li	s1,0
.LVL175:
	j	.L98
.LVL176:
.L121:
.LBB71:
.LBB72:
	.file 2 "caml/misc.h"
	.loc 2 162 10
	li	a4,1
	j	.L99
.LVL177:
.L122:
.LBE72:
.LBE71:
	.loc 1 456 7 is_stmt 1
	lla	a0,.LC1
	call	caml_deserialize_error
.LVL178:
.L101:
	.loc 1 454 32 discriminator 2
	.loc 1 454 33 is_stmt 0 discriminator 2
	addiw	s1,s1,1
.LVL179:
.L98:
	.loc 1 454 15 is_stmt 1 discriminator 1
	.loc 1 454 20 is_stmt 0 discriminator 1
	ld	a5,8(s0)
	.loc 1 454 3 discriminator 1
	bge	s1,a5,.L120
	.loc 1 455 5 is_stmt 1
	.loc 1 455 44 is_stmt 0
	addi	a5,s1,4
	slli	a5,a5,3
	add	a5,s0,a5
	ld	a5,0(a5)
.LVL180:
.LBB74:
.LBB73:
	.loc 2 162 3 is_stmt 1
	.loc 2 162 10 is_stmt 0
	li	a4,0
	mul	a3,s2,a5
	mulhu	a5,s2,a5
.LVL181:
	bne	a5,zero,.L121
.L99:
	mv	s2,a3
.LVL182:
.LBE73:
.LBE74:
	.loc 1 455 8
	beq	a4,zero,.L101
.LVL183:
	j	.L122
.LVL184:
.L120:
	.loc 1 459 3 is_stmt 1
	.loc 1 459 17 is_stmt 0
	lbu	a4,16(s0)
	.loc 1 459 6
	li	a5,12
	bgt	a4,a5,.L123
.L103:
	.loc 1 461 3 is_stmt 1
	.loc 1 462 56 is_stmt 0
	lbu	a5,16(s0)
	.loc 1 462 46
	slli	a4,a5,2
	lla	a5,.LANCHOR0
	add	a5,a5,a4
	lw	a5,0(a5)
.LVL185:
.LBB75:
.LBB76:
	.loc 2 162 3 is_stmt 1
	.loc 2 162 10 is_stmt 0
	li	a4,0
	mul	s1,s2,a5
.LVL186:
	mulhu	a5,s2,a5
.LVL187:
	bne	a5,zero,.L124
.L104:
.LVL188:
.LBE76:
.LBE75:
	.loc 1 461 6
	bne	a4,zero,.L125
.L106:
	.loc 1 466 3 is_stmt 1
	.loc 1 466 13 is_stmt 0
	mv	a0,s1
	call	malloc
.LVL189:
	.loc 1 466 11
	sd	a0,0(s0)
	.loc 1 467 3 is_stmt 1
	.loc 1 467 6 is_stmt 0
	beq	a0,zero,.L126
.L107:
	.loc 1 470 3 is_stmt 1
	.loc 1 470 20 is_stmt 0
	lbu	a5,16(s0)
	li	a4,12
	bgtu	a5,a4,.L108
	slli	a5,a5,2
	lla	a4,.L110
	add	a5,a5,a4
	lw	a5,0(a5)
	add	a5,a5,a4
	jr	a5
	.section	.rodata
	.align	2
	.align	2
.L110:
	.word	.L115-.L110
	.word	.L114-.L110
	.word	.L109-.L110
	.word	.L109-.L110
	.word	.L116-.L110
	.word	.L116-.L110
	.word	.L115-.L110
	.word	.L114-.L110
	.word	.L113-.L110
	.word	.L113-.L110
	.word	.L112-.L110
	.word	.L111-.L110
	.word	.L109-.L110
	.text
.LVL190:
.L123:
	.loc 1 460 5 is_stmt 1
	lla	a0,.LC2
	call	caml_deserialize_error
.LVL191:
	j	.L103
.LVL192:
.L124:
.LBB78:
.LBB77:
	.loc 2 162 10 is_stmt 0
	li	a4,1
	j	.L104
.LVL193:
.L125:
.LBE77:
.LBE78:
	.loc 1 464 5 is_stmt 1
	lla	a0,.LC1
	call	caml_deserialize_error
.LVL194:
	j	.L106
.L126:
	.loc 1 468 5
	lla	a0,.LC3
	call	caml_deserialize_error
.LVL195:
	j	.L107
.L109:
	.loc 1 474 5
	mv	a1,s2
	ld	a0,0(s0)
	call	caml_deserialize_block_1
.LVL196:
	.loc 1 474 50
.L108:
	.loc 1 493 3
	.loc 1 493 29 is_stmt 0
	ld	a0,8(s0)
.LVL197:
	.loc 1 493 26
	addi	a0,a0,4
	.loc 1 494 1
	slli	a0,a0,3
	ld	ra,24(sp)
	.cfi_remember_state
	.cfi_restore 1
	ld	s0,16(sp)
	.cfi_restore 8
.LVL198:
	ld	s1,8(sp)
	.cfi_restore 9
	ld	s2,0(sp)
	.cfi_restore 18
	addi	sp,sp,32
	.cfi_def_cfa_offset 0
	jr	ra
.LVL199:
.L116:
	.cfi_restore_state
	.loc 1 477 5 is_stmt 1
	mv	a1,s2
	ld	a0,0(s0)
	call	caml_deserialize_block_2
.LVL200:
	.loc 1 477 50
	.loc 1 477 5 is_stmt 0
	j	.L108
.L115:
	.loc 1 480 5 is_stmt 1
	mv	a1,s2
	ld	a0,0(s0)
	call	caml_deserialize_block_4
.LVL201:
	.loc 1 480 50
	.loc 1 480 5 is_stmt 0
	j	.L108
.L112:
	.loc 1 482 5 is_stmt 1
	slli	a1,s2,1
	ld	a0,0(s0)
	call	caml_deserialize_block_4
.LVL202:
	.loc 1 482 54
	.loc 1 482 5 is_stmt 0
	j	.L108
.L114:
	.loc 1 485 5 is_stmt 1
	mv	a1,s2
	ld	a0,0(s0)
	call	caml_deserialize_block_8
.LVL203:
	.loc 1 485 50
	.loc 1 485 5 is_stmt 0
	j	.L108
.L111:
	.loc 1 487 5 is_stmt 1
	slli	a1,s2,1
	ld	a0,0(s0)
	call	caml_deserialize_block_8
.LVL204:
	.loc 1 487 54
	.loc 1 487 5 is_stmt 0
	j	.L108
.L113:
	.loc 1 490 5 is_stmt 1
	mv	a1,s2
	ld	a0,0(s0)
	call	caml_ba_deserialize_longarray
.LVL205:
	.loc 1 490 55
	.loc 1 490 5 is_stmt 0
	j	.L108
	.cfi_endproc
.LFE22:
	.size	caml_ba_deserialize, .-caml_ba_deserialize
	.align	1
	.type	caml_ba_offset, @function
caml_ba_offset:
.LFB24:
	.loc 1 522 1 is_stmt 1
	.cfi_startproc
.LVL206:
	addi	sp,sp,-16
	.cfi_def_cfa_offset 16
	sd	ra,8(sp)
	.cfi_offset 1, -8
	mv	a2,a0
	.loc 1 523 3
	.loc 1 524 3
	.loc 1 526 3
.LVL207:
	.loc 1 527 3
	.loc 1 527 9 is_stmt 0
	ld	a5,16(a0)
	.loc 1 527 17
	andi	a0,a5,256
.LVL208:
	.loc 1 527 6
	beq	a0,zero,.L136
	.loc 1 536 5 is_stmt 1
	.loc 1 536 26 is_stmt 0
	lw	a4,8(a2)
	.loc 1 536 12
	addiw	a4,a4,-1
.LVL209:
	.loc 1 526 10
	li	a0,0
.LVL210:
.L133:
	.loc 1 536 31 is_stmt 1 discriminator 1
	.loc 1 536 5 is_stmt 0 discriminator 1
	blt	a4,zero,.L127
	.loc 1 537 7 is_stmt 1
	.loc 1 537 27 is_stmt 0
	slli	a5,a4,3
	add	a5,a1,a5
	ld	a3,0(a5)
	.loc 1 537 31
	addi	a6,a3,-1
	.loc 1 537 55
	addi	a5,a4,4
	slli	a5,a5,3
	add	a5,a2,a5
	ld	a5,0(a5)
	.loc 1 537 10
	bgeu	a6,a5,.L139
	.loc 1 539 7 is_stmt 1 discriminator 2
	.loc 1 539 23 is_stmt 0 discriminator 2
	mul	a0,a5,a0
.LVL211:
	.loc 1 539 35 discriminator 2
	add	a0,a3,a0
	.loc 1 539 14 discriminator 2
	addi	a0,a0,-1
.LVL212:
	.loc 1 536 39 is_stmt 1 discriminator 2
	.loc 1 536 40 is_stmt 0 discriminator 2
	addiw	a4,a4,-1
.LVL213:
	j	.L133
.LVL214:
.L140:
	.loc 1 531 9 is_stmt 1
	call	caml_array_bound_error
.LVL215:
.L136:
	.loc 1 529 12 is_stmt 0
	li	a4,0
.LVL216:
.L128:
	.loc 1 529 17 is_stmt 1 discriminator 1
	.loc 1 529 22 is_stmt 0 discriminator 1
	ld	a5,8(a2)
	.loc 1 529 5 discriminator 1
	bge	a4,a5,.L127
	.loc 1 530 7 is_stmt 1
	.loc 1 530 26 is_stmt 0
	slli	a5,a4,3
	add	a5,a1,a5
	ld	a3,0(a5)
	.loc 1 530 49
	addi	a5,a4,4
	slli	a5,a5,3
	add	a5,a2,a5
	ld	a5,0(a5)
	.loc 1 530 10
	bgeu	a3,a5,.L140
	.loc 1 532 7 is_stmt 1 discriminator 2
	.loc 1 532 23 is_stmt 0 discriminator 2
	mul	a0,a5,a0
.LVL217:
	.loc 1 532 14 discriminator 2
	add	a0,a3,a0
.LVL218:
	.loc 1 529 34 is_stmt 1 discriminator 2
	.loc 1 529 35 is_stmt 0 discriminator 2
	addiw	a4,a4,1
.LVL219:
	j	.L128
.LVL220:
.L139:
	.loc 1 538 9 is_stmt 1
	call	caml_array_bound_error
.LVL221:
.L127:
	.loc 1 543 1 is_stmt 0
	ld	ra,8(sp)
	.cfi_restore 1
	addi	sp,sp,16
	.cfi_def_cfa_offset 0
	jr	ra
	.cfi_endproc
.LFE24:
	.size	caml_ba_offset, .-caml_ba_offset
	.align	1
	.type	copy_two_doubles, @function
copy_two_doubles:
.LFB25:
	.loc 1 548 1 is_stmt 1
	.cfi_startproc
.LVL222:
	addi	sp,sp,-32
	.cfi_def_cfa_offset 32
	sd	ra,24(sp)
	sd	s0,16(sp)
	fsd	fs0,8(sp)
	fsd	fs1,0(sp)
	.cfi_offset 1, -8
	.cfi_offset 8, -16
	.cfi_offset 40, -24
	.cfi_offset 41, -32
	fmv.d	fs1,fa0
	fmv.d	fs0,fa1
	.loc 1 549 3
	.loc 1 549 15 is_stmt 0
	li	a1,254
	li	a0,2
	call	caml_alloc_small
.LVL223:
	mv	s0,a0
.LVL224:
	.loc 1 550 3 is_stmt 1
.LBB79:
.LBB80:
	.file 3 "caml/mlvalues.h"
	.loc 3 314 5
	.loc 3 314 9 is_stmt 0
	lbu	a4,-8(a0)
	.loc 3 314 8
	li	a5,254
	bne	a4,a5,.L142
	.loc 3 315 7 is_stmt 1
.LBB81:
	.loc 3 315 7
.LVL225:
	.loc 3 315 7
	.loc 3 315 7
	fsd	fs1,0(a0)
.LBE81:
	.loc 3 315 7
.LVL226:
.L143:
.LBE80:
.LBE79:
	.loc 1 551 3
.LBB83:
.LBB84:
	.loc 3 314 5
	.loc 3 314 9 is_stmt 0
	lbu	a4,-8(s0)
	.loc 3 314 8
	li	a5,254
	bne	a4,a5,.L144
	.loc 3 315 7 is_stmt 1
.LBB85:
	.loc 3 315 7
.LVL227:
	.loc 3 315 7
	.loc 3 315 7
	fsd	fs0,8(s0)
.LBE85:
	.loc 3 315 7
.LVL228:
.L141:
.LBE84:
.LBE83:
	.loc 1 553 1 is_stmt 0
	mv	a0,s0
	ld	ra,24(sp)
	.cfi_remember_state
	.cfi_restore 1
	ld	s0,16(sp)
	.cfi_restore 8
.LVL229:
	fld	fs0,8(sp)
	.cfi_restore 40
.LVL230:
	fld	fs1,0(sp)
	.cfi_restore 41
.LVL231:
	addi	sp,sp,32
	.cfi_def_cfa_offset 0
	jr	ra
.LVL232:
.L142:
	.cfi_restore_state
.LBB87:
.LBB82:
	.loc 3 317 7 is_stmt 1
	fmv.d	fa0,fs1
	li	a1,0
	call	caml_Store_double_array_field
.LVL233:
	j	.L143
.LVL234:
.L144:
.LBE82:
.LBE87:
.LBB88:
.LBB86:
	.loc 3 317 7
	fmv.d	fa0,fs0
	li	a1,1
	mv	a0,s0
	call	caml_Store_double_array_field
.LVL235:
.LBE86:
.LBE88:
	.loc 1 552 3
	.loc 1 552 10 is_stmt 0
	j	.L141
	.cfi_endproc
.LFE25:
	.size	copy_two_doubles, .-copy_two_doubles
	.section	.rodata.str1.8
	.align	3
.LC4:
	.string	"Bigarray.set: wrong number of indices"
	.text
	.align	1
	.type	caml_ba_set_aux, @function
caml_ba_set_aux:
.LFB34:
	.loc 1 699 1 is_stmt 1
	.cfi_startproc
.LVL236:
	addi	sp,sp,-160
	.cfi_def_cfa_offset 160
	sd	ra,152(sp)
	sd	s0,144(sp)
	sd	s1,136(sp)
	sd	s2,128(sp)
	.cfi_offset 1, -8
	.cfi_offset 8, -16
	.cfi_offset 9, -24
	.cfi_offset 18, -32
	.loc 1 700 3
	.loc 1 700 30 is_stmt 0
	addi	s0,a0,8
.LVL237:
	.loc 1 701 3 is_stmt 1
	.loc 1 702 3
	.loc 1 703 3
	.loc 1 707 3
	.loc 1 707 16 is_stmt 0
	ld	a5,8(s0)
	.loc 1 707 6
	bne	a5,a2,.L172
	mv	s1,a0
	mv	s2,a3
	.loc 1 710 10
	li	a4,0
	j	.L148
.L172:
	.loc 1 708 5 is_stmt 1
	lla	a0,.LC4
.LVL238:
	call	caml_invalid_argument
.LVL239:
.L149:
	.loc 1 710 37 discriminator 3
	.loc 1 710 48 is_stmt 0 discriminator 3
	slli	a5,a4,3
	add	a2,a1,a5
	ld	a2,0(a2)
	srai	a2,a2,1
	.loc 1 710 46 discriminator 3
	addi	a3,sp,128
	add	a5,a3,a5
	sd	a2,-128(a5)
	.loc 1 710 32 is_stmt 1 discriminator 3
	.loc 1 710 33 is_stmt 0 discriminator 3
	addiw	a4,a4,1
.LVL240:
.L148:
	.loc 1 710 15 is_stmt 1 discriminator 1
	.loc 1 710 20 is_stmt 0 discriminator 1
	ld	a5,8(s0)
	.loc 1 710 3 discriminator 1
	blt	a4,a5,.L149
	.loc 1 711 3 is_stmt 1
	.loc 1 711 12 is_stmt 0
	mv	a1,sp
.LVL241:
	mv	a0,s0
	call	caml_ba_offset
.LVL242:
	.loc 1 713 3 is_stmt 1
	.loc 1 713 20 is_stmt 0
	lbu	a5,16(s0)
	li	a4,12
	bgtu	a5,a4,.L150
	slli	a5,a5,2
	lla	a4,.L152
	add	a5,a5,a4
	lw	a5,0(a5)
	add	a5,a5,a4
	jr	a5
	.section	.rodata
	.align	2
	.align	2
.L152:
	.word	.L150-.L152
	.word	.L160-.L152
	.word	.L151-.L152
	.word	.L151-.L152
	.word	.L159-.L152
	.word	.L159-.L152
	.word	.L158-.L152
	.word	.L157-.L152
	.word	.L156-.L152
	.word	.L155-.L152
	.word	.L154-.L152
	.word	.L153-.L152
	.word	.L151-.L152
	.text
.L150:
	.loc 1 715 5 is_stmt 1
	.loc 1 717 5
	.loc 1 717 17 is_stmt 0
	ld	a5,8(s1)
	.loc 1 717 24
	slli	a0,a0,2
.LVL243:
	add	a0,a5,a0
	.loc 1 717 35
	fld	fa5,0(s2)
	fcvt.s.d	fa5,fa5
	.loc 1 717 33
	fsw	fa5,0(a0)
	.loc 1 717 55 is_stmt 1
.LVL244:
.L161:
	.loc 1 746 3
	.loc 1 747 1 is_stmt 0
	li	a0,1
	ld	ra,152(sp)
	.cfi_remember_state
	.cfi_restore 1
	ld	s0,144(sp)
	.cfi_restore 8
	ld	s1,136(sp)
	.cfi_restore 9
.LVL245:
	ld	s2,128(sp)
	.cfi_restore 18
	addi	sp,sp,160
	.cfi_def_cfa_offset 0
	jr	ra
.LVL246:
.L160:
	.cfi_restore_state
	.loc 1 719 5 is_stmt 1
	.loc 1 719 18 is_stmt 0
	ld	a5,8(s1)
	.loc 1 719 25
	slli	a0,a0,3
.LVL247:
	add	a0,a5,a0
	.loc 1 719 36
	fld	fa5,0(s2)
	.loc 1 719 34
	fsd	fa5,0(a0)
	.loc 1 719 56 is_stmt 1
	.loc 1 719 5 is_stmt 0
	j	.L161
.LVL248:
.L151:
	.loc 1 723 5 is_stmt 1
	.loc 1 723 34 is_stmt 0
	srai	s2,s2,1
.LVL249:
	.loc 1 723 16
	ld	a5,8(s1)
	.loc 1 723 23
	add	a0,a5,a0
.LVL250:
	.loc 1 723 32
	sb	s2,0(a0)
	.loc 1 723 51 is_stmt 1
	.loc 1 723 5 is_stmt 0
	j	.L161
.LVL251:
.L159:
	.loc 1 726 5 is_stmt 1
	.loc 1 726 35 is_stmt 0
	srai	s2,s2,1
.LVL252:
	.loc 1 726 17
	ld	a5,8(s1)
	.loc 1 726 24
	slli	a0,a0,1
.LVL253:
	add	a0,a5,a0
	.loc 1 726 33
	sh	s2,0(a0)
	.loc 1 726 52 is_stmt 1
	.loc 1 726 5 is_stmt 0
	j	.L161
.LVL254:
.L158:
	.loc 1 728 5 is_stmt 1
	.loc 1 728 19 is_stmt 0
	ld	a5,8(s1)
	.loc 1 728 26
	slli	a0,a0,2
.LVL255:
	add	a0,a5,a0
	.loc 1 728 37
	lw	a5,8(s2)
	.loc 1 728 35
	sw	a5,0(a0)
	.loc 1 728 56 is_stmt 1
	.loc 1 728 5 is_stmt 0
	j	.L161
.LVL256:
.L157:
	.loc 1 730 5 is_stmt 1
	.loc 1 730 19 is_stmt 0
	ld	s0,8(s1)
.LVL257:
	.loc 1 730 26
	slli	a0,a0,3
.LVL258:
	add	s0,s0,a0
	.loc 1 730 37
	mv	a0,s2
	call	caml_Int64_val
.LVL259:
	.loc 1 730 35
	sd	a0,0(s0)
	.loc 1 730 56 is_stmt 1
	.loc 1 730 5 is_stmt 0
	j	.L161
.LVL260:
.L155:
	.loc 1 732 5 is_stmt 1
	.loc 1 732 18 is_stmt 0
	ld	a5,8(s1)
	.loc 1 732 25
	slli	a0,a0,3
.LVL261:
	add	a0,a5,a0
	.loc 1 732 36
	ld	a5,8(s2)
	.loc 1 732 34
	sd	a5,0(a0)
	.loc 1 732 59 is_stmt 1
	.loc 1 732 5 is_stmt 0
	j	.L161
.LVL262:
.L156:
	.loc 1 734 5 is_stmt 1
	.loc 1 734 18 is_stmt 0
	ld	a5,8(s1)
	.loc 1 734 25
	slli	a0,a0,3
.LVL263:
	add	a0,a5,a0
	.loc 1 734 36
	srai	s2,s2,1
.LVL264:
	.loc 1 734 34
	sd	s2,0(a0)
	.loc 1 734 54 is_stmt 1
	.loc 1 734 5 is_stmt 0
	j	.L161
.LVL265:
.L154:
.LBB89:
	.loc 1 736 7 is_stmt 1
	.loc 1 736 31 is_stmt 0
	ld	a5,8(s1)
	.loc 1 736 39
	slli	a0,a0,3
.LVL266:
	.loc 1 736 15
	add	a0,a5,a0
.LVL267:
	.loc 1 737 7 is_stmt 1
.LBB90:
.LBB91:
	.loc 3 307 5
	.loc 3 307 9 is_stmt 0
	lbu	a4,-8(s2)
	.loc 3 307 8
	li	a5,254
	beq	a4,a5,.L173
	.loc 3 310 7 is_stmt 1
	.loc 3 310 14 is_stmt 0
	ld	a5,0(s2)
	fld	fa5,0(a5)
.L163:
.LVL268:
.LBE91:
.LBE90:
	.loc 1 737 14
	fcvt.s.d	fa5,fa5
	.loc 1 737 12
	fsw	fa5,0(a0)
	.loc 1 738 7 is_stmt 1
.LVL269:
.LBB93:
.LBB94:
	.loc 3 307 5
	.loc 3 307 9 is_stmt 0
	lbu	a4,-8(s2)
	.loc 3 307 8
	li	a5,254
	beq	a4,a5,.L174
	.loc 3 310 7 is_stmt 1
	.loc 3 310 14 is_stmt 0
	ld	a5,8(s2)
	fld	fa5,0(a5)
.L165:
.LVL270:
.LBE94:
.LBE93:
	.loc 1 738 14
	fcvt.s.d	fa5,fa5
	.loc 1 738 12
	fsw	fa5,4(a0)
	.loc 1 739 7 is_stmt 1
	j	.L161
.LVL271:
.L173:
.LBB96:
.LBB92:
	.loc 3 308 7
	.loc 3 308 14 is_stmt 0
	fld	fa5,0(s2)
	j	.L163
.LVL272:
.L174:
.LBE92:
.LBE96:
.LBB97:
.LBB95:
	.loc 3 308 7 is_stmt 1
	.loc 3 308 14 is_stmt 0
	fld	fa5,8(s2)
	j	.L165
.LVL273:
.L153:
.LBE95:
.LBE97:
.LBE89:
.LBB98:
	.loc 1 741 7 is_stmt 1
	.loc 1 741 33 is_stmt 0
	ld	a5,8(s1)
	.loc 1 741 41
	slli	a0,a0,4
.LVL274:
	.loc 1 741 16
	add	a0,a5,a0
.LVL275:
	.loc 1 742 7 is_stmt 1
.LBB99:
.LBB100:
	.loc 3 307 5
	.loc 3 307 9 is_stmt 0
	lbu	a4,-8(s2)
	.loc 3 307 8
	li	a5,254
	beq	a4,a5,.L175
	.loc 3 310 7 is_stmt 1
	.loc 3 310 14 is_stmt 0
	ld	a5,0(s2)
	fld	fa5,0(a5)
.L167:
.LVL276:
.LBE100:
.LBE99:
	.loc 1 742 12
	fsd	fa5,0(a0)
	.loc 1 743 7 is_stmt 1
.LVL277:
.LBB102:
.LBB103:
	.loc 3 307 5
	.loc 3 307 9 is_stmt 0
	lbu	a4,-8(s2)
	.loc 3 307 8
	li	a5,254
	beq	a4,a5,.L176
	.loc 3 310 7 is_stmt 1
	.loc 3 310 14 is_stmt 0
	ld	a5,8(s2)
	fld	fa5,0(a5)
.L169:
.LVL278:
.LBE103:
.LBE102:
	.loc 1 743 12
	fsd	fa5,8(a0)
	.loc 1 744 7 is_stmt 1
	j	.L161
.LVL279:
.L175:
.LBB105:
.LBB101:
	.loc 3 308 7
	.loc 3 308 14 is_stmt 0
	fld	fa5,0(s2)
	j	.L167
.LVL280:
.L176:
.LBE101:
.LBE105:
.LBB106:
.LBB104:
	.loc 3 308 7 is_stmt 1
	.loc 3 308 14 is_stmt 0
	fld	fa5,8(s2)
	j	.L169
.LBE104:
.LBE106:
.LBE98:
	.cfi_endproc
.LFE34:
	.size	caml_ba_set_aux, .-caml_ba_set_aux
	.align	1
	.globl	caml_ba_num_elts
	.type	caml_ba_num_elts, @function
caml_ba_num_elts:
.LFB12:
	.loc 1 39 1 is_stmt 1
	.cfi_startproc
.LVL281:
	mv	a3,a0
	.loc 1 40 3
	.loc 1 41 3
	.loc 1 42 3
.LVL282:
	.loc 1 43 3
	.loc 1 43 10 is_stmt 0
	li	a4,0
	.loc 1 42 12
	li	a0,1
.LVL283:
.L178:
	.loc 1 43 15 is_stmt 1 discriminator 1
	.loc 1 43 20 is_stmt 0 discriminator 1
	ld	a5,8(a3)
	.loc 1 43 3 discriminator 1
	bge	a4,a5,.L180
	.loc 1 43 37 is_stmt 1 discriminator 3
	.loc 1 43 65 is_stmt 0 discriminator 3
	addi	a5,a4,4
	slli	a5,a5,3
	add	a5,a3,a5
	ld	a5,0(a5)
	.loc 1 43 46 discriminator 3
	mul	a0,a0,a5
.LVL284:
	.loc 1 43 32 is_stmt 1 discriminator 3
	.loc 1 43 33 is_stmt 0 discriminator 3
	addiw	a4,a4,1
.LVL285:
	j	.L178
.LVL286:
.L180:
	.loc 1 45 1
	ret
	.cfi_endproc
.LFE12:
	.size	caml_ba_num_elts, .-caml_ba_num_elts
	.align	1
	.globl	caml_ba_compare
	.type	caml_ba_compare, @function
caml_ba_compare:
.LFB17:
	.loc 1 176 1 is_stmt 1
	.cfi_startproc
.LVL287:
	addi	sp,sp,-32
	.cfi_def_cfa_offset 32
	sd	ra,24(sp)
	sd	s0,16(sp)
	sd	s1,8(sp)
	sd	s2,0(sp)
	.cfi_offset 1, -8
	.cfi_offset 8, -16
	.cfi_offset 9, -24
	.cfi_offset 18, -32
	mv	s1,a0
	.loc 1 177 3
	.loc 1 177 31 is_stmt 0
	addi	a3,a0,8
.LVL288:
	.loc 1 178 3 is_stmt 1
	.loc 1 178 31 is_stmt 0
	addi	a2,a1,8
.LVL289:
	.loc 1 179 3 is_stmt 1
	.loc 1 180 3
	.loc 1 181 3
	.loc 1 184 3
	.loc 1 184 14 is_stmt 0
	ld	s2,16(a3)
	.loc 1 184 10
	andi	a0,s2,511
.LVL290:
	.loc 1 185 3 is_stmt 1
	.loc 1 185 14 is_stmt 0
	ld	a5,16(a2)
	.loc 1 185 10
	andi	a5,a5,511
.LVL291:
	.loc 1 186 3 is_stmt 1
	.loc 1 186 6 is_stmt 0
	beq	a0,a5,.L182
	.loc 1 186 25 is_stmt 1 discriminator 1
	.loc 1 186 39 is_stmt 0 discriminator 1
	subw	a0,a5,a0
.LVL292:
.L183:
	.loc 1 254 1
	ld	ra,24(sp)
	.cfi_remember_state
	.cfi_restore 1
	ld	s0,16(sp)
	.cfi_restore 8
	ld	s1,8(sp)
	.cfi_restore 9
.LVL293:
	ld	s2,0(sp)
	.cfi_restore 18
	addi	sp,sp,32
	.cfi_def_cfa_offset 0
	jr	ra
.LVL294:
.L182:
	.cfi_restore_state
	mv	s0,a1
	.loc 1 188 3 is_stmt 1
	.loc 1 188 9 is_stmt 0
	ld	a0,8(a3)
.LVL295:
	.loc 1 188 25
	ld	a5,8(a2)
.LVL296:
	.loc 1 188 6
	beq	a0,a5,.L223
.LVL297:
	.loc 1 188 37 is_stmt 1 discriminator 1
	.loc 1 188 57 is_stmt 0 discriminator 1
	subw	a0,a5,a0
	j	.L183
.LVL298:
.L252:
.LBB107:
	.loc 1 193 19 is_stmt 1 discriminator 1
	.loc 1 193 39 is_stmt 0 discriminator 1
	bge	a6,a1,.L224
	.loc 1 193 39
	li	a0,-1
	j	.L183
.L224:
	li	a0,1
	j	.L183
.LVL299:
.L223:
.LBE107:
	.loc 1 190 10
	li	a4,0
.L184:
.LVL300:
	.loc 1 190 15 is_stmt 1 discriminator 1
	.loc 1 190 3 is_stmt 0 discriminator 1
	ble	a0,a4,.L251
.LBB108:
	.loc 1 191 5 is_stmt 1
	.loc 1 191 12 is_stmt 0
	addi	a5,a4,4
	slli	a5,a5,3
	add	a1,a3,a5
	ld	a6,0(a1)
.LVL301:
	.loc 1 192 5 is_stmt 1
	.loc 1 192 12 is_stmt 0
	add	a5,a2,a5
	ld	a1,0(a5)
.LVL302:
	.loc 1 193 5 is_stmt 1
	.loc 1 193 8 is_stmt 0
	bne	a6,a1,.L252
.LBE108:
	.loc 1 190 33 is_stmt 1 discriminator 2
	.loc 1 190 34 is_stmt 0 discriminator 2
	addiw	a4,a4,1
.LVL303:
	j	.L184
.LVL304:
.L251:
	.loc 1 196 3 is_stmt 1
	.loc 1 196 14 is_stmt 0
	mv	a0,a3
	call	caml_ba_num_elts
.LVL305:
	.loc 1 222 3 is_stmt 1
	.loc 1 222 21 is_stmt 0
	andi	s2,s2,255
.LVL306:
	li	a5,12
	bgtu	s2,a5,.L225
	slli	s2,s2,2
	lla	a4,.L189
	add	s2,s2,a4
	lw	a5,0(s2)
	add	a5,a5,a4
	jr	a5
	.section	.rodata
	.align	2
	.align	2
.L189:
	.word	.L200-.L189
	.word	.L199-.L189
	.word	.L198-.L189
	.word	.L197-.L189
	.word	.L196-.L189
	.word	.L195-.L189
	.word	.L194-.L189
	.word	.L193-.L189
	.word	.L192-.L189
	.word	.L192-.L189
	.word	.L191-.L189
	.word	.L190-.L189
	.word	.L188-.L189
	.text
.L191:
	.loc 1 224 5 is_stmt 1
	.loc 1 224 14 is_stmt 0
	slli	a0,a0,1
.LVL307:
.L200:
.LBB109:
	.loc 1 226 5 is_stmt 1
	ld	a4,8(s1)
.LVL308:
	.loc 1 226 5
	ld	a5,8(s0)
.LVL309:
	.loc 1 226 5
	li	a3,0
	j	.L201
.LVL310:
.L202:
	.loc 1 226 5 discriminator 11
	addi	a3,a3,1
.LVL311:
.LBB110:
	mv	a5,a4
	mv	a4,a2
.LVL312:
.L201:
.LBE110:
	.loc 1 226 5 discriminator 12
	bgeu	a3,a0,.L253
.LBB111:
	.loc 1 226 5 discriminator 13
	addi	a2,a4,4
.LVL313:
	flw	fa5,0(a4)
.LVL314:
	.loc 1 226 5 discriminator 13
	addi	a4,a5,4
.LVL315:
	flw	fa4,0(a5)
.LVL316:
	.loc 1 226 5 discriminator 13
	flt.s	a5,fa5,fa4
	bne	a5,zero,.L226
	.loc 1 226 5 discriminator 3
	fgt.s	a5,fa5,fa4
	bne	a5,zero,.L227
	.loc 1 226 5 discriminator 5
	feq.s	a5,fa5,fa4
	bne	a5,zero,.L202
	.loc 1 226 5 discriminator 6
	li	a5,1
	sw	a5,caml_compare_unordered,a1
	.loc 1 226 5 discriminator 6
	feq.s	a5,fa5,fa5
	bne	a5,zero,.L228
	.loc 1 226 5 discriminator 9
	feq.s	a5,fa4,fa4
	beq	a5,zero,.L202
	.loc 1 226 5 is_stmt 0
	li	a0,-1
.LVL317:
	j	.L183
.LVL318:
.L253:
.LBE111:
	li	a0,0
.LVL319:
	j	.L183
.LVL320:
.L190:
.LBE109:
	.loc 1 226 31 is_stmt 1
	.loc 1 228 5
	.loc 1 228 14 is_stmt 0
	slli	a0,a0,1
.LVL321:
.L199:
.LBB113:
	.loc 1 230 5 is_stmt 1
	ld	a4,8(s1)
.LVL322:
	.loc 1 230 5
	ld	a5,8(s0)
.LVL323:
	.loc 1 230 5
	li	a3,0
	j	.L204
.LVL324:
.L205:
	.loc 1 230 5 discriminator 11
	addi	a3,a3,1
.LVL325:
.LBB114:
	mv	a5,a4
	mv	a4,a2
.LVL326:
.L204:
.LBE114:
	.loc 1 230 5 discriminator 12
	bgeu	a3,a0,.L254
.LBB115:
	.loc 1 230 5 discriminator 13
	addi	a2,a4,8
.LVL327:
	fld	fa5,0(a4)
.LVL328:
	.loc 1 230 5 discriminator 13
	addi	a4,a5,8
.LVL329:
	fld	fa4,0(a5)
.LVL330:
	.loc 1 230 5 discriminator 13
	flt.d	a5,fa5,fa4
	bne	a5,zero,.L230
	.loc 1 230 5 discriminator 3
	fgt.d	a5,fa5,fa4
	bne	a5,zero,.L231
	.loc 1 230 5 discriminator 5
	feq.d	a5,fa5,fa4
	bne	a5,zero,.L205
	.loc 1 230 5 discriminator 6
	li	a5,1
	sw	a5,caml_compare_unordered,a1
	.loc 1 230 5 discriminator 6
	feq.d	a5,fa5,fa5
	bne	a5,zero,.L232
	.loc 1 230 5 discriminator 9
	feq.d	a5,fa4,fa4
	beq	a5,zero,.L205
	.loc 1 230 5 is_stmt 0
	li	a0,-1
.LVL331:
	j	.L183
.LVL332:
.L254:
.LBE115:
	li	a0,0
.LVL333:
	j	.L183
.LVL334:
.L188:
.LBE113:
	.loc 1 230 32 is_stmt 1
.LBB117:
	.loc 1 232 5
	ld	a4,8(s1)
.LVL335:
	.loc 1 232 5
	ld	a5,8(s0)
.LVL336:
	.loc 1 232 5
	li	a3,0
.LVL337:
.L207:
	.loc 1 232 5 discriminator 6
	bgeu	a3,a0,.L255
.LBB118:
	.loc 1 232 5 discriminator 7
	addi	a2,a4,1
.LVL338:
	lbu	a4,0(a4)
.LVL339:
	.loc 1 232 5 discriminator 7
	addi	a1,a5,1
.LVL340:
	lbu	a5,0(a5)
.LVL341:
	.loc 1 232 5 discriminator 7
	bltu	a4,a5,.L234
	.loc 1 232 5 discriminator 3
	bgtu	a4,a5,.L235
.LBE118:
	.loc 1 232 5 discriminator 5
	addi	a3,a3,1
.LVL342:
.LBB119:
	mv	a5,a1
.LVL343:
	mv	a4,a2
.LVL344:
	j	.L207
.LVL345:
.L255:
.LBE119:
	.loc 1 232 5 is_stmt 0
	li	a0,0
.LVL346:
	j	.L183
.LVL347:
.L198:
.LBE117:
	.loc 1 232 41 is_stmt 1
.LBB121:
	.loc 1 234 5
	ld	a4,8(s1)
.LVL348:
	.loc 1 234 5
	ld	a5,8(s0)
.LVL349:
	.loc 1 234 5
	li	a3,0
.LVL350:
.L209:
	.loc 1 234 5 discriminator 6
	bgeu	a3,a0,.L256
.LBB122:
	.loc 1 234 5 discriminator 7
	addi	a2,a4,1
.LVL351:
	lb	a4,0(a4)
.LVL352:
	.loc 1 234 5 discriminator 7
	addi	a1,a5,1
.LVL353:
	lb	a5,0(a5)
.LVL354:
	.loc 1 234 5 discriminator 7
	blt	a4,a5,.L236
	.loc 1 234 5 discriminator 3
	bgt	a4,a5,.L237
.LBE122:
	.loc 1 234 5 discriminator 5
	addi	a3,a3,1
.LVL355:
.LBB123:
	mv	a5,a1
.LVL356:
	mv	a4,a2
.LVL357:
	j	.L209
.LVL358:
.L256:
.LBE123:
	.loc 1 234 5 is_stmt 0
	li	a0,0
.LVL359:
	j	.L183
.LVL360:
.L197:
.LBE121:
	.loc 1 234 40 is_stmt 1
.LBB125:
	.loc 1 236 5
	ld	a4,8(s1)
.LVL361:
	.loc 1 236 5
	ld	a5,8(s0)
.LVL362:
	.loc 1 236 5
	li	a3,0
.LVL363:
.L211:
	.loc 1 236 5 discriminator 6
	bgeu	a3,a0,.L257
.LBB126:
	.loc 1 236 5 discriminator 7
	addi	a2,a4,1
.LVL364:
	lbu	a4,0(a4)
.LVL365:
	.loc 1 236 5 discriminator 7
	addi	a1,a5,1
.LVL366:
	lbu	a5,0(a5)
.LVL367:
	.loc 1 236 5 discriminator 7
	bltu	a4,a5,.L238
	.loc 1 236 5 discriminator 3
	bgtu	a4,a5,.L239
.LBE126:
	.loc 1 236 5 discriminator 5
	addi	a3,a3,1
.LVL368:
.LBB127:
	mv	a5,a1
.LVL369:
	mv	a4,a2
.LVL370:
	j	.L211
.LVL371:
.L257:
.LBE127:
	.loc 1 236 5 is_stmt 0
	li	a0,0
.LVL372:
	j	.L183
.LVL373:
.L196:
.LBE125:
	.loc 1 236 41 is_stmt 1
.LBB129:
	.loc 1 238 5
	ld	a4,8(s1)
.LVL374:
	.loc 1 238 5
	ld	a5,8(s0)
.LVL375:
	.loc 1 238 5
	li	a3,0
.LVL376:
.L213:
	.loc 1 238 5 discriminator 6
	bgeu	a3,a0,.L258
.LBB130:
	.loc 1 238 5 discriminator 7
	addi	a6,a4,2
.LVL377:
	lh	a4,0(a4)
.LVL378:
	.loc 1 238 5 discriminator 7
	addi	a7,a5,2
.LVL379:
	lh	a5,0(a5)
.LVL380:
	.loc 1 238 5 discriminator 7
	sext.w	a1,a4
	sext.w	a2,a5
	blt	a1,a2,.L240
	.loc 1 238 5 discriminator 3
	bgt	a1,a2,.L241
.LBE130:
	.loc 1 238 5 discriminator 5
	addi	a3,a3,1
.LVL381:
.LBB131:
	mv	a5,a7
.LVL382:
	mv	a4,a6
.LVL383:
	j	.L213
.LVL384:
.L258:
.LBE131:
	.loc 1 238 5 is_stmt 0
	li	a0,0
.LVL385:
	j	.L183
.LVL386:
.L195:
.LBE129:
	.loc 1 238 41 is_stmt 1
.LBB133:
	.loc 1 240 5
	ld	a4,8(s1)
.LVL387:
	.loc 1 240 5
	ld	a5,8(s0)
.LVL388:
	.loc 1 240 5
	li	a3,0
.LVL389:
.L215:
	.loc 1 240 5 discriminator 6
	bgeu	a3,a0,.L259
.LBB134:
	.loc 1 240 5 discriminator 7
	addi	a6,a4,2
.LVL390:
	lhu	a4,0(a4)
.LVL391:
	.loc 1 240 5 discriminator 7
	addi	a7,a5,2
.LVL392:
	lhu	a5,0(a5)
.LVL393:
	.loc 1 240 5 discriminator 7
	sext.w	a1,a4
	sext.w	a2,a5
	bltu	a1,a2,.L242
	.loc 1 240 5 discriminator 3
	bgtu	a1,a2,.L243
.LBE134:
	.loc 1 240 5 discriminator 5
	addi	a3,a3,1
.LVL394:
.LBB135:
	mv	a5,a7
.LVL395:
	mv	a4,a6
.LVL396:
	j	.L215
.LVL397:
.L259:
.LBE135:
	.loc 1 240 5 is_stmt 0
	li	a0,0
.LVL398:
	j	.L183
.LVL399:
.L194:
.LBE133:
	.loc 1 240 42 is_stmt 1
.LBB137:
	.loc 1 242 5
	ld	a4,8(s1)
.LVL400:
	.loc 1 242 5
	ld	a5,8(s0)
.LVL401:
	.loc 1 242 5
	li	a3,0
.LVL402:
.L217:
	.loc 1 242 5 discriminator 6
	bgeu	a3,a0,.L260
.LBB138:
	.loc 1 242 5 discriminator 7
	addi	a2,a4,4
.LVL403:
	lw	a4,0(a4)
.LVL404:
	.loc 1 242 5 discriminator 7
	addi	a1,a5,4
.LVL405:
	lw	a5,0(a5)
.LVL406:
	.loc 1 242 5 discriminator 7
	blt	a4,a5,.L244
	.loc 1 242 5 discriminator 3
	bgt	a4,a5,.L245
.LBE138:
	.loc 1 242 5 discriminator 5
	addi	a3,a3,1
.LVL407:
.LBB139:
	mv	a5,a1
.LVL408:
	mv	a4,a2
.LVL409:
	j	.L217
.LVL410:
.L260:
.LBE139:
	.loc 1 242 5 is_stmt 0
	li	a0,0
.LVL411:
	j	.L183
.LVL412:
.L193:
.LBE137:
	.loc 1 242 35 is_stmt 1
.LBB141:
	.loc 1 244 5
	ld	a4,8(s1)
.LVL413:
	.loc 1 244 5
	ld	a5,8(s0)
.LVL414:
	.loc 1 244 5
	li	a3,0
.LVL415:
.L219:
	.loc 1 244 5 discriminator 6
	bgeu	a3,a0,.L261
.LBB142:
	.loc 1 244 5 discriminator 7
	addi	a2,a4,8
.LVL416:
	ld	a4,0(a4)
.LVL417:
	.loc 1 244 5 discriminator 7
	addi	a1,a5,8
.LVL418:
	ld	a5,0(a5)
.LVL419:
	.loc 1 244 5 discriminator 7
	blt	a4,a5,.L246
	.loc 1 244 5 discriminator 3
	bgt	a4,a5,.L247
.LBE142:
	.loc 1 244 5 discriminator 5
	addi	a3,a3,1
.LVL420:
.LBB143:
	mv	a5,a1
.LVL421:
	mv	a4,a2
.LVL422:
	j	.L219
.LVL423:
.L261:
.LBE143:
	.loc 1 244 5 is_stmt 0
	li	a0,0
.LVL424:
	j	.L183
.LVL425:
.L192:
.LBE141:
	.loc 1 244 35 is_stmt 1
.LBB145:
	.loc 1 247 5
	ld	a4,8(s1)
.LVL426:
	.loc 1 247 5
	ld	a5,8(s0)
.LVL427:
	.loc 1 247 5
	li	a3,0
.LVL428:
.L221:
	.loc 1 247 5 discriminator 6
	bgeu	a3,a0,.L262
.LBB146:
	.loc 1 247 5 discriminator 7
	addi	a2,a4,8
.LVL429:
	ld	a4,0(a4)
.LVL430:
	.loc 1 247 5 discriminator 7
	addi	a1,a5,8
.LVL431:
	ld	a5,0(a5)
.LVL432:
	.loc 1 247 5 discriminator 7
	blt	a4,a5,.L248
	.loc 1 247 5 discriminator 3
	bgt	a4,a5,.L249
.LBE146:
	.loc 1 247 5 discriminator 5
	addi	a3,a3,1
.LVL433:
.LBB147:
	mv	a5,a1
.LVL434:
	mv	a4,a2
.LVL435:
	j	.L221
.LVL436:
.L262:
.LBE147:
	.loc 1 247 5 is_stmt 0
	li	a0,0
.LVL437:
	j	.L183
.LVL438:
.L225:
.LBE145:
	.loc 1 222 21
	li	a0,0
.LVL439:
	j	.L183
.LVL440:
.L226:
.LBB149:
.LBB112:
	.loc 1 226 5
	li	a0,-1
.LVL441:
	j	.L183
.LVL442:
.L227:
	li	a0,1
.LVL443:
	j	.L183
.LVL444:
.L228:
	li	a0,1
.LVL445:
	j	.L183
.LVL446:
.L230:
.LBE112:
.LBE149:
.LBB150:
.LBB116:
	.loc 1 230 5
	li	a0,-1
.LVL447:
	j	.L183
.LVL448:
.L231:
	li	a0,1
.LVL449:
	j	.L183
.LVL450:
.L232:
	li	a0,1
.LVL451:
	j	.L183
.LVL452:
.L234:
.LBE116:
.LBE150:
.LBB151:
.LBB120:
	.loc 1 232 5
	li	a0,-1
.LVL453:
	j	.L183
.LVL454:
.L235:
	li	a0,1
.LVL455:
	j	.L183
.LVL456:
.L236:
.LBE120:
.LBE151:
.LBB152:
.LBB124:
	.loc 1 234 5
	li	a0,-1
.LVL457:
	j	.L183
.LVL458:
.L237:
	li	a0,1
.LVL459:
	j	.L183
.LVL460:
.L238:
.LBE124:
.LBE152:
.LBB153:
.LBB128:
	.loc 1 236 5
	li	a0,-1
.LVL461:
	j	.L183
.LVL462:
.L239:
	li	a0,1
.LVL463:
	j	.L183
.LVL464:
.L240:
.LBE128:
.LBE153:
.LBB154:
.LBB132:
	.loc 1 238 5
	li	a0,-1
.LVL465:
	j	.L183
.LVL466:
.L241:
	li	a0,1
.LVL467:
	j	.L183
.LVL468:
.L242:
.LBE132:
.LBE154:
.LBB155:
.LBB136:
	.loc 1 240 5
	li	a0,-1
.LVL469:
	j	.L183
.LVL470:
.L243:
	li	a0,1
.LVL471:
	j	.L183
.LVL472:
.L244:
.LBE136:
.LBE155:
.LBB156:
.LBB140:
	.loc 1 242 5
	li	a0,-1
.LVL473:
	j	.L183
.LVL474:
.L245:
	li	a0,1
.LVL475:
	j	.L183
.LVL476:
.L246:
.LBE140:
.LBE156:
.LBB157:
.LBB144:
	.loc 1 244 5
	li	a0,-1
.LVL477:
	j	.L183
.LVL478:
.L247:
	li	a0,1
.LVL479:
	j	.L183
.LVL480:
.L248:
.LBE144:
.LBE157:
.LBB158:
.LBB148:
	.loc 1 247 5
	li	a0,-1
.LVL481:
	j	.L183
.LVL482:
.L249:
	li	a0,1
.LVL483:
	j	.L183
.LBE148:
.LBE158:
	.cfi_endproc
.LFE17:
	.size	caml_ba_compare, .-caml_ba_compare
	.align	1
	.globl	caml_ba_byte_size
	.type	caml_ba_byte_size, @function
caml_ba_byte_size:
.LFB13:
	.loc 1 62 1 is_stmt 1
	.cfi_startproc
.LVL484:
	addi	sp,sp,-16
	.cfi_def_cfa_offset 16
	sd	ra,8(sp)
	sd	s0,0(sp)
	.cfi_offset 1, -8
	.cfi_offset 8, -16
	mv	s0,a0
	.loc 1 63 3
	.loc 1 63 10 is_stmt 0
	call	caml_ba_num_elts
.LVL485:
	.loc 1 64 42
	lbu	a5,16(s0)
	.loc 1 64 32
	slli	a4,a5,2
	lla	a5,.LANCHOR0
	add	a5,a5,a4
	lw	a5,0(a5)
	.loc 1 65 1
	mul	a0,a0,a5
	ld	ra,8(sp)
	.cfi_restore 1
	ld	s0,0(sp)
	.cfi_restore 8
.LVL486:
	addi	sp,sp,16
	.cfi_def_cfa_offset 0
	jr	ra
	.cfi_endproc
.LFE13:
	.size	caml_ba_byte_size, .-caml_ba_byte_size
	.align	1
	.type	caml_ba_update_proxy, @function
caml_ba_update_proxy:
.LFB50:
	.loc 1 915 1 is_stmt 1
	.cfi_startproc
.LVL487:
	.loc 1 916 3
	.loc 1 918 3
	.loc 1 918 10 is_stmt 0
	ld	a5,16(a0)
	.loc 1 918 18
	andi	a5,a5,1536
	.loc 1 918 6
	beq	a5,zero,.L272
	.loc 1 915 1
	addi	sp,sp,-32
	.cfi_def_cfa_offset 32
	sd	ra,24(sp)
	sd	s0,16(sp)
	sd	s1,8(sp)
	sd	s2,0(sp)
	.cfi_offset 1, -8
	.cfi_offset 8, -16
	.cfi_offset 9, -24
	.cfi_offset 18, -32
	mv	s0,a0
	mv	s1,a1
	.loc 1 919 3 is_stmt 1
	.loc 1 919 9 is_stmt 0
	ld	a5,24(a0)
	.loc 1 919 6
	beq	a5,zero,.L267
	.loc 1 922 5 is_stmt 1
	.loc 1 922 15 is_stmt 0
	sd	a5,24(a1)
	.loc 1 923 5 is_stmt 1
	.loc 1 923 17 is_stmt 0
	ld	a4,0(a5)
	.loc 1 923 5
	addi	a4,a4,1
	sd	a4,0(a5)
.LVL488:
.L265:
	.loc 1 935 1
	ld	ra,24(sp)
	.cfi_remember_state
	.cfi_restore 1
	ld	s0,16(sp)
	.cfi_restore 8
.LVL489:
	ld	s1,8(sp)
	.cfi_restore 9
.LVL490:
	ld	s2,0(sp)
	.cfi_restore 18
	addi	sp,sp,32
	.cfi_def_cfa_offset 0
	jr	ra
.LVL491:
.L267:
	.cfi_restore_state
	.loc 1 926 5 is_stmt 1
	.loc 1 926 13 is_stmt 0
	li	a0,24
	call	malloc
.LVL492:
	mv	s2,a0
.LVL493:
	.loc 1 927 5 is_stmt 1
	.loc 1 927 8 is_stmt 0
	beq	a0,zero,.L275
	.loc 1 928 5 is_stmt 1
	.loc 1 928 21 is_stmt 0
	li	a5,2
	sd	a5,0(a0)
	.loc 1 929 5 is_stmt 1
	.loc 1 929 21 is_stmt 0
	ld	a5,0(s0)
	.loc 1 929 17
	sd	a5,8(a0)
	.loc 1 930 5 is_stmt 1
	.loc 1 931 9 is_stmt 0
	ld	a5,16(s0)
	.loc 1 931 17
	andi	a5,a5,1024
	.loc 1 931 63
	bne	a5,zero,.L276
	li	a0,0
.LVL494:
.L269:
	.loc 1 930 17
	sd	a0,16(s2)
	.loc 1 932 5 is_stmt 1
	.loc 1 932 15 is_stmt 0
	sd	s2,24(s0)
	.loc 1 933 5 is_stmt 1
	.loc 1 933 15 is_stmt 0
	sd	s2,24(s1)
	j	.L265
.LVL495:
.L275:
	.loc 1 927 24 is_stmt 1 discriminator 1
	call	caml_raise_out_of_memory
.LVL496:
.L276:
	.loc 1 931 41 is_stmt 0 discriminator 1
	mv	a0,s0
.LVL497:
	call	caml_ba_byte_size
.LVL498:
	j	.L269
.LVL499:
.L272:
	.cfi_def_cfa_offset 0
	.cfi_restore 1
	.cfi_restore 8
	.cfi_restore 9
	.cfi_restore 18
	ret
	.cfi_endproc
.LFE50:
	.size	caml_ba_update_proxy, .-caml_ba_update_proxy
	.align	1
	.globl	caml_ba_alloc
	.type	caml_ba_alloc, @function
caml_ba_alloc:
.LFB14:
	.loc 1 93 1 is_stmt 1
	.cfi_startproc
.LVL500:
	addi	sp,sp,-176
	.cfi_def_cfa_offset 176
	sd	ra,168(sp)
	sd	s0,160(sp)
	sd	s1,152(sp)
	sd	s2,144(sp)
	sd	s3,136(sp)
	.cfi_offset 1, -8
	.cfi_offset 8, -16
	.cfi_offset 9, -24
	.cfi_offset 18, -32
	.cfi_offset 19, -40
	mv	s1,a0
	mv	s0,a1
	mv	s2,a2
	.loc 1 94 3
	.loc 1 95 3
	.loc 1 96 3
	.loc 1 97 3
	.loc 1 98 3
	.loc 1 100 3
	.loc 1 101 3
	.loc 1 102 3
.LVL501:
	.loc 1 102 10 is_stmt 0
	li	a4,0
.LVL502:
.L278:
	.loc 1 102 15 is_stmt 1 discriminator 1
	.loc 1 102 3 is_stmt 0 discriminator 1
	bge	a4,s0,.L294
	.loc 1 102 34 is_stmt 1 discriminator 3
	.loc 1 102 50 is_stmt 0 discriminator 3
	slli	a5,a4,3
	add	a1,a3,a5
	ld	a1,0(a1)
	.loc 1 102 45 discriminator 3
	addi	a2,sp,128
	add	a5,a2,a5
	sd	a1,-128(a5)
	.loc 1 102 29 is_stmt 1 discriminator 3
	.loc 1 102 30 is_stmt 0 discriminator 3
	addiw	a4,a4,1
.LVL503:
	j	.L278
.LVL504:
.L294:
	.loc 1 103 3 is_stmt 1
	.loc 1 104 3
	.loc 1 104 6 is_stmt 0
	beq	s2,zero,.L292
	.loc 1 103 8
	li	s3,0
.LVL505:
.L281:
	.loc 1 118 3 is_stmt 1
	.loc 1 118 27 is_stmt 0
	addi	a1,s0,4
	.loc 1 119 3 is_stmt 1
	.loc 1 119 9 is_stmt 0
	li	a3,1073741824
	mv	a2,s3
	slli	a1,a1,3
	lla	a0,.LANCHOR0+56
	call	caml_alloc_custom
.LVL506:
	.loc 1 120 3 is_stmt 1
	.loc 1 120 7 is_stmt 0
	addi	a1,a0,8
.LVL507:
	.loc 1 121 3 is_stmt 1
	.loc 1 121 11 is_stmt 0
	sd	s2,8(a0)
	.loc 1 122 3 is_stmt 1
	.loc 1 122 15 is_stmt 0
	sd	s0,8(a1)
	.loc 1 123 3 is_stmt 1
	.loc 1 123 12 is_stmt 0
	sd	s1,16(a1)
	.loc 1 124 3 is_stmt 1
	.loc 1 124 12 is_stmt 0
	sd	zero,24(a1)
	.loc 1 125 3 is_stmt 1
.LVL508:
	.loc 1 125 10 is_stmt 0
	li	a4,0
.LVL509:
.L290:
	.loc 1 125 15 is_stmt 1 discriminator 1
	.loc 1 125 3 is_stmt 0 discriminator 1
	bge	a4,s0,.L295
	.loc 1 125 34 is_stmt 1 discriminator 3
	.loc 1 125 53 is_stmt 0 discriminator 3
	slli	a5,a4,3
	addi	a3,sp,128
	add	a5,a3,a5
	ld	a3,-128(a5)
	.loc 1 125 44 discriminator 3
	addi	a5,a4,4
	slli	a5,a5,3
	add	a5,a1,a5
	sd	a3,0(a5)
	.loc 1 125 29 is_stmt 1 discriminator 3
	.loc 1 125 30 is_stmt 0 discriminator 3
	addiw	a4,a4,1
.LVL510:
	j	.L290
.LVL511:
.L282:
.LBB159:
.LBB160:
	.loc 2 162 10
	mv	a5,a1
.LVL512:
.LBE160:
.LBE159:
	.loc 1 107 10
	bne	a2,zero,.L296
.LVL513:
	.loc 1 106 31 is_stmt 1 discriminator 2
	.loc 1 106 32 is_stmt 0 discriminator 2
	addiw	a4,a4,1
.LVL514:
.L280:
	.loc 1 106 17 is_stmt 1 discriminator 1
	.loc 1 106 5 is_stmt 0 discriminator 1
	bge	a4,s0,.L297
	.loc 1 107 7 is_stmt 1
	.loc 1 107 47 is_stmt 0
	slli	a3,a4,3
	addi	a2,sp,128
	add	a3,a2,a3
	ld	a3,-128(a3)
.LVL515:
.LBB162:
.LBB161:
	.loc 2 162 3 is_stmt 1
	.loc 2 162 10 is_stmt 0
	li	a2,0
	mul	a1,a5,a3
	mulhu	a5,a5,a3
.LVL516:
	beq	a5,zero,.L282
	li	a2,1
	j	.L282
.LVL517:
.L296:
.LBE161:
.LBE162:
	.loc 1 108 9 is_stmt 1
	call	caml_raise_out_of_memory
.LVL518:
.L292:
	.loc 1 105 14 is_stmt 0
	li	a5,1
	.loc 1 106 12
	li	a4,0
.LVL519:
	j	.L280
.LVL520:
.L297:
	.loc 1 110 5 is_stmt 1
	.loc 1 111 55 is_stmt 0
	andi	a4,s1,0xff
.LVL521:
	.loc 1 111 48
	slli	a3,a4,2
	lla	a4,.LANCHOR0
	add	a4,a4,a3
	lw	a4,0(a4)
.LVL522:
.LBB163:
.LBB164:
	.loc 2 162 3 is_stmt 1
	.loc 2 162 10 is_stmt 0
	li	a3,0
	mul	a0,a5,a4
.LVL523:
	mulhu	a5,a5,a4
.LVL524:
	bne	a5,zero,.L298
.L286:
	mv	s3,a0
.LVL525:
.LBE164:
.LBE163:
	.loc 1 110 8
	bne	a3,zero,.L299
.LVL526:
	.loc 1 114 5 is_stmt 1
	.loc 1 114 12 is_stmt 0
	call	malloc
.LVL527:
	mv	s2,a0
.LVL528:
	.loc 1 115 5 is_stmt 1
	.loc 1 115 8 is_stmt 0
	beq	a0,zero,.L300
.L289:
	.loc 1 116 5 is_stmt 1
	.loc 1 116 11 is_stmt 0
	ori	s1,s1,512
.LVL529:
	j	.L281
.LVL530:
.L298:
.LBB166:
.LBB165:
	.loc 2 162 10
	li	a3,1
	j	.L286
.LVL531:
.L299:
.LBE165:
.LBE166:
	.loc 1 113 7 is_stmt 1
	call	caml_raise_out_of_memory
.LVL532:
.L300:
	.loc 1 115 22 is_stmt 0 discriminator 1
	beq	s3,zero,.L289
	.loc 1 115 36 is_stmt 1 discriminator 2
	call	caml_raise_out_of_memory
.LVL533:
.L295:
	.loc 1 127 1 is_stmt 0
	ld	ra,168(sp)
	.cfi_restore 1
	ld	s0,160(sp)
	.cfi_restore 8
	ld	s1,152(sp)
	.cfi_restore 9
.LVL534:
	ld	s2,144(sp)
	.cfi_restore 18
.LVL535:
	ld	s3,136(sp)
	.cfi_restore 19
.LVL536:
	addi	sp,sp,176
	.cfi_def_cfa_offset 0
	jr	ra
	.cfi_endproc
.LFE14:
	.size	caml_ba_alloc, .-caml_ba_alloc
	.align	1
	.globl	caml_ba_alloc_dims
	.type	caml_ba_alloc_dims, @function
caml_ba_alloc_dims:
.LFB15:
	.loc 1 133 1 is_stmt 1
	.cfi_startproc
.LVL537:
	addi	sp,sp,-208
	.cfi_def_cfa_offset 208
	sd	ra,152(sp)
	.cfi_offset 1, -56
	sd	a3,168(sp)
	sd	a4,176(sp)
	sd	a5,184(sp)
	sd	a6,192(sp)
	sd	a7,200(sp)
	.loc 1 134 3
	.loc 1 135 3
	.loc 1 136 3
	.loc 1 137 3
	.loc 1 139 3
	.loc 1 140 3
	addi	a5,sp,168
	sd	a5,136(sp)
	.loc 1 141 3
.LVL538:
	.loc 1 141 10 is_stmt 0
	li	a5,0
.LVL539:
.L302:
	.loc 1 141 15 is_stmt 1 discriminator 1
	.loc 1 141 3 is_stmt 0 discriminator 1
	bge	a5,a1,.L305
	.loc 1 141 34 is_stmt 1
	.loc 1 141 43 is_stmt 0
	ld	a4,136(sp)
	addi	a3,a4,8
	sd	a3,136(sp)
	ld	a3,0(a4)
	.loc 1 141 41
	slli	a4,a5,3
	addi	a6,sp,144
	add	a4,a6,a4
	sd	a3,-136(a4)
	.loc 1 141 29 is_stmt 1
	.loc 1 141 30 is_stmt 0
	addiw	a5,a5,1
.LVL540:
	j	.L302
.LVL541:
.L305:
	.loc 1 142 3 is_stmt 1
	.loc 1 143 3
	.loc 1 143 9 is_stmt 0
	addi	a3,sp,8
	call	caml_ba_alloc
.LVL542:
	.loc 1 144 3 is_stmt 1
	.loc 1 145 1 is_stmt 0
	ld	ra,152(sp)
	.cfi_restore 1
	addi	sp,sp,208
	.cfi_def_cfa_offset 0
	jr	ra
	.cfi_endproc
.LFE15:
	.size	caml_ba_alloc_dims, .-caml_ba_alloc_dims
	.section	.rodata.str1.8
	.align	3
.LC5:
	.string	"Bigarray.create: bad number of dimensions"
	.align	3
.LC6:
	.string	"Bigarray.create: negative dimension"
	.text
	.align	1
	.globl	caml_ba_create
	.type	caml_ba_create, @function
caml_ba_create:
.LFB23:
	.loc 1 499 1 is_stmt 1
	.cfi_startproc
.LVL543:
	addi	sp,sp,-144
	.cfi_def_cfa_offset 144
	sd	ra,136(sp)
	.cfi_offset 1, -8
	.loc 1 500 3
	.loc 1 501 3
	.loc 1 502 3
	.loc 1 504 3
	.loc 1 504 14 is_stmt 0
	ld	a6,-8(a2)
	.loc 1 504 12
	srli	a6,a6,10
.LVL544:
	.loc 1 506 3 is_stmt 1
	.loc 1 506 6 is_stmt 0
	li	a5,16
	bgtu	a6,a5,.L312
	.loc 1 508 10
	li	a5,0
.L307:
.LVL545:
	.loc 1 508 15 is_stmt 1 discriminator 1
	.loc 1 508 3 is_stmt 0 discriminator 1
	bgeu	a5,a6,.L313
	.loc 1 509 5 is_stmt 1
	.loc 1 509 14 is_stmt 0
	slli	a4,a5,3
	add	a4,a4,a2
	ld	a4,0(a4)
	srai	a4,a4,1
	.loc 1 509 12
	slli	a3,a5,3
	addi	a7,sp,128
	add	a3,a7,a3
	sd	a4,-128(a3)
	.loc 1 510 5 is_stmt 1
	.loc 1 510 8 is_stmt 0
	blt	a4,zero,.L314
	.loc 1 508 29 is_stmt 1 discriminator 2
	.loc 1 508 30 is_stmt 0 discriminator 2
	addiw	a5,a5,1
.LVL546:
	j	.L307
.L312:
	.loc 1 507 5 is_stmt 1
	lla	a0,.LC5
.LVL547:
	call	caml_invalid_argument
.LVL548:
.L314:
	.loc 1 511 7
	lla	a0,.LC6
.LVL549:
	call	caml_invalid_argument
.LVL550:
.L313:
	.loc 1 513 3
	.loc 1 513 11 is_stmt 0
	srai	a0,a0,1
.LVL551:
	sext.w	a0,a0
	.loc 1 513 37
	srai	a5,a1,1
.LVL552:
	slliw	a5,a5,8
.LVL553:
	.loc 1 514 3 is_stmt 1
	.loc 1 514 10 is_stmt 0
	mv	a3,sp
	li	a2,0
.LVL554:
	sext.w	a1,a6
.LVL555:
	or	a0,a0,a5
.LVL556:
	call	caml_ba_alloc
.LVL557:
	.loc 1 515 1
	ld	ra,136(sp)
	.cfi_restore 1
	addi	sp,sp,144
	.cfi_def_cfa_offset 0
	jr	ra
	.cfi_endproc
.LFE23:
	.size	caml_ba_create, .-caml_ba_create
	.section	.rodata.str1.8
	.align	3
.LC7:
	.string	"Bigarray.get: wrong number of indices"
	.text
	.align	1
	.globl	caml_ba_get_N
	.type	caml_ba_get_N, @function
caml_ba_get_N:
.LFB26:
	.loc 1 558 1 is_stmt 1
	.cfi_startproc
.LVL558:
	addi	sp,sp,-160
	.cfi_def_cfa_offset 160
	sd	ra,152(sp)
	sd	s0,144(sp)
	sd	s1,136(sp)
	.cfi_offset 1, -8
	.cfi_offset 8, -16
	.cfi_offset 9, -24
	.loc 1 559 3
	.loc 1 559 30 is_stmt 0
	addi	s0,a0,8
.LVL559:
	.loc 1 560 3 is_stmt 1
	.loc 1 561 3
	.loc 1 562 3
	.loc 1 566 3
	.loc 1 566 16 is_stmt 0
	ld	a5,8(s0)
	.loc 1 566 6
	bne	a2,a5,.L335
	mv	s1,a0
	.loc 1 569 10
	li	a4,0
	j	.L316
.L335:
	.loc 1 567 5 is_stmt 1
	lla	a0,.LC7
.LVL560:
	call	caml_invalid_argument
.LVL561:
.L317:
	.loc 1 569 37 discriminator 3
	.loc 1 569 48 is_stmt 0 discriminator 3
	slli	a5,a4,3
	add	a3,a1,a5
	ld	a3,0(a3)
	srai	a3,a3,1
	.loc 1 569 46 discriminator 3
	addi	a2,sp,128
	add	a5,a2,a5
	sd	a3,-128(a5)
	.loc 1 569 32 is_stmt 1 discriminator 3
	.loc 1 569 33 is_stmt 0 discriminator 3
	addiw	a4,a4,1
.LVL562:
.L316:
	.loc 1 569 15 is_stmt 1 discriminator 1
	.loc 1 569 20 is_stmt 0 discriminator 1
	ld	a5,8(s0)
	.loc 1 569 3 discriminator 1
	blt	a4,a5,.L317
	.loc 1 570 3 is_stmt 1
	.loc 1 570 12 is_stmt 0
	mv	a1,sp
.LVL563:
	mv	a0,s0
	call	caml_ba_offset
.LVL564:
	.loc 1 572 3 is_stmt 1
	.loc 1 572 22 is_stmt 0
	lbu	a5,16(s0)
	li	a4,12
	bgtu	a5,a4,.L318
	slli	a5,a5,2
	lla	a4,.L320
	add	a5,a5,a4
	lw	a5,0(a5)
	add	a5,a5,a4
	jr	a5
	.section	.rodata
	.align	2
	.align	2
.L320:
	.word	.L318-.L320
	.word	.L331-.L320
	.word	.L330-.L320
	.word	.L329-.L320
	.word	.L328-.L320
	.word	.L327-.L320
	.word	.L326-.L320
	.word	.L325-.L320
	.word	.L324-.L320
	.word	.L323-.L320
	.word	.L322-.L320
	.word	.L321-.L320
	.word	.L319-.L320
	.text
.L318:
	.loc 1 574 5 is_stmt 1
	.loc 1 576 5
	.loc 1 576 41 is_stmt 0
	ld	a5,8(s1)
	.loc 1 576 48
	slli	a0,a0,2
.LVL565:
	add	a0,a5,a0
	flw	fa0,0(a0)
	.loc 1 576 12
	fcvt.d.s	fa0,fa0
	call	caml_copy_double
.LVL566:
.L315:
	.loc 1 604 1
	ld	ra,152(sp)
	.cfi_remember_state
	.cfi_restore 1
	ld	s0,144(sp)
	.cfi_restore 8
.LVL567:
	ld	s1,136(sp)
	.cfi_restore 9
.LVL568:
	addi	sp,sp,160
	.cfi_def_cfa_offset 0
	jr	ra
.LVL569:
.L331:
	.cfi_restore_state
	.loc 1 578 5 is_stmt 1
	.loc 1 578 42 is_stmt 0
	ld	a5,8(s1)
	.loc 1 578 49
	slli	a0,a0,3
.LVL570:
	add	a0,a5,a0
	.loc 1 578 12
	fld	fa0,0(a0)
	call	caml_copy_double
.LVL571:
	j	.L315
.LVL572:
.L330:
	.loc 1 580 5 is_stmt 1
	.loc 1 580 12 is_stmt 0
	ld	a5,8(s1)
	add	a0,a5,a0
.LVL573:
	lb	a0,0(a0)
	slli	a0,a0,1
	addi	a0,a0,1
	j	.L315
.LVL574:
.L329:
	.loc 1 582 5 is_stmt 1
	.loc 1 582 12 is_stmt 0
	ld	a5,8(s1)
	add	a0,a5,a0
.LVL575:
	lbu	a0,0(a0)
	slli	a0,a0,1
	addi	a0,a0,1
	j	.L315
.LVL576:
.L328:
	.loc 1 584 5 is_stmt 1
	.loc 1 584 12 is_stmt 0
	ld	a5,8(s1)
	slli	a0,a0,1
.LVL577:
	add	a0,a5,a0
	lh	a0,0(a0)
	slli	a0,a0,1
	addi	a0,a0,1
	j	.L315
.LVL578:
.L327:
	.loc 1 586 5 is_stmt 1
	.loc 1 586 12 is_stmt 0
	ld	a5,8(s1)
	slli	a0,a0,1
.LVL579:
	add	a0,a5,a0
	lhu	a0,0(a0)
	slli	a0,a0,1
	addi	a0,a0,1
	j	.L315
.LVL580:
.L326:
	.loc 1 588 5 is_stmt 1
	.loc 1 588 42 is_stmt 0
	ld	a5,8(s1)
	.loc 1 588 49
	slli	a0,a0,2
.LVL581:
	add	a0,a5,a0
	.loc 1 588 12
	lw	a0,0(a0)
	call	caml_copy_int32
.LVL582:
	j	.L315
.LVL583:
.L325:
	.loc 1 590 5 is_stmt 1
	.loc 1 590 42 is_stmt 0
	ld	a5,8(s1)
	.loc 1 590 49
	slli	a0,a0,3
.LVL584:
	add	a0,a5,a0
	.loc 1 590 12
	ld	a0,0(a0)
	call	caml_copy_int64
.LVL585:
	j	.L315
.LVL586:
.L323:
	.loc 1 592 5 is_stmt 1
	.loc 1 592 45 is_stmt 0
	ld	a5,8(s1)
	.loc 1 592 52
	slli	a0,a0,3
.LVL587:
	add	a0,a5,a0
	.loc 1 592 12
	ld	a0,0(a0)
	call	caml_copy_nativeint
.LVL588:
	j	.L315
.LVL589:
.L324:
	.loc 1 594 5 is_stmt 1
	.loc 1 594 12 is_stmt 0
	ld	a5,8(s1)
	slli	a0,a0,3
.LVL590:
	add	a0,a5,a0
	ld	a0,0(a0)
	slli	a0,a0,1
	addi	a0,a0,1
	j	.L315
.LVL591:
.L322:
.LBB167:
	.loc 1 596 7 is_stmt 1
	.loc 1 596 31 is_stmt 0
	ld	a5,8(s1)
	.loc 1 596 39
	slli	a0,a0,3
.LVL592:
	.loc 1 596 15
	add	a0,a5,a0
.LVL593:
	.loc 1 597 7 is_stmt 1
	.loc 1 597 32 is_stmt 0
	flw	fa0,0(a0)
	.loc 1 597 38
	flw	fa1,4(a0)
	.loc 1 597 14
	fcvt.d.s	fa1,fa1
	fcvt.d.s	fa0,fa0
	call	copy_two_doubles
.LVL594:
	j	.L315
.LVL595:
.L321:
.LBE167:
.LBB168:
	.loc 1 599 7 is_stmt 1
	.loc 1 599 33 is_stmt 0
	ld	a5,8(s1)
	.loc 1 599 41
	slli	a0,a0,4
.LVL596:
	.loc 1 599 16
	add	a0,a5,a0
.LVL597:
	.loc 1 600 7 is_stmt 1
	.loc 1 600 14 is_stmt 0
	fld	fa1,8(a0)
	fld	fa0,0(a0)
	call	copy_two_doubles
.LVL598:
	j	.L315
.LVL599:
.L319:
.LBE168:
	.loc 1 602 5 is_stmt 1
	.loc 1 602 12 is_stmt 0
	ld	a5,8(s1)
	add	a0,a5,a0
.LVL600:
	lbu	a0,0(a0)
	slli	a0,a0,1
	addi	a0,a0,1
	j	.L315
	.cfi_endproc
.LFE26:
	.size	caml_ba_get_N, .-caml_ba_get_N
	.align	1
	.globl	caml_ba_get_1
	.type	caml_ba_get_1, @function
caml_ba_get_1:
.LFB27:
	.loc 1 607 1 is_stmt 1
	.cfi_startproc
.LVL601:
	addi	sp,sp,-32
	.cfi_def_cfa_offset 32
	sd	ra,24(sp)
	.cfi_offset 1, -8
	sd	a1,8(sp)
	.loc 1 608 3
	.loc 1 608 10 is_stmt 0
	li	a2,1
	addi	a1,sp,8
.LVL602:
	call	caml_ba_get_N
.LVL603:
	.loc 1 609 1
	ld	ra,24(sp)
	.cfi_restore 1
	addi	sp,sp,32
	.cfi_def_cfa_offset 0
	jr	ra
	.cfi_endproc
.LFE27:
	.size	caml_ba_get_1, .-caml_ba_get_1
	.align	1
	.globl	caml_ba_get_2
	.type	caml_ba_get_2, @function
caml_ba_get_2:
.LFB28:
	.loc 1 612 1 is_stmt 1
	.cfi_startproc
.LVL604:
	addi	sp,sp,-32
	.cfi_def_cfa_offset 32
	sd	ra,24(sp)
	.cfi_offset 1, -8
	.loc 1 613 3
	.loc 1 614 3
	.loc 1 614 11 is_stmt 0
	sd	a1,0(sp)
	.loc 1 614 20 is_stmt 1
	.loc 1 614 28 is_stmt 0
	sd	a2,8(sp)
	.loc 1 615 3 is_stmt 1
	.loc 1 615 10 is_stmt 0
	li	a2,2
.LVL605:
	mv	a1,sp
.LVL606:
	call	caml_ba_get_N
.LVL607:
	.loc 1 616 1
	ld	ra,24(sp)
	.cfi_restore 1
	addi	sp,sp,32
	.cfi_def_cfa_offset 0
	jr	ra
	.cfi_endproc
.LFE28:
	.size	caml_ba_get_2, .-caml_ba_get_2
	.align	1
	.globl	caml_ba_get_3
	.type	caml_ba_get_3, @function
caml_ba_get_3:
.LFB29:
	.loc 1 619 1 is_stmt 1
	.cfi_startproc
.LVL608:
	addi	sp,sp,-48
	.cfi_def_cfa_offset 48
	sd	ra,40(sp)
	.cfi_offset 1, -8
	.loc 1 620 3
	.loc 1 621 3
	.loc 1 621 11 is_stmt 0
	sd	a1,8(sp)
	.loc 1 621 20 is_stmt 1
	.loc 1 621 28 is_stmt 0
	sd	a2,16(sp)
	.loc 1 621 37 is_stmt 1
	.loc 1 621 45 is_stmt 0
	sd	a3,24(sp)
	.loc 1 622 3 is_stmt 1
	.loc 1 622 10 is_stmt 0
	li	a2,3
.LVL609:
	addi	a1,sp,8
.LVL610:
	call	caml_ba_get_N
.LVL611:
	.loc 1 623 1
	ld	ra,40(sp)
	.cfi_restore 1
	addi	sp,sp,48
	.cfi_def_cfa_offset 0
	jr	ra
	.cfi_endproc
.LFE29:
	.size	caml_ba_get_3, .-caml_ba_get_3
	.align	1
	.globl	caml_ba_get_generic
	.type	caml_ba_get_generic, @function
caml_ba_get_generic:
.LFB30:
	.loc 1 626 1 is_stmt 1
	.cfi_startproc
.LVL612:
	addi	sp,sp,-16
	.cfi_def_cfa_offset 16
	sd	ra,8(sp)
	.cfi_offset 1, -8
	.loc 1 627 3
	.loc 1 627 45 is_stmt 0
	ld	a2,-8(a1)
	srli	a2,a2,10
	.loc 1 627 10
	sext.w	a2,a2
	call	caml_ba_get_N
.LVL613:
	.loc 1 628 1
	ld	ra,8(sp)
	.cfi_restore 1
	addi	sp,sp,16
	.cfi_def_cfa_offset 0
	jr	ra
	.cfi_endproc
.LFE30:
	.size	caml_ba_get_generic, .-caml_ba_get_generic
	.align	1
	.globl	caml_ba_uint8_get16
	.type	caml_ba_uint8_get16, @function
caml_ba_uint8_get16:
.LFB31:
	.loc 1 632 1 is_stmt 1
	.cfi_startproc
.LVL614:
	.loc 1 633 3
	.loc 1 634 3
	.loc 1 635 3
	.loc 1 636 3
	.loc 1 637 3
	.loc 1 637 6 is_stmt 0
	blt	a1,zero,.L345
	srai	a5,a1,1
.LVL615:
	.loc 1 637 31 discriminator 2
	ld	a4,40(a0)
	.loc 1 637 35 discriminator 2
	addi	a4,a4,-1
	.loc 1 637 15 discriminator 2
	ble	a4,a5,.L345
	.loc 1 638 3 is_stmt 1
	.loc 1 638 27 is_stmt 0
	ld	a4,8(a0)
	.loc 1 638 34
	add	a3,a4,a5
	.loc 1 638 6
	lbu	a3,0(a3)
.LVL616:
	.loc 1 639 3 is_stmt 1
	.loc 1 639 34 is_stmt 0
	addi	a5,a5,1
.LVL617:
	add	a5,a4,a5
.LVL618:
	.loc 1 639 6
	lbu	a0,0(a5)
.LVL619:
	.loc 1 643 3 is_stmt 1
	.loc 1 643 12 is_stmt 0
	slli	a0,a0,8
.LVL620:
	.loc 1 643 17
	or	a0,a0,a3
.LVL621:
	.loc 1 645 3 is_stmt 1
	.loc 1 645 10 is_stmt 0
	slli	a0,a0,1
.LVL622:
	.loc 1 646 1
	addi	a0,a0,1
	ret
.LVL623:
.L345:
	.loc 1 632 1 discriminator 3
	addi	sp,sp,-16
	.cfi_def_cfa_offset 16
	sd	ra,8(sp)
	.cfi_offset 1, -8
	.loc 1 637 40 is_stmt 1 discriminator 3
	call	caml_array_bound_error
.LVL624:
	.cfi_endproc
.LFE31:
	.size	caml_ba_uint8_get16, .-caml_ba_uint8_get16
	.align	1
	.globl	caml_ba_uint8_get32
	.type	caml_ba_uint8_get32, @function
caml_ba_uint8_get32:
.LFB32:
	.loc 1 649 1
	.cfi_startproc
.LVL625:
	addi	sp,sp,-16
	.cfi_def_cfa_offset 16
	sd	ra,8(sp)
	.cfi_offset 1, -8
	.loc 1 650 3
	.loc 1 651 3
	.loc 1 652 3
.LVL626:
	.loc 1 653 3
	.loc 1 654 3
	.loc 1 654 6 is_stmt 0
	blt	a1,zero,.L350
	srai	a5,a1,1
.LVL627:
	.loc 1 654 31 discriminator 2
	ld	a4,40(a0)
	.loc 1 654 35 discriminator 2
	addi	a4,a4,-3
	.loc 1 654 15 discriminator 2
	ble	a4,a5,.L350
	.loc 1 655 3 is_stmt 1
	.loc 1 655 27 is_stmt 0
	ld	a4,8(a0)
	.loc 1 655 34
	add	a3,a4,a5
	.loc 1 655 6
	lbu	a0,0(a3)
.LVL628:
	.loc 1 656 3 is_stmt 1
	.loc 1 656 34 is_stmt 0
	addi	a3,a5,1
	add	a3,a4,a3
	.loc 1 656 6
	lbu	a3,0(a3)
.LVL629:
	.loc 1 657 3 is_stmt 1
	.loc 1 657 34 is_stmt 0
	addi	a2,a5,2
	add	a2,a4,a2
	.loc 1 657 6
	lbu	a2,0(a2)
.LVL630:
	.loc 1 658 3 is_stmt 1
	.loc 1 658 34 is_stmt 0
	addi	a5,a5,3
.LVL631:
	add	a5,a4,a5
.LVL632:
	.loc 1 658 6
	lbu	a5,0(a5)
.LVL633:
	.loc 1 662 3 is_stmt 1
	.loc 1 662 12 is_stmt 0
	slliw	a5,a5,24
.LVL634:
	.loc 1 662 23
	slli	a4,a2,16
.LVL635:
	.loc 1 662 18
	or	a5,a5,a4
	.loc 1 662 34
	slli	a4,a3,8
	.loc 1 662 29
	or	a5,a5,a4
.LVL636:
	.loc 1 664 3 is_stmt 1
	.loc 1 664 10 is_stmt 0
	or	a0,a5,a0
.LVL637:
	call	caml_copy_int32
.LVL638:
	.loc 1 665 1
	ld	ra,8(sp)
	.cfi_remember_state
	.cfi_restore 1
	addi	sp,sp,16
	.cfi_def_cfa_offset 0
	jr	ra
.LVL639:
.L350:
	.cfi_restore_state
	.loc 1 654 40 is_stmt 1 discriminator 3
	call	caml_array_bound_error
.LVL640:
	.cfi_endproc
.LFE32:
	.size	caml_ba_uint8_get32, .-caml_ba_uint8_get32
	.align	1
	.globl	caml_ba_uint8_get64
	.type	caml_ba_uint8_get64, @function
caml_ba_uint8_get64:
.LFB33:
	.loc 1 668 1
	.cfi_startproc
.LVL641:
	addi	sp,sp,-16
	.cfi_def_cfa_offset 16
	sd	ra,8(sp)
	.cfi_offset 1, -8
	.loc 1 669 3
	.loc 1 670 3
	.loc 1 671 3
.LVL642:
	.loc 1 672 3
	.loc 1 673 3
	.loc 1 673 6 is_stmt 0
	blt	a1,zero,.L354
	srai	a3,a1,1
.LVL643:
	.loc 1 673 31 discriminator 2
	ld	a5,40(a0)
	.loc 1 673 35 discriminator 2
	addi	a5,a5,-7
	.loc 1 673 15 discriminator 2
	ble	a5,a3,.L354
	.loc 1 674 3 is_stmt 1
	.loc 1 674 27 is_stmt 0
	ld	a2,8(a0)
	.loc 1 674 34
	add	a5,a2,a3
	.loc 1 674 6
	lbu	a0,0(a5)
.LVL644:
	.loc 1 675 3 is_stmt 1
	.loc 1 675 34 is_stmt 0
	addi	a5,a3,1
	add	a5,a2,a5
	.loc 1 675 6
	lbu	a1,0(a5)
.LVL645:
	.loc 1 676 3 is_stmt 1
	.loc 1 676 34 is_stmt 0
	addi	a5,a3,2
	add	a5,a2,a5
	.loc 1 676 6
	lbu	a6,0(a5)
.LVL646:
	.loc 1 677 3 is_stmt 1
	.loc 1 677 34 is_stmt 0
	addi	a5,a3,3
	add	a5,a2,a5
	.loc 1 677 6
	lbu	a7,0(a5)
.LVL647:
	.loc 1 678 3 is_stmt 1
	.loc 1 678 34 is_stmt 0
	addi	a5,a3,4
	add	a5,a2,a5
	.loc 1 678 6
	lbu	t1,0(a5)
.LVL648:
	.loc 1 679 3 is_stmt 1
	.loc 1 679 34 is_stmt 0
	addi	a5,a3,5
	add	a5,a2,a5
	.loc 1 679 6
	lbu	a5,0(a5)
.LVL649:
	.loc 1 680 3 is_stmt 1
	.loc 1 680 34 is_stmt 0
	addi	a4,a3,6
	add	a4,a2,a4
	.loc 1 680 6
	lbu	t3,0(a4)
.LVL650:
	.loc 1 681 3 is_stmt 1
	.loc 1 681 34 is_stmt 0
	addi	a3,a3,7
.LVL651:
	add	a3,a2,a3
.LVL652:
	.loc 1 681 6
	lbu	a4,0(a3)
.LVL653:
	.loc 1 688 3 is_stmt 1
	.loc 1 688 23 is_stmt 0
	slli	a4,a4,56
.LVL654:
	.loc 1 688 45
	slli	a3,t3,48
.LVL655:
	.loc 1 688 29
	or	a4,a4,a3
	.loc 1 689 25
	slli	a5,a5,40
.LVL656:
	.loc 1 689 9
	or	a5,a4,a5
	.loc 1 689 47
	slli	a4,t1,32
	.loc 1 689 31
	or	a5,a5,a4
	.loc 1 690 25
	slli	a4,a7,24
	.loc 1 690 9
	or	a5,a5,a4
	.loc 1 690 47
	slli	a4,a6,16
	.loc 1 690 31
	or	a5,a5,a4
	.loc 1 691 25
	slli	a4,a1,8
	.loc 1 691 9
	or	a5,a5,a4
.LVL657:
	.loc 1 693 3 is_stmt 1
	.loc 1 693 10 is_stmt 0
	or	a0,a5,a0
.LVL658:
	call	caml_copy_int64
.LVL659:
	.loc 1 694 1
	ld	ra,8(sp)
	.cfi_remember_state
	.cfi_restore 1
	addi	sp,sp,16
	.cfi_def_cfa_offset 0
	jr	ra
.LVL660:
.L354:
	.cfi_restore_state
	.loc 1 673 40 is_stmt 1 discriminator 3
	call	caml_array_bound_error
.LVL661:
	.cfi_endproc
.LFE33:
	.size	caml_ba_uint8_get64, .-caml_ba_uint8_get64
	.align	1
	.globl	caml_ba_set_1
	.type	caml_ba_set_1, @function
caml_ba_set_1:
.LFB35:
	.loc 1 750 1
	.cfi_startproc
.LVL662:
	addi	sp,sp,-32
	.cfi_def_cfa_offset 32
	sd	ra,24(sp)
	.cfi_offset 1, -8
	sd	a1,8(sp)
	mv	a3,a2
	.loc 1 751 3
	.loc 1 751 10 is_stmt 0
	li	a2,1
.LVL663:
	addi	a1,sp,8
.LVL664:
	call	caml_ba_set_aux
.LVL665:
	.loc 1 752 1
	ld	ra,24(sp)
	.cfi_restore 1
	addi	sp,sp,32
	.cfi_def_cfa_offset 0
	jr	ra
	.cfi_endproc
.LFE35:
	.size	caml_ba_set_1, .-caml_ba_set_1
	.align	1
	.globl	caml_ba_set_2
	.type	caml_ba_set_2, @function
caml_ba_set_2:
.LFB36:
	.loc 1 755 1 is_stmt 1
	.cfi_startproc
.LVL666:
	addi	sp,sp,-32
	.cfi_def_cfa_offset 32
	sd	ra,24(sp)
	.cfi_offset 1, -8
	.loc 1 756 3
	.loc 1 757 3
	.loc 1 757 11 is_stmt 0
	sd	a1,0(sp)
	.loc 1 757 20 is_stmt 1
	.loc 1 757 28 is_stmt 0
	sd	a2,8(sp)
	.loc 1 758 3 is_stmt 1
	.loc 1 758 10 is_stmt 0
	li	a2,2
.LVL667:
	mv	a1,sp
.LVL668:
	call	caml_ba_set_aux
.LVL669:
	.loc 1 759 1
	ld	ra,24(sp)
	.cfi_restore 1
	addi	sp,sp,32
	.cfi_def_cfa_offset 0
	jr	ra
	.cfi_endproc
.LFE36:
	.size	caml_ba_set_2, .-caml_ba_set_2
	.align	1
	.globl	caml_ba_set_3
	.type	caml_ba_set_3, @function
caml_ba_set_3:
.LFB37:
	.loc 1 763 1 is_stmt 1
	.cfi_startproc
.LVL670:
	addi	sp,sp,-48
	.cfi_def_cfa_offset 48
	sd	ra,40(sp)
	.cfi_offset 1, -8
	.loc 1 764 3
	.loc 1 765 3
	.loc 1 765 11 is_stmt 0
	sd	a1,8(sp)
	.loc 1 765 20 is_stmt 1
	.loc 1 765 28 is_stmt 0
	sd	a2,16(sp)
	.loc 1 765 37 is_stmt 1
	.loc 1 765 45 is_stmt 0
	sd	a3,24(sp)
	.loc 1 766 3 is_stmt 1
	.loc 1 766 10 is_stmt 0
	mv	a3,a4
.LVL671:
	li	a2,3
.LVL672:
	addi	a1,sp,8
.LVL673:
	call	caml_ba_set_aux
.LVL674:
	.loc 1 767 1
	ld	ra,40(sp)
	.cfi_restore 1
	addi	sp,sp,48
	.cfi_def_cfa_offset 0
	jr	ra
	.cfi_endproc
.LFE37:
	.size	caml_ba_set_3, .-caml_ba_set_3
	.align	1
	.globl	caml_ba_set_N
	.type	caml_ba_set_N, @function
caml_ba_set_N:
.LFB38:
	.loc 1 770 1 is_stmt 1
	.cfi_startproc
.LVL675:
	addi	sp,sp,-16
	.cfi_def_cfa_offset 16
	sd	ra,8(sp)
	.cfi_offset 1, -8
	.loc 1 771 3
	.loc 1 771 51 is_stmt 0
	slli	a5,a2,3
	addi	a5,a5,-8
	add	a5,a1,a5
	.loc 1 771 10
	ld	a3,0(a5)
	addiw	a2,a2,-1
.LVL676:
	call	caml_ba_set_aux
.LVL677:
	.loc 1 772 1
	ld	ra,8(sp)
	.cfi_restore 1
	addi	sp,sp,16
	.cfi_def_cfa_offset 0
	jr	ra
	.cfi_endproc
.LFE38:
	.size	caml_ba_set_N, .-caml_ba_set_N
	.align	1
	.globl	caml_ba_set_generic
	.type	caml_ba_set_generic, @function
caml_ba_set_generic:
.LFB39:
	.loc 1 775 1 is_stmt 1
	.cfi_startproc
.LVL678:
	addi	sp,sp,-16
	.cfi_def_cfa_offset 16
	sd	ra,8(sp)
	.cfi_offset 1, -8
	mv	a3,a2
	.loc 1 776 3
	.loc 1 776 47 is_stmt 0
	ld	a2,-8(a1)
.LVL679:
	.loc 1 776 10
	srli	a2,a2,10
	call	caml_ba_set_aux
.LVL680:
	.loc 1 777 1
	ld	ra,8(sp)
	.cfi_restore 1
	addi	sp,sp,16
	.cfi_def_cfa_offset 0
	jr	ra
	.cfi_endproc
.LFE39:
	.size	caml_ba_set_generic, .-caml_ba_set_generic
	.align	1
	.globl	caml_ba_uint8_set16
	.type	caml_ba_uint8_set16, @function
caml_ba_uint8_set16:
.LFB40:
	.loc 1 780 1 is_stmt 1
	.cfi_startproc
.LVL681:
	.loc 1 781 3
	.loc 1 782 3
	.loc 1 783 3
	.loc 1 784 3
	.loc 1 785 3
	.loc 1 785 6 is_stmt 0
	blt	a1,zero,.L368
	srai	a5,a1,1
.LVL682:
	.loc 1 785 31 discriminator 2
	ld	a4,40(a0)
	.loc 1 785 35 discriminator 2
	addi	a4,a4,-1
	.loc 1 785 15 discriminator 2
	ble	a4,a5,.L368
	.loc 1 786 3 is_stmt 1
	.loc 1 786 7 is_stmt 0
	srai	a3,a2,1
.LVL683:
	.loc 1 791 3 is_stmt 1
	.loc 1 791 19 is_stmt 0
	srai	a2,a2,9
.LVL684:
	.loc 1 792 3 is_stmt 1
	.loc 1 794 3
	.loc 1 794 22 is_stmt 0
	ld	a4,8(a0)
	.loc 1 794 29
	add	a4,a4,a5
	.loc 1 794 35
	sb	a3,0(a4)
	.loc 1 795 3 is_stmt 1
	.loc 1 795 22 is_stmt 0
	ld	a4,8(a0)
	.loc 1 795 29
	addi	a5,a5,1
.LVL685:
	add	a5,a4,a5
.LVL686:
	.loc 1 795 37
	sb	a2,0(a5)
	.loc 1 796 3 is_stmt 1
	.loc 1 797 1 is_stmt 0
	li	a0,1
.LVL687:
	ret
.LVL688:
.L368:
	.loc 1 780 1 discriminator 3
	addi	sp,sp,-16
	.cfi_def_cfa_offset 16
	sd	ra,8(sp)
	.cfi_offset 1, -8
	.loc 1 785 40 is_stmt 1 discriminator 3
	call	caml_array_bound_error
.LVL689:
	.cfi_endproc
.LFE40:
	.size	caml_ba_uint8_set16, .-caml_ba_uint8_set16
	.align	1
	.globl	caml_ba_uint8_set32
	.type	caml_ba_uint8_set32, @function
caml_ba_uint8_set32:
.LFB41:
	.loc 1 800 1
	.cfi_startproc
.LVL690:
	.loc 1 801 3
	.loc 1 802 3
	.loc 1 803 3
	.loc 1 804 3
	.loc 1 805 3
	.loc 1 805 6 is_stmt 0
	blt	a1,zero,.L373
	srai	a5,a1,1
.LVL691:
	.loc 1 805 31 discriminator 2
	ld	a4,40(a0)
	.loc 1 805 35 discriminator 2
	addi	a4,a4,-3
	.loc 1 805 15 discriminator 2
	ble	a4,a5,.L373
	.loc 1 806 3 is_stmt 1
	.loc 1 806 9 is_stmt 0
	lw	a4,8(a2)
.LVL692:
	.loc 1 813 3 is_stmt 1
	.loc 1 813 6 is_stmt 0
	srliw	a2,a4,24
.LVL693:
	.loc 1 814 3 is_stmt 1
	.loc 1 814 19 is_stmt 0
	srai	a1,a4,16
.LVL694:
	.loc 1 815 3 is_stmt 1
	.loc 1 815 19 is_stmt 0
	srai	a6,a4,8
.LVL695:
	.loc 1 816 3 is_stmt 1
	.loc 1 818 3
	.loc 1 818 22 is_stmt 0
	ld	a3,8(a0)
	.loc 1 818 29
	add	a3,a3,a5
	.loc 1 818 35
	sb	a4,0(a3)
	.loc 1 819 3 is_stmt 1
	.loc 1 819 22 is_stmt 0
	ld	a4,8(a0)
.LVL696:
	.loc 1 819 29
	addi	a3,a5,1
.LVL697:
	add	a4,a4,a3
	.loc 1 819 37
	sb	a6,0(a4)
	.loc 1 820 3 is_stmt 1
	.loc 1 820 22 is_stmt 0
	ld	a4,8(a0)
	.loc 1 820 29
	addi	a3,a5,2
	add	a4,a4,a3
	.loc 1 820 37
	sb	a1,0(a4)
	.loc 1 821 3 is_stmt 1
	.loc 1 821 22 is_stmt 0
	ld	a4,8(a0)
	.loc 1 821 29
	addi	a5,a5,3
.LVL698:
	add	a5,a4,a5
.LVL699:
	.loc 1 821 37
	sb	a2,0(a5)
	.loc 1 822 3 is_stmt 1
	.loc 1 823 1 is_stmt 0
	li	a0,1
.LVL700:
	ret
.LVL701:
.L373:
	.loc 1 800 1 discriminator 3
	addi	sp,sp,-16
	.cfi_def_cfa_offset 16
	sd	ra,8(sp)
	.cfi_offset 1, -8
	.loc 1 805 40 is_stmt 1 discriminator 3
	call	caml_array_bound_error
.LVL702:
	.cfi_endproc
.LFE41:
	.size	caml_ba_uint8_set32, .-caml_ba_uint8_set32
	.align	1
	.globl	caml_ba_uint8_set64
	.type	caml_ba_uint8_set64, @function
caml_ba_uint8_set64:
.LFB42:
	.loc 1 826 1
	.cfi_startproc
.LVL703:
	addi	sp,sp,-32
	.cfi_def_cfa_offset 32
	sd	ra,24(sp)
	sd	s0,16(sp)
	sd	s1,8(sp)
	.cfi_offset 1, -8
	.cfi_offset 8, -16
	.cfi_offset 9, -24
	mv	s0,a0
	.loc 1 827 3
	.loc 1 828 3
.LVL704:
	.loc 1 829 3
	.loc 1 830 3
	.loc 1 831 3
	.loc 1 831 6 is_stmt 0
	blt	a1,zero,.L378
	mv	a0,a2
.LVL705:
	srai	s1,a1,1
.LVL706:
	.loc 1 831 31 discriminator 2
	ld	a5,40(s0)
	.loc 1 831 35 discriminator 2
	addi	a5,a5,-7
	.loc 1 831 15 discriminator 2
	ble	a5,s1,.L378
	.loc 1 832 3 is_stmt 1
	.loc 1 832 9 is_stmt 0
	call	caml_Int64_val
.LVL707:
	.loc 1 843 3 is_stmt 1
	.loc 1 843 6 is_stmt 0
	srli	a4,a0,56
.LVL708:
	.loc 1 844 3 is_stmt 1
	.loc 1 844 19 is_stmt 0
	srai	a3,a0,48
.LVL709:
	.loc 1 845 3 is_stmt 1
	.loc 1 845 19 is_stmt 0
	srai	a2,a0,40
.LVL710:
	.loc 1 846 3 is_stmt 1
	.loc 1 846 19 is_stmt 0
	srai	a1,a0,32
.LVL711:
	.loc 1 847 3 is_stmt 1
	.loc 1 847 6 is_stmt 0
	srliw	a6,a0,24
.LVL712:
	.loc 1 848 3 is_stmt 1
	.loc 1 848 19 is_stmt 0
	srai	a7,a0,16
.LVL713:
	.loc 1 849 3 is_stmt 1
	.loc 1 849 19 is_stmt 0
	srai	t1,a0,8
.LVL714:
	.loc 1 850 3 is_stmt 1
	.loc 1 852 3
	.loc 1 852 22 is_stmt 0
	ld	a5,8(s0)
	.loc 1 852 29
	add	a5,a5,s1
	.loc 1 852 35
	sb	a0,0(a5)
	.loc 1 853 3 is_stmt 1
	.loc 1 853 22 is_stmt 0
	ld	a5,8(s0)
	.loc 1 853 29
	addi	a0,s1,1
.LVL715:
	add	a5,a5,a0
	.loc 1 853 37
	sb	t1,0(a5)
	.loc 1 854 3 is_stmt 1
	.loc 1 854 22 is_stmt 0
	ld	a5,8(s0)
	.loc 1 854 29
	addi	a0,s1,2
	add	a5,a5,a0
	.loc 1 854 37
	sb	a7,0(a5)
	.loc 1 855 3 is_stmt 1
	.loc 1 855 22 is_stmt 0
	ld	a5,8(s0)
	.loc 1 855 29
	addi	a0,s1,3
	add	a5,a5,a0
	.loc 1 855 37
	sb	a6,0(a5)
	.loc 1 856 3 is_stmt 1
	.loc 1 856 22 is_stmt 0
	ld	a5,8(s0)
	.loc 1 856 29
	addi	a0,s1,4
	add	a5,a5,a0
	.loc 1 856 37
	sb	a1,0(a5)
	.loc 1 857 3 is_stmt 1
	.loc 1 857 22 is_stmt 0
	ld	a5,8(s0)
	.loc 1 857 29
	addi	a1,s1,5
.LVL716:
	add	a5,a5,a1
	.loc 1 857 37
	sb	a2,0(a5)
	.loc 1 858 3 is_stmt 1
	.loc 1 858 22 is_stmt 0
	ld	a5,8(s0)
	.loc 1 858 29
	addi	a2,s1,6
.LVL717:
	add	a5,a5,a2
	.loc 1 858 37
	sb	a3,0(a5)
	.loc 1 859 3 is_stmt 1
	.loc 1 859 22 is_stmt 0
	ld	a5,8(s0)
	.loc 1 859 29
	addi	s1,s1,7
.LVL718:
	add	s1,a5,s1
.LVL719:
	.loc 1 859 37
	sb	a4,0(s1)
	.loc 1 860 3 is_stmt 1
	.loc 1 861 1 is_stmt 0
	li	a0,1
	ld	ra,24(sp)
	.cfi_remember_state
	.cfi_restore 1
	ld	s0,16(sp)
	.cfi_restore 8
.LVL720:
	ld	s1,8(sp)
	.cfi_restore 9
	addi	sp,sp,32
	.cfi_def_cfa_offset 0
	jr	ra
.LVL721:
.L378:
	.cfi_restore_state
	.loc 1 831 40 is_stmt 1 discriminator 3
	call	caml_array_bound_error
.LVL722:
	.cfi_endproc
.LFE42:
	.size	caml_ba_uint8_set64, .-caml_ba_uint8_set64
	.align	1
	.globl	caml_ba_num_dims
	.type	caml_ba_num_dims, @function
caml_ba_num_dims:
.LFB43:
	.loc 1 866 1
	.cfi_startproc
.LVL723:
	.loc 1 867 3
	.loc 1 868 3
	.loc 1 868 10 is_stmt 0
	ld	a0,16(a0)
.LVL724:
	slli	a0,a0,1
	.loc 1 869 1
	addi	a0,a0,1
	ret
	.cfi_endproc
.LFE43:
	.size	caml_ba_num_dims, .-caml_ba_num_dims
	.section	.rodata.str1.8
	.align	3
.LC8:
	.string	"Bigarray.dim"
	.text
	.align	1
	.globl	caml_ba_dim
	.type	caml_ba_dim, @function
caml_ba_dim:
.LFB44:
	.loc 1 874 1 is_stmt 1
	.cfi_startproc
.LVL725:
	.loc 1 875 3
	.loc 1 876 3
	.loc 1 877 3
	.loc 1 877 6 is_stmt 0
	blt	a1,zero,.L383
	addi	a0,a0,8
.LVL726:
	srai	a5,a1,1
.LVL727:
	.loc 1 877 22 discriminator 2
	ld	a4,8(a0)
	.loc 1 877 13 discriminator 2
	ble	a4,a5,.L383
	.loc 1 878 3 is_stmt 1
	.loc 1 878 10 is_stmt 0
	addi	a5,a5,4
.LVL728:
	slli	a5,a5,3
.LVL729:
	add	a0,a0,a5
.LVL730:
	ld	a0,0(a0)
	slli	a0,a0,1
	.loc 1 879 1
	addi	a0,a0,1
	ret
.L383:
	.loc 1 874 1 discriminator 3
	addi	sp,sp,-16
	.cfi_def_cfa_offset 16
	sd	ra,8(sp)
	.cfi_offset 1, -8
	.loc 1 877 34 is_stmt 1 discriminator 3
	lla	a0,.LC8
	call	caml_invalid_argument
.LVL731:
	.cfi_endproc
.LFE44:
	.size	caml_ba_dim, .-caml_ba_dim
	.align	1
	.globl	caml_ba_dim_1
	.type	caml_ba_dim_1, @function
caml_ba_dim_1:
.LFB45:
	.loc 1 882 1
	.cfi_startproc
.LVL732:
	addi	sp,sp,-16
	.cfi_def_cfa_offset 16
	sd	ra,8(sp)
	.cfi_offset 1, -8
	.loc 1 883 3
	.loc 1 883 10 is_stmt 0
	li	a1,1
	call	caml_ba_dim
.LVL733:
	.loc 1 884 1
	ld	ra,8(sp)
	.cfi_restore 1
	addi	sp,sp,16
	.cfi_def_cfa_offset 0
	jr	ra
	.cfi_endproc
.LFE45:
	.size	caml_ba_dim_1, .-caml_ba_dim_1
	.align	1
	.globl	caml_ba_dim_2
	.type	caml_ba_dim_2, @function
caml_ba_dim_2:
.LFB46:
	.loc 1 887 1 is_stmt 1
	.cfi_startproc
.LVL734:
	addi	sp,sp,-16
	.cfi_def_cfa_offset 16
	sd	ra,8(sp)
	.cfi_offset 1, -8
	.loc 1 888 3
	.loc 1 888 10 is_stmt 0
	li	a1,3
	call	caml_ba_dim
.LVL735:
	.loc 1 889 1
	ld	ra,8(sp)
	.cfi_restore 1
	addi	sp,sp,16
	.cfi_def_cfa_offset 0
	jr	ra
	.cfi_endproc
.LFE46:
	.size	caml_ba_dim_2, .-caml_ba_dim_2
	.align	1
	.globl	caml_ba_dim_3
	.type	caml_ba_dim_3, @function
caml_ba_dim_3:
.LFB47:
	.loc 1 892 1 is_stmt 1
	.cfi_startproc
.LVL736:
	addi	sp,sp,-16
	.cfi_def_cfa_offset 16
	sd	ra,8(sp)
	.cfi_offset 1, -8
	.loc 1 893 3
	.loc 1 893 10 is_stmt 0
	li	a1,5
	call	caml_ba_dim
.LVL737:
	.loc 1 894 1
	ld	ra,8(sp)
	.cfi_restore 1
	addi	sp,sp,16
	.cfi_def_cfa_offset 0
	jr	ra
	.cfi_endproc
.LFE47:
	.size	caml_ba_dim_3, .-caml_ba_dim_3
	.align	1
	.globl	caml_ba_kind
	.type	caml_ba_kind, @function
caml_ba_kind:
.LFB48:
	.loc 1 899 1 is_stmt 1
	.cfi_startproc
.LVL738:
	.loc 1 900 3
	.loc 1 900 10 is_stmt 0
	ld	a0,24(a0)
.LVL739:
	slli	a0,a0,1
	andi	a0,a0,510
	.loc 1 901 1
	addi	a0,a0,1
	ret
	.cfi_endproc
.LFE48:
	.size	caml_ba_kind, .-caml_ba_kind
	.align	1
	.globl	caml_ba_layout
	.type	caml_ba_layout, @function
caml_ba_layout:
.LFB49:
	.loc 1 906 1 is_stmt 1
	.cfi_startproc
.LVL740:
	.loc 1 907 3
	.loc 1 907 45 is_stmt 0
	lw	a0,24(a0)
.LVL741:
	.loc 1 908 3 is_stmt 1
	.loc 1 908 10 is_stmt 0
	sraiw	a0,a0,8
.LVL742:
	andi	a0,a0,1
	slli	a0,a0,1
	.loc 1 909 1
	addi	a0,a0,1
	ret
	.cfi_endproc
.LFE49:
	.size	caml_ba_layout, .-caml_ba_layout
	.section	.rodata.str1.8
	.align	3
.LC9:
	.string	"Bigarray.slice: too many indices"
	.text
	.align	1
	.globl	caml_ba_slice
	.type	caml_ba_slice, @function
caml_ba_slice:
.LFB51:
	.loc 1 940 1 is_stmt 1
	.cfi_startproc
.LVL743:
	addi	sp,sp,-336
	.cfi_def_cfa_offset 336
	sd	ra,328(sp)
	sd	s0,320(sp)
	sd	s1,312(sp)
	sd	s2,304(sp)
	sd	s3,296(sp)
	.cfi_offset 1, -8
	.cfi_offset 8, -16
	.cfi_offset 9, -24
	.cfi_offset 18, -32
	.cfi_offset 19, -40
	sd	a0,8(sp)
	sd	a1,0(sp)
	.loc 1 941 3
	lla	a4,caml_local_roots
	ld	s3,0(a4)
.LVL744:
	.loc 1 941 3
	.loc 1 941 3
	sd	s3,224(sp)
	li	a5,1
	sd	a5,240(sp)
	li	a3,2
	sd	a3,232(sp)
	addi	a3,sp,8
	sd	a3,248(sp)
	sd	sp,256(sp)
.LVL745:
	.loc 1 943 3
	sd	a5,216(sp)
	.loc 1 943 3
	.loc 1 943 3
	addi	a3,sp,224
	sd	a3,152(sp)
	addi	a3,sp,152
	sd	a3,0(a4)
	sd	a5,168(sp)
	sd	a5,160(sp)
	addi	a5,sp,216
	sd	a5,176(sp)
.LVL746:
	.loc 1 944 3
	.loc 1 945 3
	.loc 1 946 3
	.loc 1 947 3
	.loc 1 948 3
	.loc 1 951 3
	.loc 1 951 14 is_stmt 0
	ld	s1,-8(a1)
	srli	s1,s1,10
	.loc 1 951 12
	sext.w	s1,s1
.LVL747:
	.loc 1 952 3 is_stmt 1
	.loc 1 952 18 is_stmt 0
	addi	s0,a0,8
	.loc 1 952 19
	ld	a5,8(s0)
	.loc 1 952 6
	bgt	s1,a5,.L408
	mv	a2,s1
	mv	s2,a0
	.loc 1 955 3 is_stmt 1
	.loc 1 955 9 is_stmt 0
	ld	a5,16(s0)
	.loc 1 955 17
	andi	a5,a5,256
	.loc 1 955 6
	beq	a5,zero,.L406
	.loc 1 963 12
	li	a4,0
.LVL748:
.L398:
	.loc 1 963 17 is_stmt 1 discriminator 1
	.loc 1 963 5 is_stmt 0 discriminator 1
	bge	a4,s1,.L409
	.loc 1 964 7 is_stmt 1 discriminator 3
	.loc 1 964 43 is_stmt 0 discriminator 3
	slli	a5,a4,3
	add	a5,a5,a1
	ld	a3,0(a5)
	.loc 1 964 14 discriminator 3
	ld	a5,8(s0)
	.loc 1 964 25 discriminator 3
	sub	a5,a5,a2
	.loc 1 964 36 discriminator 3
	add	a5,a4,a5
	.loc 1 964 43 discriminator 3
	srai	a3,a3,1
	.loc 1 964 41 discriminator 3
	slli	a5,a5,3
	addi	a0,sp,288
	add	a5,a0,a5
	sd	a3,-264(a5)
	.loc 1 963 31 is_stmt 1 discriminator 3
	.loc 1 963 32 is_stmt 0 discriminator 3
	addiw	a4,a4,1
.LVL749:
	j	.L398
.LVL750:
.L408:
	.loc 1 953 5 is_stmt 1
	lla	a0,.LC9
.LVL751:
	call	caml_invalid_argument
.LVL752:
.L406:
	.loc 1 957 12 is_stmt 0
	li	a5,0
.L397:
.LVL753:
	.loc 1 957 17 is_stmt 1 discriminator 1
	.loc 1 957 5 is_stmt 0 discriminator 1
	bge	a5,s1,.L400
	.loc 1 957 36 is_stmt 1 discriminator 3
	.loc 1 957 47 is_stmt 0 discriminator 3
	slli	a4,a5,3
	add	a3,a4,a1
	ld	a3,0(a3)
	srai	a3,a3,1
	.loc 1 957 45 discriminator 3
	addi	a2,sp,288
	add	a4,a2,a4
	sd	a3,-264(a4)
	.loc 1 957 31 is_stmt 1 discriminator 3
	.loc 1 957 32 is_stmt 0 discriminator 3
	addiw	a5,a5,1
.LVL754:
	j	.L397
.LVL755:
.L401:
	.loc 1 958 45 is_stmt 1 discriminator 2
	.loc 1 958 54 is_stmt 0 discriminator 2
	slli	a4,a5,3
	addi	a3,sp,288
	add	a4,a3,a4
	sd	zero,-264(a4)
	.loc 1 958 40 is_stmt 1 discriminator 2
	.loc 1 958 41 is_stmt 0 discriminator 2
	addiw	a5,a5,1
.LVL756:
.L400:
	.loc 1 958 23 is_stmt 1 discriminator 1
	.loc 1 958 28 is_stmt 0 discriminator 1
	ld	a4,8(s0)
	.loc 1 958 5 discriminator 1
	blt	a5,a4,.L401
	.loc 1 959 5 is_stmt 1
	.loc 1 959 14 is_stmt 0
	addi	a1,sp,24
.LVL757:
	mv	a0,s0
.LVL758:
	call	caml_ba_offset
.LVL759:
	.loc 1 960 5 is_stmt 1
	.loc 1 960 16 is_stmt 0
	addi	a3,s0,32
	.loc 1 960 23
	slli	a5,s1,3
	.loc 1 960 14
	add	a3,a3,a5
.LVL760:
.L402:
	.loc 1 969 3 is_stmt 1
	.loc 1 970 15 is_stmt 0
	ld	a2,8(s2)
	.loc 1 971 36
	ld	a6,16(s0)
	.loc 1 971 44
	andi	a5,a6,255
	.loc 1 971 34
	slli	a4,a5,2
	lla	a5,.LANCHOR0
	add	a5,a5,a4
	lw	a5,0(a5)
	.loc 1 971 12
	mul	a5,a5,a0
.LVL761:
	.loc 1 973 3 is_stmt 1
	.loc 1 973 34 is_stmt 0
	ld	a1,8(s0)
	.loc 1 973 9
	add	a2,a2,a5
.LVL762:
	subw	a1,a1,s1
	sext.w	a0,a6
.LVL763:
	call	caml_ba_alloc
.LVL764:
	.loc 1 973 7
	sd	a0,216(sp)
	.loc 1 975 3 is_stmt 1
	addi	a1,a0,8
	ld	a0,8(sp)
	addi	a0,a0,8
	call	caml_ba_update_proxy
.LVL765:
	.loc 1 977 3
.LBB169:
	.loc 1 977 3
	.loc 1 977 3
	sd	s3,caml_local_roots,a5
	.loc 1 977 3
.LBE169:
	.loc 1 977 3
	.loc 1 980 1 is_stmt 0
	ld	a0,216(sp)
	ld	ra,328(sp)
	.cfi_remember_state
	.cfi_restore 1
	ld	s0,320(sp)
	.cfi_restore 8
	ld	s1,312(sp)
	.cfi_restore 9
.LVL766:
	ld	s2,304(sp)
	.cfi_restore 18
	ld	s3,296(sp)
	.cfi_restore 19
.LVL767:
	addi	sp,sp,336
	.cfi_def_cfa_offset 0
.LVL768:
	jr	ra
.LVL769:
.L409:
	.cfi_restore_state
	.loc 1 965 12
	li	a4,0
.LVL770:
	j	.L404
.LVL771:
.L405:
	.loc 1 965 50 is_stmt 1 discriminator 3
	.loc 1 965 59 is_stmt 0 discriminator 3
	slli	a5,a4,3
	addi	a3,sp,288
	add	a5,a3,a5
	li	a3,1
	sd	a3,-264(a5)
	.loc 1 965 45 is_stmt 1 discriminator 3
	.loc 1 965 46 is_stmt 0 discriminator 3
	addiw	a4,a4,1
.LVL772:
.L404:
	.loc 1 965 17 is_stmt 1 discriminator 1
	.loc 1 965 22 is_stmt 0 discriminator 1
	ld	a5,8(s0)
	.loc 1 965 33 discriminator 1
	sub	a5,a5,a2
	.loc 1 965 5 discriminator 1
	blt	a4,a5,.L405
	.loc 1 966 5 is_stmt 1
	.loc 1 966 14 is_stmt 0
	addi	a1,sp,24
.LVL773:
	mv	a0,s0
	call	caml_ba_offset
.LVL774:
	.loc 1 967 5 is_stmt 1
	.loc 1 967 14 is_stmt 0
	addi	a3,s0,32
.LVL775:
	j	.L402
	.cfi_endproc
.LFE51:
	.size	caml_ba_slice, .-caml_ba_slice
	.align	1
	.globl	caml_ba_change_layout
	.type	caml_ba_change_layout, @function
caml_ba_change_layout:
.LFB52:
	.loc 1 985 1 is_stmt 1
	.cfi_startproc
.LVL776:
	addi	sp,sp,-304
	.cfi_def_cfa_offset 304
	sd	ra,296(sp)
	sd	s0,288(sp)
	.cfi_offset 1, -8
	.cfi_offset 8, -16
	sd	a0,8(sp)
	sd	a1,0(sp)
	.loc 1 986 3
	lla	a4,caml_local_roots
	ld	s0,0(a4)
.LVL777:
	.loc 1 986 3
	.loc 1 986 3
	sd	s0,224(sp)
	li	a5,1
	sd	a5,240(sp)
	li	a3,2
	sd	a3,232(sp)
	addi	a3,sp,8
	sd	a3,248(sp)
	sd	sp,256(sp)
.LVL778:
	.loc 1 987 3
	sd	a5,216(sp)
	.loc 1 987 3
	.loc 1 987 3
	addi	a3,sp,224
	sd	a3,152(sp)
	addi	a3,sp,152
	sd	a3,0(a4)
	sd	a5,168(sp)
	sd	a5,160(sp)
	addi	a5,sp,216
	sd	a5,176(sp)
.LVL779:
	.loc 1 990 3
	.loc 1 990 7 is_stmt 0
	srai	a1,a1,1
.LVL780:
	slliw	a1,a1,8
	.loc 1 990 39
	addi	a2,a0,8
	.loc 1 990 40
	ld	a5,16(a2)
	.loc 1 990 48
	andi	a4,a5,256
	.loc 1 990 6
	beq	a1,a4,.L411
.LBB170:
	.loc 1 992 5 is_stmt 1
	.loc 1 992 27 is_stmt 0
	andi	a0,a5,1791
.LVL781:
	.loc 1 992 9
	or	a0,a1,a0
.LVL782:
	.loc 1 995 5 is_stmt 1
	.loc 1 996 5
	.loc 1 997 5
	.loc 1 997 11 is_stmt 0
	li	a4,0
.LVL783:
.L412:
	.loc 1 997 16 is_stmt 1 discriminator 1
	.loc 1 997 18 is_stmt 0 discriminator 1
	slli	a5,a4,32
	srli	a5,a5,32
	.loc 1 997 21 discriminator 1
	ld	a1,8(a2)
	.loc 1 997 5 discriminator 1
	bge	a5,a1,.L416
	.loc 1 997 38 is_stmt 1 discriminator 3
	.loc 1 997 70 is_stmt 0 discriminator 3
	sub	a1,a1,a5
	.loc 1 997 57 discriminator 3
	addi	a1,a1,3
	slli	a1,a1,3
	add	a1,a2,a1
	ld	a3,0(a1)
	.loc 1 997 49 discriminator 3
	slli	a5,a4,32
	srli	a5,a5,32
	slli	a5,a5,3
	addi	a1,sp,288
	add	a5,a1,a5
	sd	a3,-264(a5)
	.loc 1 997 33 is_stmt 1 discriminator 3
	.loc 1 997 34 is_stmt 0 discriminator 3
	addiw	a4,a4,1
.LVL784:
	j	.L412
.LVL785:
.L416:
	.loc 1 998 5 is_stmt 1
	.loc 1 998 11 is_stmt 0
	addi	a3,sp,24
	ld	a2,0(a2)
	sext.w	a1,a1
	call	caml_ba_alloc
.LVL786:
	.loc 1 998 9
	sd	a0,216(sp)
	.loc 1 999 5 is_stmt 1
	addi	a1,a0,8
	ld	a0,8(sp)
	addi	a0,a0,8
	call	caml_ba_update_proxy
.LVL787:
	.loc 1 1000 5
.LBB171:
	.loc 1 1000 5
	ld	a0,216(sp)
.LVL788:
	.loc 1 1000 5
	sd	s0,caml_local_roots,a5
	.loc 1 1000 5
.LBE171:
	.loc 1 1000 5
.LVL789:
.L410:
.LBE170:
	.loc 1 1006 1 is_stmt 0
	ld	ra,296(sp)
	.cfi_remember_state
	.cfi_restore 1
	ld	s0,288(sp)
	.cfi_restore 8
.LVL790:
	addi	sp,sp,304
	.cfi_def_cfa_offset 0
	jr	ra
.LVL791:
.L411:
	.cfi_restore_state
	.loc 1 1003 5 is_stmt 1 discriminator 1
.LBB172:
	.loc 1 1003 5 discriminator 1
	.loc 1 1003 5 discriminator 1
	sd	s0,caml_local_roots,a5
	.loc 1 1003 5 discriminator 1
.LBE172:
	.loc 1 1003 5 discriminator 1
.LBB173:
	j	.L410
.LBE173:
	.cfi_endproc
.LFE52:
	.size	caml_ba_change_layout, .-caml_ba_change_layout
	.section	.rodata.str1.8
	.align	3
.LC10:
	.string	"Bigarray.sub: bad sub-array"
	.text
	.align	1
	.globl	caml_ba_sub
	.type	caml_ba_sub, @function
caml_ba_sub:
.LFB53:
	.loc 1 1012 1
	.cfi_startproc
.LVL792:
	addi	sp,sp,-208
	.cfi_def_cfa_offset 208
	sd	ra,200(sp)
	sd	s0,192(sp)
	sd	s1,184(sp)
	sd	s2,176(sp)
	.cfi_offset 1, -8
	.cfi_offset 8, -16
	.cfi_offset 9, -24
	.cfi_offset 18, -32
	sd	a0,24(sp)
	sd	a1,16(sp)
	sd	a2,8(sp)
	.loc 1 1013 3
	lla	a4,caml_local_roots
	ld	s1,0(a4)
.LVL793:
	.loc 1 1013 3
	.loc 1 1013 3
	sd	s1,112(sp)
	li	a5,1
	sd	a5,128(sp)
	li	a3,3
	sd	a3,120(sp)
	addi	a3,sp,24
	sd	a3,136(sp)
	addi	a3,sp,16
	sd	a3,144(sp)
	addi	a3,sp,8
	sd	a3,152(sp)
.LVL794:
	.loc 1 1014 3
	sd	a5,104(sp)
	.loc 1 1014 3
	.loc 1 1014 3
	addi	a3,sp,112
	sd	a3,40(sp)
	addi	a3,sp,40
	sd	a3,0(a4)
	sd	a5,56(sp)
	sd	a5,48(sp)
	addi	a5,sp,104
	sd	a5,64(sp)
.LVL795:
	.loc 1 1016 3
	.loc 1 1016 10 is_stmt 0
	srai	a1,a1,1
.LVL796:
	.loc 1 1017 3 is_stmt 1
	.loc 1 1017 10 is_stmt 0
	srai	s0,a2,1
.LVL797:
	.loc 1 1018 3 is_stmt 1
	.loc 1 1019 3
	.loc 1 1020 3
	.loc 1 1023 3
	.loc 1 1023 8 is_stmt 0
	addi	a4,a0,8
	.loc 1 1023 9
	ld	a7,16(a4)
	.loc 1 1023 17
	andi	a5,a7,256
	.loc 1 1023 6
	beq	a5,zero,.L425
	.loc 1 1030 9
	li	a3,1
	.loc 1 1031 12
	li	a6,0
.LVL798:
.L419:
	.loc 1 1031 17 is_stmt 1 discriminator 1
	.loc 1 1031 22 is_stmt 0 discriminator 1
	ld	a5,8(a4)
	.loc 1 1031 33 discriminator 1
	addi	a2,a5,-1
	.loc 1 1031 5 discriminator 1
	bge	a6,a2,.L427
	.loc 1 1031 43 is_stmt 1 discriminator 3
	.loc 1 1031 56 is_stmt 0 discriminator 3
	addi	a5,a6,4
	slli	a5,a5,3
	add	a5,a4,a5
	ld	a5,0(a5)
	.loc 1 1031 47 discriminator 3
	mul	a3,a3,a5
.LVL799:
	.loc 1 1031 38 is_stmt 1 discriminator 3
	.loc 1 1031 39 is_stmt 0 discriminator 3
	addiw	a6,a6,1
.LVL800:
	j	.L419
.LVL801:
.L425:
	.loc 1 1025 9
	li	a3,1
	.loc 1 1026 12
	li	a6,1
.L418:
.LVL802:
	.loc 1 1026 17 is_stmt 1 discriminator 1
	.loc 1 1026 22 is_stmt 0 discriminator 1
	ld	a5,8(a4)
	.loc 1 1026 5 discriminator 1
	bge	a6,a5,.L428
	.loc 1 1026 39 is_stmt 1 discriminator 3
	.loc 1 1026 52 is_stmt 0 discriminator 3
	addi	a5,a6,4
	slli	a5,a5,3
	add	a5,a4,a5
	ld	a5,0(a5)
	.loc 1 1026 43 discriminator 3
	mul	a3,a3,a5
.LVL803:
	.loc 1 1026 34 is_stmt 1 discriminator 3
	.loc 1 1026 35 is_stmt 0 discriminator 3
	addiw	a6,a6,1
.LVL804:
	j	.L418
.LVL805:
.L428:
	.loc 1 1027 17
	li	s2,0
	j	.L421
.LVL806:
.L427:
	.loc 1 1032 5 is_stmt 1
	.loc 1 1032 17 is_stmt 0
	addiw	s2,a5,-1
.LVL807:
	.loc 1 1033 5 is_stmt 1
	.loc 1 1033 8 is_stmt 0
	addi	a1,a1,-1
.LVL808:
.L421:
	.loc 1 1035 3 is_stmt 1
	.loc 1 1035 6 is_stmt 0
	blt	a1,zero,.L423
	.loc 1 1035 15 discriminator 1
	blt	s0,zero,.L423
	.loc 1 1035 33 discriminator 2
	add	a2,a1,s0
	.loc 1 1035 47 discriminator 2
	addi	a5,s2,4
	slli	a5,a5,3
	add	a5,a4,a5
	ld	a6,0(a5)
.LVL809:
	.loc 1 1035 26 discriminator 2
	bgt	a2,a6,.L423
	.loc 1 1037 3 is_stmt 1
	.loc 1 1038 15 is_stmt 0
	ld	a2,8(a0)
	.loc 1 1039 9
	mul	a1,a1,a3
.LVL810:
	.loc 1 1039 47
	andi	a5,a7,255
	.loc 1 1039 37
	slli	a3,a5,2
.LVL811:
	lla	a5,.LANCHOR0
	add	a5,a5,a3
	lw	a3,0(a5)
	.loc 1 1039 15
	mul	a1,a1,a3
.LVL812:
	.loc 1 1041 3 is_stmt 1
	.loc 1 1041 9 is_stmt 0
	addi	a3,a4,32
	add	a2,a2,a1
.LVL813:
	lw	a1,8(a4)
	sext.w	a0,a7
.LVL814:
	call	caml_ba_alloc
.LVL815:
	.loc 1 1041 7
	sd	a0,104(sp)
	.loc 1 1043 3 is_stmt 1
	addi	a1,a0,8
	.loc 1 1043 44 is_stmt 0
	addi	a5,s2,4
	slli	a5,a5,3
	add	a5,a1,a5
	sd	s0,0(a5)
	.loc 1 1045 3 is_stmt 1
	ld	a0,24(sp)
	addi	a0,a0,8
	call	caml_ba_update_proxy
.LVL816:
	.loc 1 1047 3
.LBB174:
	.loc 1 1047 3
	.loc 1 1047 3
	sd	s1,caml_local_roots,a5
	.loc 1 1047 3
.LBE174:
	.loc 1 1047 3
	.loc 1 1050 1 is_stmt 0
	ld	a0,104(sp)
	ld	ra,200(sp)
	.cfi_remember_state
	.cfi_restore 1
	ld	s0,192(sp)
	.cfi_restore 8
.LVL817:
	ld	s1,184(sp)
	.cfi_restore 9
.LVL818:
	ld	s2,176(sp)
	.cfi_restore 18
.LVL819:
	addi	sp,sp,208
	.cfi_def_cfa_offset 0
.LVL820:
	jr	ra
.LVL821:
.L423:
	.cfi_restore_state
	.loc 1 1036 5 is_stmt 1
	lla	a0,.LC10
.LVL822:
	call	caml_invalid_argument
.LVL823:
	.cfi_endproc
.LFE53:
	.size	caml_ba_sub, .-caml_ba_sub
	.section	.rodata.str1.8
	.align	3
.LC11:
	.string	"Bigarray.blit: dimension mismatch"
	.text
	.align	1
	.globl	caml_ba_blit
	.type	caml_ba_blit, @function
caml_ba_blit:
.LFB54:
	.loc 1 1058 1
	.cfi_startproc
.LVL824:
	addi	sp,sp,-128
	.cfi_def_cfa_offset 128
	sd	ra,120(sp)
	sd	s0,112(sp)
	sd	s1,104(sp)
	sd	s2,96(sp)
	sd	s3,88(sp)
	sd	s4,80(sp)
	.cfi_offset 1, -8
	.cfi_offset 8, -16
	.cfi_offset 9, -24
	.cfi_offset 18, -32
	.cfi_offset 19, -40
	.cfi_offset 20, -48
	sd	a0,8(sp)
	sd	a1,0(sp)
	.loc 1 1059 3
	lla	a5,caml_local_roots
	ld	s2,0(a5)
.LVL825:
	.loc 1 1059 3
	.loc 1 1059 3
	sd	s2,16(sp)
	addi	a4,sp,16
	sd	a4,0(a5)
	li	a5,1
	sd	a5,32(sp)
	li	a5,2
	sd	a5,24(sp)
	addi	a5,sp,8
	sd	a5,40(sp)
	sd	sp,48(sp)
.LVL826:
	.loc 1 1060 3
	.loc 1 1060 32 is_stmt 0
	addi	s0,a0,8
.LVL827:
	.loc 1 1061 3 is_stmt 1
	.loc 1 1061 32 is_stmt 0
	addi	s1,a1,8
.LVL828:
	.loc 1 1062 3 is_stmt 1
	.loc 1 1062 9 is_stmt 0
	ld	s4,8(a0)
.LVL829:
	.loc 1 1063 3 is_stmt 1
	.loc 1 1063 9 is_stmt 0
	ld	s3,8(a1)
.LVL830:
	.loc 1 1064 3 is_stmt 1
	.loc 1 1065 3
	.loc 1 1066 3
	.loc 1 1069 3
	.loc 1 1069 10 is_stmt 0
	ld	a2,8(s0)
	.loc 1 1069 27
	ld	a5,8(s1)
	.loc 1 1069 6
	bne	a2,a5,.L430
	.loc 1 1070 10
	li	a4,0
.L431:
.LVL831:
	.loc 1 1070 15 is_stmt 1 discriminator 1
	.loc 1 1070 3 is_stmt 0 discriminator 1
	ble	a2,a4,.L439
	.loc 1 1071 5 is_stmt 1
	.loc 1 1071 17 is_stmt 0
	addi	a5,a4,4
	slli	a5,a5,3
	add	a3,s0,a5
	ld	a3,0(a3)
	.loc 1 1071 32
	add	a5,s1,a5
	ld	a5,0(a5)
	.loc 1 1071 8
	bne	a3,a5,.L430
	.loc 1 1070 34 is_stmt 1 discriminator 2
	.loc 1 1070 35 is_stmt 0 discriminator 2
	addiw	a4,a4,1
.LVL832:
	j	.L431
.LVL833:
.L439:
	.loc 1 1073 3 is_stmt 1
	.loc 1 1074 5 is_stmt 0
	mv	a0,s0
.LVL834:
	call	caml_ba_num_elts
.LVL835:
	.loc 1 1075 31
	ld	a3,16(s0)
	.loc 1 1075 39
	andi	a5,a3,255
	.loc 1 1075 27
	slli	a4,a5,2
	lla	a5,.LANCHOR0
	add	a5,a5,a4
	lw	s0,0(a5)
.LVL836:
	.loc 1 1075 5
	mul	s0,a0,s0
.LVL837:
	.loc 1 1076 3 is_stmt 1
	.loc 1 1080 7 is_stmt 0
	li	a5,32768
	bgeu	s0,a5,.L433
	.loc 1 1079 10
	andi	a3,a3,1024
	.loc 1 1079 7
	bne	a3,zero,.L433
	.loc 1 1080 10 discriminator 2
	ld	a5,16(s1)
	andi	a5,a5,1024
	.loc 1 1080 7 discriminator 2
	beq	a5,zero,.L436
.L433:
	.loc 1 1083 22 is_stmt 1 discriminator 1
	call	caml_enter_blocking_section
.LVL838:
	li	s1,1
.LVL839:
.L434:
	.loc 1 1084 3
	mv	a2,s0
	mv	a1,s4
	mv	a0,s3
	call	memmove
.LVL840:
	.loc 1 1085 3
	.loc 1 1085 6 is_stmt 0
	bne	s1,zero,.L440
.L435:
	.loc 1 1086 3 is_stmt 1
.LBB175:
	.loc 1 1086 3
.LVL841:
	.loc 1 1086 3
	sd	s2,caml_local_roots,a5
	.loc 1 1086 3
.LBE175:
	.loc 1 1089 3
	.loc 1 1090 1 is_stmt 0
	li	a0,1
	ld	ra,120(sp)
	.cfi_remember_state
	.cfi_restore 1
	ld	s0,112(sp)
	.cfi_restore 8
.LVL842:
	ld	s1,104(sp)
	.cfi_restore 9
	ld	s2,96(sp)
	.cfi_restore 18
.LVL843:
	ld	s3,88(sp)
	.cfi_restore 19
.LVL844:
	ld	s4,80(sp)
	.cfi_restore 20
.LVL845:
	addi	sp,sp,128
	.cfi_def_cfa_offset 0
	jr	ra
.LVL846:
.L436:
	.cfi_restore_state
	.loc 1 1080 7
	li	s1,0
.LVL847:
	j	.L434
.L440:
	.loc 1 1085 22 is_stmt 1 discriminator 1
	call	caml_leave_blocking_section
.LVL848:
	j	.L435
.LVL849:
.L430:
	.loc 1 1086 3
	.loc 1 1088 3
	lla	a0,.LC11
.LVL850:
	call	caml_invalid_argument
.LVL851:
	.cfi_endproc
.LFE54:
	.size	caml_ba_blit, .-caml_ba_blit
	.align	1
	.globl	caml_ba_fill
	.type	caml_ba_fill, @function
caml_ba_fill:
.LFB55:
	.loc 1 1110 1
	.cfi_startproc
.LVL852:
	addi	sp,sp,-144
	.cfi_def_cfa_offset 144
	sd	ra,136(sp)
	sd	s0,128(sp)
	sd	s1,120(sp)
	sd	s2,112(sp)
	sd	s3,104(sp)
	sd	s4,96(sp)
	fsd	fs0,88(sp)
	fsd	fs1,80(sp)
	.cfi_offset 1, -8
	.cfi_offset 8, -16
	.cfi_offset 9, -24
	.cfi_offset 18, -32
	.cfi_offset 19, -40
	.cfi_offset 20, -48
	.cfi_offset 40, -56
	.cfi_offset 41, -64
	sd	a0,8(sp)
	mv	s2,a1
	.loc 1 1111 3
	lla	a5,caml_local_roots
	ld	s3,0(a5)
.LVL853:
	.loc 1 1111 3
	.loc 1 1111 3
	sd	s3,16(sp)
	addi	a4,sp,16
	sd	a4,0(a5)
	li	a5,1
	sd	a5,32(sp)
	sd	a5,24(sp)
	addi	a5,sp,8
	sd	a5,40(sp)
.LVL854:
	.loc 1 1112 3
	.loc 1 1112 30 is_stmt 0
	addi	s4,a0,8
.LVL855:
	.loc 1 1113 3 is_stmt 1
	.loc 1 1113 9 is_stmt 0
	ld	s1,8(a0)
.LVL856:
	.loc 1 1114 3 is_stmt 1
	.loc 1 1114 21 is_stmt 0
	mv	a0,s4
.LVL857:
	call	caml_ba_num_elts
.LVL858:
	mv	s0,a0
.LVL859:
	.loc 1 1116 3 is_stmt 1
	.loc 1 1116 12 is_stmt 0
	ld	a4,16(s4)
	.loc 1 1116 20
	andi	a5,a4,255
	li	a3,12
	bgtu	a5,a3,.L442
	slli	a5,a5,2
	lla	a3,.L444
	add	a5,a5,a3
	lw	a5,0(a5)
	add	a5,a5,a3
	jr	a5
	.section	.rodata
	.align	2
	.align	2
.L444:
	.word	.L442-.L444
	.word	.L452-.L444
	.word	.L443-.L444
	.word	.L443-.L444
	.word	.L451-.L444
	.word	.L451-.L444
	.word	.L450-.L444
	.word	.L449-.L444
	.word	.L448-.L444
	.word	.L447-.L444
	.word	.L446-.L444
	.word	.L445-.L444
	.word	.L443-.L444
	.text
.L442:
	.loc 1 1118 5 is_stmt 1
.LBB176:
	.loc 1 1120 5
	.loc 1 1120 18 is_stmt 0
	fld	fs0,0(s2)
	.loc 1 1120 11
	fcvt.s.d	fs0,fs0
.LVL860:
	.loc 1 1121 5 is_stmt 1
	.loc 1 1122 5
.LBB177:
	.loc 1 1122 5
	li	a5,4096
	bge	s0,a5,.L453
	.loc 1 1122 5 is_stmt 0 discriminator 2
	andi	a4,a4,1024
	beq	a4,zero,.L502
.L453:
	.loc 1 1122 5 is_stmt 1 discriminator 7
	call	caml_enter_blocking_section
.LVL861:
	li	a5,1
.LVL862:
.L455:
	.loc 1 1122 5 discriminator 10
	ble	s0,zero,.L513
	.loc 1 1122 5 discriminator 12
	fsw	fs0,0(s1)
	.loc 1 1122 5 discriminator 12
	addi	s1,s1,4
.LVL863:
	addi	s0,s0,-1
.LVL864:
	j	.L455
.LVL865:
.L502:
	.loc 1 1122 5 is_stmt 0
	li	a5,0
	.loc 1 1122 5 is_stmt 1
.LVL866:
	j	.L455
.LVL867:
.L513:
	.loc 1 1122 5 discriminator 13
	bne	a5,zero,.L514
.LVL868:
.L457:
.LBE177:
.LBE176:
	.loc 1 1185 3
.LBB179:
	.loc 1 1185 3
	.loc 1 1185 3
	sd	s3,caml_local_roots,a5
	.loc 1 1185 3
.LBE179:
	.loc 1 1185 3
	.loc 1 1186 1 is_stmt 0
	li	a0,1
	ld	ra,136(sp)
	.cfi_remember_state
	.cfi_restore 1
	ld	s0,128(sp)
	.cfi_restore 8
.LVL869:
	ld	s1,120(sp)
	.cfi_restore 9
	ld	s2,112(sp)
	.cfi_restore 18
	ld	s3,104(sp)
	.cfi_restore 19
.LVL870:
	ld	s4,96(sp)
	.cfi_restore 20
.LVL871:
	fld	fs0,88(sp)
	.cfi_restore 40
	fld	fs1,80(sp)
	.cfi_restore 41
	addi	sp,sp,144
	.cfi_def_cfa_offset 0
	jr	ra
.LVL872:
.L514:
	.cfi_restore_state
.LBB180:
.LBB178:
	.loc 1 1122 5 is_stmt 1 discriminator 14
	call	caml_leave_blocking_section
.LVL873:
	j	.L457
.LVL874:
.L452:
.LBE178:
.LBE180:
.LBB181:
	.loc 1 1126 5
	.loc 1 1126 12 is_stmt 0
	fld	fs0,0(s2)
.LVL875:
	.loc 1 1127 5 is_stmt 1
	.loc 1 1128 5
.LBB182:
	.loc 1 1128 5
	li	a5,4096
	bge	a0,a5,.L458
	.loc 1 1128 5 is_stmt 0 discriminator 2
	andi	a4,a4,1024
	beq	a4,zero,.L503
.L458:
	.loc 1 1128 5 is_stmt 1 discriminator 7
	call	caml_enter_blocking_section
.LVL876:
	li	a5,1
.LVL877:
.L460:
	.loc 1 1128 5 discriminator 10
	ble	s0,zero,.L515
	.loc 1 1128 5 discriminator 12
	fsd	fs0,0(s1)
	.loc 1 1128 5 discriminator 12
	addi	s1,s1,8
.LVL878:
	addi	s0,s0,-1
.LVL879:
	j	.L460
.LVL880:
.L503:
	.loc 1 1128 5 is_stmt 0
	li	a5,0
	.loc 1 1128 5 is_stmt 1
.LVL881:
	j	.L460
.LVL882:
.L515:
	.loc 1 1128 5 discriminator 13
	beq	a5,zero,.L457
	.loc 1 1128 5 discriminator 14
	call	caml_leave_blocking_section
.LVL883:
	j	.L457
.LVL884:
.L443:
.LBE182:
.LBE181:
.LBB183:
	.loc 1 1134 5
	.loc 1 1134 16 is_stmt 0
	srai	s2,s2,1
.LVL885:
	.loc 1 1135 5 is_stmt 1
	.loc 1 1136 5
.LBB184:
	.loc 1 1136 5
	li	a5,4096
	bge	a0,a5,.L462
	.loc 1 1136 5 is_stmt 0 discriminator 2
	andi	a4,a4,1024
	beq	a4,zero,.L504
.L462:
	.loc 1 1136 5 is_stmt 1 discriminator 7
	call	caml_enter_blocking_section
.LVL886:
	li	a5,1
.LVL887:
.L464:
	.loc 1 1136 5 discriminator 10
	ble	s0,zero,.L516
	.loc 1 1136 5 discriminator 12
	sb	s2,0(s1)
	.loc 1 1136 5 discriminator 12
	addi	s1,s1,1
.LVL888:
	addi	s0,s0,-1
.LVL889:
	j	.L464
.LVL890:
.L504:
	.loc 1 1136 5 is_stmt 0
	li	a5,0
	.loc 1 1136 5 is_stmt 1
.LVL891:
	j	.L464
.LVL892:
.L516:
	.loc 1 1136 5 discriminator 13
	beq	a5,zero,.L457
	.loc 1 1136 5 discriminator 14
	call	caml_leave_blocking_section
.LVL893:
	j	.L457
.LVL894:
.L451:
.LBE184:
.LBE183:
.LBB185:
	.loc 1 1141 5
	.loc 1 1141 16 is_stmt 0
	srai	s2,s2,1
.LVL895:
	.loc 1 1142 5 is_stmt 1
	.loc 1 1143 5
.LBB186:
	.loc 1 1143 5
	li	a5,4096
	bge	a0,a5,.L466
	.loc 1 1143 5 is_stmt 0 discriminator 2
	andi	a4,a4,1024
	beq	a4,zero,.L505
.L466:
	.loc 1 1143 5 is_stmt 1 discriminator 7
	call	caml_enter_blocking_section
.LVL896:
	li	a5,1
.LVL897:
.L468:
	.loc 1 1143 5 discriminator 10
	ble	s0,zero,.L517
	.loc 1 1143 5 discriminator 12
	sh	s2,0(s1)
	.loc 1 1143 5 discriminator 12
	addi	s1,s1,2
.LVL898:
	addi	s0,s0,-1
.LVL899:
	j	.L468
.LVL900:
.L505:
	.loc 1 1143 5 is_stmt 0
	li	a5,0
	.loc 1 1143 5 is_stmt 1
.LVL901:
	j	.L468
.LVL902:
.L517:
	.loc 1 1143 5 discriminator 13
	beq	a5,zero,.L457
	.loc 1 1143 5 discriminator 14
	call	caml_leave_blocking_section
.LVL903:
	j	.L457
.LVL904:
.L450:
.LBE186:
.LBE185:
.LBB187:
	.loc 1 1147 5
	.loc 1 1147 13 is_stmt 0
	lw	s2,8(s2)
.LVL905:
	.loc 1 1148 5 is_stmt 1
	.loc 1 1149 5
.LBB188:
	.loc 1 1149 5
	li	a5,4096
	bge	a0,a5,.L470
	.loc 1 1149 5 is_stmt 0 discriminator 2
	andi	a4,a4,1024
	beq	a4,zero,.L506
.L470:
	.loc 1 1149 5 is_stmt 1 discriminator 7
	call	caml_enter_blocking_section
.LVL906:
	li	a5,1
.LVL907:
.L472:
	.loc 1 1149 5 discriminator 10
	ble	s0,zero,.L518
	.loc 1 1149 5 discriminator 12
	sw	s2,0(s1)
	.loc 1 1149 5 discriminator 12
	addi	s1,s1,4
.LVL908:
	addi	s0,s0,-1
.LVL909:
	j	.L472
.LVL910:
.L506:
	.loc 1 1149 5 is_stmt 0
	li	a5,0
	.loc 1 1149 5 is_stmt 1
.LVL911:
	j	.L472
.LVL912:
.L518:
	.loc 1 1149 5 discriminator 13
	beq	a5,zero,.L457
	.loc 1 1149 5 discriminator 14
	call	caml_leave_blocking_section
.LVL913:
	j	.L457
.LVL914:
.L449:
.LBE188:
.LBE187:
.LBB189:
	.loc 1 1153 5
	.loc 1 1153 20 is_stmt 0
	mv	a0,s2
	call	caml_Int64_val
.LVL915:
	mv	s2,a0
.LVL916:
	.loc 1 1154 5 is_stmt 1
	.loc 1 1155 5
.LBB190:
	.loc 1 1155 5
	li	a5,4096
	bge	s0,a5,.L474
	.loc 1 1155 5 is_stmt 0 discriminator 2
	ld	a5,16(s4)
	andi	a5,a5,1024
	beq	a5,zero,.L507
.L474:
	.loc 1 1155 5 is_stmt 1 discriminator 7
	call	caml_enter_blocking_section
.LVL917:
	li	a5,1
.LVL918:
.L476:
	.loc 1 1155 5 discriminator 10
	ble	s0,zero,.L519
	.loc 1 1155 5 discriminator 12
	sd	s2,0(s1)
	.loc 1 1155 5 discriminator 12
	addi	s1,s1,8
.LVL919:
	addi	s0,s0,-1
.LVL920:
	j	.L476
.LVL921:
.L507:
	.loc 1 1155 5 is_stmt 0
	li	a5,0
	.loc 1 1155 5 is_stmt 1
.LVL922:
	j	.L476
.LVL923:
.L519:
	.loc 1 1155 5 discriminator 13
	beq	a5,zero,.L457
	.loc 1 1155 5 discriminator 14
	call	caml_leave_blocking_section
.LVL924:
	j	.L457
.LVL925:
.L447:
.LBE190:
.LBE189:
.LBB191:
	.loc 1 1159 5
	.loc 1 1159 12 is_stmt 0
	ld	s2,8(s2)
.LVL926:
	.loc 1 1160 5 is_stmt 1
	.loc 1 1161 5
.LBB192:
	.loc 1 1161 5
	li	a5,4096
	bge	a0,a5,.L478
	.loc 1 1161 5 is_stmt 0 discriminator 2
	andi	a4,a4,1024
	beq	a4,zero,.L508
.L478:
	.loc 1 1161 5 is_stmt 1 discriminator 7
	call	caml_enter_blocking_section
.LVL927:
	li	a5,1
.LVL928:
.L480:
	.loc 1 1161 5 discriminator 10
	ble	s0,zero,.L520
	.loc 1 1161 5 discriminator 12
	sd	s2,0(s1)
	.loc 1 1161 5 discriminator 12
	addi	s1,s1,8
.LVL929:
	addi	s0,s0,-1
.LVL930:
	j	.L480
.LVL931:
.L508:
	.loc 1 1161 5 is_stmt 0
	li	a5,0
	.loc 1 1161 5 is_stmt 1
.LVL932:
	j	.L480
.LVL933:
.L520:
	.loc 1 1161 5 discriminator 13
	beq	a5,zero,.L457
	.loc 1 1161 5 discriminator 14
	call	caml_leave_blocking_section
.LVL934:
	j	.L457
.LVL935:
.L448:
.LBE192:
.LBE191:
.LBB193:
	.loc 1 1165 5
	.loc 1 1165 12 is_stmt 0
	srai	s2,s2,1
.LVL936:
	.loc 1 1166 5 is_stmt 1
	.loc 1 1167 5
.LBB194:
	.loc 1 1167 5
	li	a5,4096
	bge	a0,a5,.L482
	.loc 1 1167 5 is_stmt 0 discriminator 2
	andi	a4,a4,1024
	beq	a4,zero,.L509
.L482:
	.loc 1 1167 5 is_stmt 1 discriminator 7
	call	caml_enter_blocking_section
.LVL937:
	li	a5,1
.LVL938:
.L484:
	.loc 1 1167 5 discriminator 10
	ble	s0,zero,.L521
	.loc 1 1167 5 discriminator 12
	sd	s2,0(s1)
	.loc 1 1167 5 discriminator 12
	addi	s1,s1,8
.LVL939:
	addi	s0,s0,-1
.LVL940:
	j	.L484
.LVL941:
.L509:
	.loc 1 1167 5 is_stmt 0
	li	a5,0
	.loc 1 1167 5 is_stmt 1
.LVL942:
	j	.L484
.LVL943:
.L521:
	.loc 1 1167 5 discriminator 13
	beq	a5,zero,.L457
	.loc 1 1167 5 discriminator 14
	call	caml_leave_blocking_section
.LVL944:
	j	.L457
.LVL945:
.L446:
.LBE194:
.LBE193:
.LBB195:
	.loc 1 1171 5
.LBB196:
.LBB197:
	.loc 3 307 5
	.loc 3 307 9 is_stmt 0
	lbu	a5,-8(s2)
	.loc 3 307 8
	li	a3,254
	beq	a5,a3,.L522
	.loc 3 310 7 is_stmt 1
	.loc 3 310 14 is_stmt 0
	ld	a3,0(s2)
	fld	fs0,0(a3)
.L487:
.LVL946:
.LBE197:
.LBE196:
	.loc 1 1171 11
	fcvt.s.d	fs0,fs0
.LVL947:
	.loc 1 1172 5 is_stmt 1
.LBB199:
.LBB200:
	.loc 3 307 5
	.loc 3 307 8 is_stmt 0
	li	a3,254
	beq	a5,a3,.L523
	.loc 3 310 7 is_stmt 1
	.loc 3 310 14 is_stmt 0
	ld	a5,8(s2)
	fld	fs1,0(a5)
.L489:
.LVL948:
.LBE200:
.LBE199:
	.loc 1 1172 11
	fcvt.s.d	fs1,fs1
.LVL949:
	.loc 1 1173 5 is_stmt 1
	.loc 1 1174 5
.LBB202:
	.loc 1 1174 5
	slli	a5,s0,1
	li	a3,4096
	bge	a5,a3,.L490
	.loc 1 1174 5 is_stmt 0 discriminator 2
	andi	a4,a4,1024
	beq	a4,zero,.L510
.L490:
	.loc 1 1174 5 is_stmt 1 discriminator 7
	call	caml_enter_blocking_section
.LVL950:
	li	a5,1
.LVL951:
.L492:
	.loc 1 1174 5 discriminator 10
	ble	s0,zero,.L524
	.loc 1 1174 5 discriminator 12
.LVL952:
	fsw	fs0,0(s1)
	.loc 1 1174 5 discriminator 12
.LVL953:
	fsw	fs1,4(s1)
	.loc 1 1174 5 discriminator 12
	addi	s0,s0,-1
.LVL954:
	addi	s1,s1,8
.LVL955:
	j	.L492
.LVL956:
.L522:
.LBE202:
.LBB203:
.LBB198:
	.loc 3 308 7
	.loc 3 308 14 is_stmt 0
	fld	fs0,0(s2)
	j	.L487
.LVL957:
.L523:
.LBE198:
.LBE203:
.LBB204:
.LBB201:
	.loc 3 308 7 is_stmt 1
	.loc 3 308 14 is_stmt 0
	fld	fs1,8(s2)
	j	.L489
.LVL958:
.L510:
.LBE201:
.LBE204:
.LBB205:
	.loc 1 1174 5
	li	a5,0
	.loc 1 1174 5 is_stmt 1
.LVL959:
	j	.L492
.LVL960:
.L524:
	.loc 1 1174 5 discriminator 13
	.loc 1 1174 5 discriminator 13
	beq	a5,zero,.L457
	.loc 1 1174 5 discriminator 14
	call	caml_leave_blocking_section
.LVL961:
	j	.L457
.LVL962:
.L445:
.LBE205:
.LBE195:
.LBB206:
	.loc 1 1178 5
.LBB207:
.LBB208:
	.loc 3 307 5
	.loc 3 307 9 is_stmt 0
	lbu	a5,-8(s2)
	.loc 3 307 8
	li	a3,254
	beq	a5,a3,.L525
	.loc 3 310 7 is_stmt 1
	.loc 3 310 14 is_stmt 0
	ld	a3,0(s2)
	fld	fs1,0(a3)
.L495:
.LVL963:
.LBE208:
.LBE207:
	.loc 1 1179 5 is_stmt 1
.LBB210:
.LBB211:
	.loc 3 307 5
	.loc 3 307 8 is_stmt 0
	li	a3,254
	beq	a5,a3,.L526
	.loc 3 310 7 is_stmt 1
	.loc 3 310 14 is_stmt 0
	ld	a5,8(s2)
	fld	fs0,0(a5)
.L497:
.LVL964:
.LBE211:
.LBE210:
	.loc 1 1180 5 is_stmt 1
	.loc 1 1181 5
.LBB213:
	.loc 1 1181 5
	slli	a5,s0,1
	li	a3,4096
	bge	a5,a3,.L498
	.loc 1 1181 5 is_stmt 0 discriminator 2
	andi	a4,a4,1024
	beq	a4,zero,.L511
.L498:
	.loc 1 1181 5 is_stmt 1 discriminator 7
	call	caml_enter_blocking_section
.LVL965:
	li	a5,1
.LVL966:
.L500:
	.loc 1 1181 5 discriminator 10
	ble	s0,zero,.L527
	.loc 1 1181 5 discriminator 12
.LVL967:
	fsd	fs1,0(s1)
	.loc 1 1181 5 discriminator 12
.LVL968:
	fsd	fs0,8(s1)
	.loc 1 1181 5 discriminator 12
	addi	s0,s0,-1
.LVL969:
	addi	s1,s1,16
.LVL970:
	j	.L500
.LVL971:
.L525:
.LBE213:
.LBB214:
.LBB209:
	.loc 3 308 7
	.loc 3 308 14 is_stmt 0
	fld	fs1,0(s2)
	j	.L495
.LVL972:
.L526:
.LBE209:
.LBE214:
.LBB215:
.LBB212:
	.loc 3 308 7 is_stmt 1
	.loc 3 308 14 is_stmt 0
	fld	fs0,8(s2)
	j	.L497
.LVL973:
.L511:
.LBE212:
.LBE215:
.LBB216:
	.loc 1 1181 5
	li	a5,0
	.loc 1 1181 5 is_stmt 1
.LVL974:
	j	.L500
.LVL975:
.L527:
	.loc 1 1181 5 discriminator 13
	.loc 1 1181 5 discriminator 13
	beq	a5,zero,.L457
	.loc 1 1181 5 discriminator 14
	call	caml_leave_blocking_section
.LVL976:
	j	.L457
.LBE216:
.LBE206:
	.cfi_endproc
.LFE55:
	.size	caml_ba_fill, .-caml_ba_fill
	.section	.rodata.str1.8
	.align	3
.LC12:
	.string	"Bigarray.reshape: bad number of dimensions"
	.align	3
.LC13:
	.string	"Bigarray.reshape: negative dimension"
	.align	3
.LC14:
	.string	"Bigarray.reshape: size mismatch"
	.text
	.align	1
	.globl	caml_ba_reshape
	.type	caml_ba_reshape, @function
caml_ba_reshape:
.LFB56:
	.loc 1 1192 1
	.cfi_startproc
.LVL977:
	addi	sp,sp,-336
	.cfi_def_cfa_offset 336
	sd	ra,328(sp)
	sd	s0,320(sp)
	sd	s1,312(sp)
	sd	s2,304(sp)
	sd	s3,296(sp)
	sd	s4,288(sp)
	.cfi_offset 1, -8
	.cfi_offset 8, -16
	.cfi_offset 9, -24
	.cfi_offset 18, -32
	.cfi_offset 19, -40
	.cfi_offset 20, -48
	sd	a0,8(sp)
	sd	a1,0(sp)
	.loc 1 1193 3
	lla	a4,caml_local_roots
	ld	s2,0(a4)
.LVL978:
	.loc 1 1193 3
	.loc 1 1193 3
	sd	s2,224(sp)
	li	a5,1
	sd	a5,240(sp)
	li	a3,2
	sd	a3,232(sp)
	addi	a3,sp,8
	sd	a3,248(sp)
	sd	sp,256(sp)
.LVL979:
	.loc 1 1194 3
	sd	a5,216(sp)
	.loc 1 1194 3
	.loc 1 1194 3
	addi	a3,sp,224
	sd	a3,152(sp)
	addi	a3,sp,152
	sd	a3,0(a4)
	sd	a5,168(sp)
	sd	a5,160(sp)
	addi	a5,sp,216
	sd	a5,176(sp)
.LVL980:
	.loc 1 1196 3
	.loc 1 1197 3
	.loc 1 1198 3
	.loc 1 1199 3
	.loc 1 1201 3
	.loc 1 1201 14 is_stmt 0
	ld	s1,-8(a1)
	.loc 1 1201 12
	srli	s1,s1,10
.LVL981:
	.loc 1 1203 3 is_stmt 1
	.loc 1 1203 6 is_stmt 0
	li	a5,16
	bgtu	s1,a5,.L535
	.loc 1 1206 10
	li	a4,0
	.loc 1 1205 12
	li	s0,1
.L529:
.LVL982:
	.loc 1 1206 15 is_stmt 1 discriminator 1
	.loc 1 1206 3 is_stmt 0 discriminator 1
	bgeu	a4,s1,.L536
	.loc 1 1207 5 is_stmt 1
	.loc 1 1207 14 is_stmt 0
	slli	a5,a4,3
	add	a5,a5,a1
	ld	a5,0(a5)
	srai	a5,a5,1
	.loc 1 1207 12
	slli	a3,a4,3
	addi	a2,sp,288
	add	a3,a2,a3
	sd	a5,-264(a3)
	.loc 1 1208 5 is_stmt 1
	.loc 1 1208 8 is_stmt 0
	blt	a5,zero,.L537
	.loc 1 1210 5 is_stmt 1 discriminator 2
	.loc 1 1210 14 is_stmt 0 discriminator 2
	mul	s0,s0,a5
.LVL983:
	.loc 1 1206 29 is_stmt 1 discriminator 2
	.loc 1 1206 30 is_stmt 0 discriminator 2
	addiw	a4,a4,1
.LVL984:
	j	.L529
.LVL985:
.L535:
	.loc 1 1204 5 is_stmt 1
	lla	a0,.LC12
.LVL986:
	call	caml_invalid_argument
.LVL987:
.L537:
	.loc 1 1209 7
	lla	a0,.LC13
.LVL988:
	call	caml_invalid_argument
.LVL989:
.L536:
	.loc 1 1213 3
	.loc 1 1213 36 is_stmt 0
	ld	s4,8(sp)
	addi	s3,s4,8
	.loc 1 1213 19
	mv	a0,s3
.LVL990:
	call	caml_ba_num_elts
.LVL991:
	.loc 1 1213 6
	bne	a0,s0,.L538
	.loc 1 1216 3 is_stmt 1
	.loc 1 1216 9 is_stmt 0
	addi	a3,sp,24
	ld	a2,8(s4)
	sext.w	a1,s1
	lw	a0,16(s3)
	call	caml_ba_alloc
.LVL992:
	.loc 1 1216 7
	sd	a0,216(sp)
	.loc 1 1218 3 is_stmt 1
	addi	a1,a0,8
	ld	a0,8(sp)
	addi	a0,a0,8
	call	caml_ba_update_proxy
.LVL993:
	.loc 1 1220 3
.LBB217:
	.loc 1 1220 3
	.loc 1 1220 3
	sd	s2,caml_local_roots,a5
	.loc 1 1220 3
.LBE217:
	.loc 1 1220 3
	.loc 1 1223 1 is_stmt 0
	ld	a0,216(sp)
	ld	ra,328(sp)
	.cfi_remember_state
	.cfi_restore 1
	ld	s0,320(sp)
	.cfi_restore 8
.LVL994:
	ld	s1,312(sp)
	.cfi_restore 9
.LVL995:
	ld	s2,304(sp)
	.cfi_restore 18
.LVL996:
	ld	s3,296(sp)
	.cfi_restore 19
	ld	s4,288(sp)
	.cfi_restore 20
	addi	sp,sp,336
	.cfi_def_cfa_offset 0
.LVL997:
	jr	ra
.LVL998:
.L538:
	.cfi_restore_state
	.loc 1 1214 5 is_stmt 1
	lla	a0,.LC14
	call	caml_invalid_argument
.LVL999:
	.cfi_endproc
.LFE56:
	.size	caml_ba_reshape, .-caml_ba_reshape
	.globl	caml_ba_ops
	.section	.rodata.str1.8
	.align	3
.LC15:
	.string	"_bigarray"
	.globl	caml_ba_element_size
	.comm	caml_major_work_credit,8,8
	.comm	caml_major_ring_index,4,4
	.comm	caml_major_ring,400,8
	.comm	caml_code_fragments_table,16,8
	.data
	.align	3
	.set	.LANCHOR0,. + 0
	.type	caml_ba_element_size, @object
	.size	caml_ba_element_size, 52
caml_ba_element_size:
	.word	4
	.word	8
	.word	1
	.word	1
	.word	2
	.word	2
	.word	4
	.word	8
	.word	8
	.word	8
	.word	8
	.word	16
	.word	1
	.zero	4
	.type	caml_ba_ops, @object
	.size	caml_ba_ops, 56
caml_ba_ops:
	.dword	.LC15
	.dword	caml_ba_finalize
	.dword	caml_ba_compare
	.dword	caml_ba_hash
	.dword	caml_ba_serialize
	.dword	caml_ba_deserialize
	.dword	0
	.text
.Letext0:
	.file 4 "/home/sai/Shakti-TEE-Build/riscv/lib/gcc/riscv64-unknown-elf/9.2.0/include/stddef.h"
	.file 5 "/home/sai/Shakti-TEE-Build/riscv/lib/gcc/riscv64-unknown-elf/9.2.0/include/stdarg.h"
	.file 6 "caml/config.h"
	.file 7 "caml/bigarray.h"
	.file 8 "caml/custom.h"
	.file 9 "/home/sai/ocaml-freestanding-riscv/nolibc/include/signal.h"
	.file 10 "caml/fail.h"
	.file 11 "caml/io.h"
	.file 12 "caml/intext.h"
	.file 13 "caml/freelist.h"
	.file 14 "caml/major_gc.h"
	.file 15 "caml/address_class.h"
	.file 16 "caml/minor_gc.h"
	.file 17 "caml/memory.h"
	.file 18 "caml/signals.h"
	.file 19 "/home/sai/ocaml-freestanding-riscv/nolibc/include/string.h"
	.file 20 "/home/sai/ocaml-freestanding-riscv/nolibc/include/stdlib.h"
	.file 21 "caml/alloc.h"
	.file 22 "caml/hash.h"