	.file	"memory.c"
	.option nopic
	.attribute arch, "rv64i2p0_m2p0_a2p0_f2p0_d2p0_c2p0"
	.attribute unaligned_access, 0
	.attribute stack_align, 16
	.text
.Ltext0:
	.cfi_sections	.debug_frame
	.align	1
	.type	get_pool_block, @function
get_pool_block:
.LFB30:
	.file 1 "memory.c"
	.loc 1 750 1
	.cfi_startproc
.LVL0:
	.loc 1 751 3
	.loc 1 751 6 is_stmt 0
	beq	a0,zero,.L1
.LBB9:
	.loc 1 755 5 is_stmt 1
	.loc 1 755 24 is_stmt 0
	addi	a0,a0,-16
.LVL1:
	.loc 1 760 5 is_stmt 1
.L1:
.LBE9:
	.loc 1 762 1 is_stmt 0
	ret
	.cfi_endproc
.LFE30:
	.size	get_pool_block, .-get_pool_block
	.align	1
	.globl	caml_page_table_lookup
	.type	caml_page_table_lookup, @function
caml_page_table_lookup:
.LFB8:
	.loc 1 89 1 is_stmt 1
	.cfi_startproc
.LVL2:
	.loc 1 90 3
	.loc 1 92 3
	.loc 1 92 7 is_stmt 0
	srli	a5,a0,12
	ld	a4,.LC0
	mul	a5,a5,a4
	lla	a4,.LANCHOR0
	lw	a3,8(a4)
	.loc 1 92 5
	srl	a5,a5,a3
.LVL3:
	.loc 1 94 3 is_stmt 1
	.loc 1 94 22 is_stmt 0
	ld	a1,32(a4)
	.loc 1 94 30
	slli	a4,a5,3
	add	a4,a1,a4
	.loc 1 94 5
	ld	a3,0(a4)
.LVL4:
	.loc 1 95 3 is_stmt 1
	.loc 1 95 7 is_stmt 0
	xor	a4,a0,a3
	li	a2,-4096
	and	a4,a4,a2
	.loc 1 95 6
	beq	a4,zero,.L8
.L5:
	.loc 1 96 3 is_stmt 1
	.loc 1 97 5
	.loc 1 97 8 is_stmt 0
	beq	a3,zero,.L7
	.loc 1 98 5 is_stmt 1
	.loc 1 98 12 is_stmt 0
	addi	a5,a5,1
.LVL5:
	.loc 1 98 34
	ld	a4,.LANCHOR0+16
	.loc 1 98 7
	and	a5,a5,a4
.LVL6:
	.loc 1 99 5 is_stmt 1
	.loc 1 99 32 is_stmt 0
	slli	a4,a5,3
	add	a4,a1,a4
	.loc 1 99 7
	ld	a3,0(a4)
.LVL7:
	.loc 1 100 5 is_stmt 1
	.loc 1 100 9 is_stmt 0
	xor	a4,a0,a3
	li	a2,-4096
	and	a4,a4,a2
	.loc 1 100 8
	bne	a4,zero,.L5
	.loc 1 100 47 is_stmt 1 discriminator 1
	.loc 1 100 56 is_stmt 0 discriminator 1
	andi	a0,a3,0xff
.LVL8:
	ret
.LVL9:
.L8:
	.loc 1 95 45 is_stmt 1 discriminator 1
	.loc 1 95 54 is_stmt 0 discriminator 1
	andi	a0,a3,0xff
.LVL10:
	ret
.LVL11:
.L7:
	.loc 1 97 24
	li	a0,0
.LVL12:
	.loc 1 102 1
	ret
	.cfi_endproc
.LFE8:
	.size	caml_page_table_lookup, .-caml_page_table_lookup
	.align	1
	.globl	caml_init_alloc_for_heap
	.type	caml_init_alloc_for_heap, @function
caml_init_alloc_for_heap:
.LFB14:
	.loc 1 248 1 is_stmt 1
	.cfi_startproc
	.loc 1 249 3
	.loc 1 250 1 is_stmt 0
	li	a0,0
	ret
	.cfi_endproc
.LFE14:
	.size	caml_init_alloc_for_heap, .-caml_init_alloc_for_heap
	.align	1
	.globl	caml_disown_for_heap
	.type	caml_disown_for_heap, @function
caml_disown_for_heap:
.LFB16:
	.loc 1 297 1 is_stmt 1
	.cfi_startproc
.LVL13:
	.loc 1 299 3
	.loc 1 300 1 is_stmt 0
	ret
	.cfi_endproc
.LFE16:
	.size	caml_disown_for_heap, .-caml_disown_for_heap
	.align	1
	.globl	caml_allocation_color
	.type	caml_allocation_color, @function
caml_allocation_color:
.LFB21:
	.loc 1 468 1 is_stmt 1
	.cfi_startproc
.LVL14:
	.loc 1 469 3
	.loc 1 469 35 is_stmt 0
	lw	a5,caml_gc_phase
	sext.w	a3,a5
	.loc 1 469 6
	li	a4,1
	bleu	a3,a4,.L13
	.loc 1 470 7
	li	a4,2
	bne	a5,a4,.L14
	.loc 1 470 52 discriminator 1
	ld	a5,caml_gc_sweep_hp
	.loc 1 470 40 discriminator 1
	bleu	a5,a0,.L15
	.loc 1 476 12
	li	a0,0
.LVL15:
	ret
.LVL16:
.L13:
	.loc 1 471 12
	li	a0,768
.LVL17:
	ret
.LVL18:
.L14:
	.loc 1 476 12
	li	a0,0
.LVL19:
	ret
.LVL20:
.L15:
	.loc 1 471 12
	li	a0,768
.LVL21:
	.loc 1 478 1
	ret
	.cfi_endproc
.LFE21:
	.size	caml_allocation_color, .-caml_allocation_color
	.align	1
	.globl	caml_alloc_dependent_memory
	.type	caml_alloc_dependent_memory, @function
caml_alloc_dependent_memory:
.LFB25:
	.loc 1 589 1 is_stmt 1
	.cfi_startproc
.LVL22:
	.loc 1 590 3
	.loc 1 590 33 is_stmt 0
	srli	a0,a0,3
.LVL23:
	.loc 1 590 23
	lla	a4,caml_dependent_size
	ld	a5,0(a4)
	add	a5,a5,a0
	sd	a5,0(a4)
	.loc 1 591 3 is_stmt 1
	.loc 1 591 28 is_stmt 0
	lla	a4,caml_dependent_allocated
	ld	a5,0(a4)
	add	a0,a5,a0
	sd	a0,0(a4)
	.loc 1 592 1
	ret
	.cfi_endproc
.LFE25:
	.size	caml_alloc_dependent_memory, .-caml_alloc_dependent_memory
	.align	1
	.globl	caml_free_dependent_memory
	.type	caml_free_dependent_memory, @function
caml_free_dependent_memory:
.LFB26:
	.loc 1 595 1 is_stmt 1
	.cfi_startproc
.LVL24:
	.loc 1 596 3
	.loc 1 596 36 is_stmt 0
	srli	a0,a0,3
.LVL25:
	.loc 1 596 27
	ld	a5,caml_dependent_size
	.loc 1 596 6
	bleu	a0,a5,.L18
	.loc 1 597 5 is_stmt 1
	.loc 1 597 25 is_stmt 0
	sd	zero,caml_dependent_size,a5
	ret
.L18:
	.loc 1 599 5 is_stmt 1
	.loc 1 599 25 is_stmt 0
	sub	a0,a5,a0
	sd	a0,caml_dependent_size,a5
	.loc 1 601 1
	ret
	.cfi_endproc
.LFE26:
	.size	caml_free_dependent_memory, .-caml_free_dependent_memory
	.align	1
	.globl	caml_adjust_gc_speed
	.type	caml_adjust_gc_speed, @function
caml_adjust_gc_speed:
.LFB27:
	.loc 1 612 1 is_stmt 1
	.cfi_startproc
.LVL26:
	addi	sp,sp,-16
	.cfi_def_cfa_offset 16
	sd	ra,8(sp)
	.cfi_offset 1, -8
	.loc 1 613 3
	.loc 1 613 6 is_stmt 0
	bne	a1,zero,.L21
	.loc 1 613 21
	li	a1,1
.LVL27:
.L21:
	.loc 1 614 3 is_stmt 1
	.loc 1 614 6 is_stmt 0
	bgeu	a1,a0,.L22
	.loc 1 614 22
	mv	a0,a1
.LVL28:
.L22:
	.loc 1 615 3 is_stmt 1
	.loc 1 615 32 is_stmt 0
	fcvt.d.lu	fa5,a0
	.loc 1 615 47
	fcvt.d.lu	fa4,a1
	.loc 1 615 45
	fdiv.d	fa5,fa5,fa4
	.loc 1 615 29
	lla	a5,caml_extra_heap_resources
	fld	fa4,0(a5)
	fadd.d	fa5,fa5,fa4
	fsd	fa5,0(a5)
	.loc 1 616 3 is_stmt 1
	.loc 1 616 6 is_stmt 0
	fld	fa4,.LC1,a5
	fgt.d	a0,fa5,fa4
.LVL29:
	bne	a0,zero,.L32
.LVL30:
.L23:
	.loc 1 621 3 is_stmt 1
	.loc 1 622 14 is_stmt 0
	ld	a5,caml_minor_heap_wsz
	fcvt.d.lu	fa5,a5
	.loc 1 622 43
	fld	fa4,.LC2,a5
	fmul.d	fa5,fa5,fa4
	.loc 1 623 16
	ld	a5,caml_stat_heap_wsz
	fcvt.d.l	fa4,a5
	.loc 1 623 14
	fdiv.d	fa5,fa5,fa4
	.loc 1 622 12
	fld	fa4,caml_extra_heap_resources,a5
	.loc 1 621 6
	flt.d	a5,fa5,fa4
	bne	a5,zero,.L33
.L20:
	.loc 1 627 1
	ld	ra,8(sp)
	.cfi_remember_state
	.cfi_restore 1
	addi	sp,sp,16
	.cfi_def_cfa_offset 0
	jr	ra
.LVL31:
.L32:
	.cfi_restore_state
	.loc 1 617 59 is_stmt 1
	.loc 1 618 5
	.loc 1 618 31 is_stmt 0
	fsd	fa4,caml_extra_heap_resources,a5
	.loc 1 619 5 is_stmt 1
	call	caml_request_major_slice
.LVL32:
	j	.L23
.L33:
	.loc 1 624 59
	.loc 1 625 5
	call	caml_request_major_slice
.LVL33:
	.loc 1 627 1 is_stmt 0
	j	.L20
	.cfi_endproc
.LFE27:
	.size	caml_adjust_gc_speed, .-caml_adjust_gc_speed
	.align	1
	.weak	caml_initialize
	.type	caml_initialize, @function
caml_initialize:
.LFB28:
	.loc 1 638 1 is_stmt 1
	.cfi_startproc
.LVL34:
	addi	sp,sp,-16
	.cfi_def_cfa_offset 16
	sd	ra,8(sp)
	sd	s0,0(sp)
	.cfi_offset 1, -8
	.cfi_offset 8, -16
	mv	s0,a0
	.loc 1 639 3
	.loc 1 640 3
	.loc 1 640 7 is_stmt 0
	sd	a1,0(a0)
	.loc 1 641 3 is_stmt 1
	.loc 1 641 8 is_stmt 0
	ld	a5,caml_young_end
	bleu	a5,a0,.L35
	.loc 1 641 8 discriminator 1
	ld	a4,caml_young_start
	bltu	a4,a0,.L34
.L35:
	.loc 1 641 31
	andi	a4,a1,1
	.loc 1 641 28
	bne	a4,zero,.L34
	.loc 1 641 49 discriminator 8
	bleu	a5,a1,.L34
	.loc 1 641 49 discriminator 9
	ld	a5,caml_young_start
	bleu	a1,a5,.L34
	.loc 1 642 5 is_stmt 1
.LVL35:
.LBB10:
.LBB11:
	.file 2 "caml/minor_gc.h"
	.loc 2 85 3
	.loc 2 85 10 is_stmt 0
	lla	a5,caml_ref_table
	ld	a4,24(a5)
	.loc 2 85 22
	ld	a5,32(a5)
	.loc 2 85 6
	bgeu	a4,a5,.L39
.LVL36:
.L37:
	.loc 2 89 3 is_stmt 1
	.loc 2 89 7 is_stmt 0
	lla	a4,caml_ref_table
	ld	a5,24(a4)
	.loc 2 89 12
	addi	a3,a5,8
	sd	a3,24(a4)
	.loc 2 89 15
	sd	s0,0(a5)
.LVL37:
.L34:
.LBE11:
.LBE10:
	.loc 1 644 1
	ld	ra,8(sp)
	.cfi_remember_state
	.cfi_restore 1
	ld	s0,0(sp)
	.cfi_restore 8
.LVL38:
	addi	sp,sp,16
	.cfi_def_cfa_offset 0
	jr	ra
.LVL39:
.L39:
	.cfi_restore_state
.LBB13:
.LBB12:
	.loc 2 86 5 is_stmt 1
	.loc 2 87 5
	lla	a0,caml_ref_table
	call	caml_realloc_ref_table
.LVL40:
	j	.L37
.LBE12:
.LBE13:
	.cfi_endproc
.LFE28:
	.size	caml_initialize, .-caml_initialize
	.align	1
	.weak	caml_modify
	.type	caml_modify, @function
caml_modify:
.LFB29:
	.loc 1 658 1
	.cfi_startproc
.LVL41:
	addi	sp,sp,-32
	.cfi_def_cfa_offset 32
	sd	ra,24(sp)
	sd	s0,16(sp)
	sd	s1,8(sp)
	.cfi_offset 1, -8
	.cfi_offset 8, -16
	.cfi_offset 9, -24
	mv	s0,a0
	mv	s1,a1
	.loc 1 668 3
	.loc 1 670 3
	.loc 1 670 7 is_stmt 0
	ld	a5,caml_young_end
	bleu	a5,a0,.L41
	.loc 1 670 7 discriminator 1
	ld	a5,caml_young_start
	bgeu	a5,a0,.L41
	.loc 1 673 5 is_stmt 1
	.loc 1 673 9 is_stmt 0
	sd	a1,0(s0)
.LVL42:
.L40:
	.loc 1 693 1
	ld	ra,24(sp)
	.cfi_remember_state
	.cfi_restore 1
	ld	s0,16(sp)
	.cfi_restore 8
.LVL43:
	ld	s1,8(sp)
	.cfi_restore 9
.LVL44:
	addi	sp,sp,32
	.cfi_def_cfa_offset 0
	jr	ra
.LVL45:
.L41:
	.cfi_restore_state
	.loc 1 676 5 is_stmt 1
	.loc 1 677 5
	.loc 1 677 9 is_stmt 0
	ld	a0,0(s0)
.LVL46:
	.loc 1 678 5 is_stmt 1
	.loc 1 678 9 is_stmt 0
	sd	s1,0(s0)
	.loc 1 679 5 is_stmt 1
	.loc 1 679 9 is_stmt 0
	andi	a5,a0,1
	.loc 1 679 8
	bne	a5,zero,.L43
	.loc 1 683 7 is_stmt 1
	.loc 1 683 11 is_stmt 0
	ld	a5,caml_young_end
	bgeu	a0,a5,.L44
	.loc 1 683 11 discriminator 1
	ld	a5,caml_young_start
	bgtu	a0,a5,.L40
.L44:
	.loc 1 686 7 is_stmt 1
	.loc 1 686 25 is_stmt 0
	lw	a5,caml_gc_phase
	.loc 1 686 10
	beq	a5,zero,.L47
.LVL47:
.L43:
	.loc 1 689 5 is_stmt 1
	.loc 1 689 9 is_stmt 0
	andi	a5,s1,1
	.loc 1 689 8
	bne	a5,zero,.L40
	.loc 1 689 26 discriminator 1
	ld	a5,caml_young_end
	bgeu	s1,a5,.L40
	.loc 1 689 26 discriminator 2
	ld	a5,caml_young_start
	bleu	s1,a5,.L40
	.loc 1 690 7 is_stmt 1
.LVL48:
.LBB14:
.LBB15:
	.loc 2 85 3
	.loc 2 85 10 is_stmt 0
	lla	a5,caml_ref_table
	ld	a4,24(a5)
	.loc 2 85 22
	ld	a5,32(a5)
	.loc 2 85 6
	bgeu	a4,a5,.L48
.L45:
	.loc 2 89 3 is_stmt 1
	.loc 2 89 7 is_stmt 0
	lla	a4,caml_ref_table
	ld	a5,24(a4)
	.loc 2 89 12
	addi	a3,a5,8
	sd	a3,24(a4)
	.loc 2 89 15
	sd	s0,0(a5)
.LVL49:
	.loc 2 90 1
	j	.L40
.LVL50:
.L47:
.LBE15:
.LBE14:
	.loc 1 686 40 is_stmt 1 discriminator 1
	li	a1,0
	call	caml_darken
.LVL51:
	j	.L43
.LVL52:
.L48:
.LBB17:
.LBB16:
	.loc 2 86 5
	.loc 2 87 5
	lla	a0,caml_ref_table
	call	caml_realloc_ref_table
.LVL53:
	j	.L45
.LBE16:
.LBE17:
	.cfi_endproc
.LFE29:
	.size	caml_modify, .-caml_modify
	.section	.rodata.str1.8,"aMS",@progbits,1
	.align	3
.LC3:
	.string	"Fatal error: out of memory.\n"
	.text
	.align	1
	.globl	caml_stat_create_pool
	.type	caml_stat_create_pool, @function
caml_stat_create_pool:
.LFB31:
	.loc 1 765 1
	.cfi_startproc
	.loc 1 766 3
	.loc 1 766 12 is_stmt 0
	ld	a5,pool
	.loc 1 766 6
	beq	a5,zero,.L56
	ret
.L56:
	.loc 1 765 1
	addi	sp,sp,-16
	.cfi_def_cfa_offset 16
	sd	ra,8(sp)
	.cfi_offset 1, -8
	.loc 1 767 5 is_stmt 1
	.loc 1 767 12 is_stmt 0
	li	a0,16
	call	malloc
.LVL54:
	.loc 1 767 10
	sd	a0,pool,a5
	.loc 1 768 5 is_stmt 1
	.loc 1 768 8 is_stmt 0
	beq	a0,zero,.L57
	.loc 1 773 5 is_stmt 1
	.loc 1 773 16 is_stmt 0
	sd	a0,0(a0)
	.loc 1 774 5 is_stmt 1
	.loc 1 774 16 is_stmt 0
	sd	a0,8(a0)
	.loc 1 776 1
	ld	ra,8(sp)
	.cfi_remember_state
	.cfi_restore 1
	addi	sp,sp,16
	.cfi_def_cfa_offset 0
	jr	ra
.L57:
	.cfi_restore_state
	.loc 1 769 7 is_stmt 1
	lla	a0,.LC3
	call	caml_fatal_error
.LVL55:
	.cfi_endproc
.LFE31:
	.size	caml_stat_create_pool, .-caml_stat_create_pool
	.align	1
	.globl	caml_stat_destroy_pool
	.type	caml_stat_destroy_pool, @function
caml_stat_destroy_pool:
.LFB32:
	.loc 1 779 1
	.cfi_startproc
	.loc 1 780 3
	.loc 1 780 12 is_stmt 0
	ld	a5,pool
	.loc 1 780 6
	beq	a5,zero,.L63
	.loc 1 781 5 is_stmt 1
	.loc 1 781 9 is_stmt 0
	ld	a5,8(a5)
	.loc 1 781 22
	sd	zero,0(a5)
	.loc 1 782 5 is_stmt 1
	.loc 1 782 11
	.loc 1 782 17 is_stmt 0
	ld	a0,pool
	.loc 1 782 11
	beq	a0,zero,.L68
	.loc 1 779 1
	addi	sp,sp,-16
	.cfi_def_cfa_offset 16
	sd	ra,8(sp)
	sd	s0,0(sp)
	.cfi_offset 1, -8
	.cfi_offset 8, -16
.L61:
.LBB18:
	.loc 1 783 7 is_stmt 1
	.loc 1 783 26 is_stmt 0
	ld	s0,0(a0)
.LVL56:
	.loc 1 784 7 is_stmt 1
	call	free
.LVL57:
	.loc 1 785 7
	.loc 1 785 12 is_stmt 0
	sd	s0,pool,a5
.LBE18:
	.loc 1 782 11 is_stmt 1
	.loc 1 782 17 is_stmt 0
	ld	a0,pool
	.loc 1 782 11
	bne	a0,zero,.L61
	.loc 1 787 5 is_stmt 1
	.loc 1 787 10 is_stmt 0
	sd	zero,pool,a5
	.loc 1 789 1
	ld	ra,8(sp)
	.cfi_restore 1
	ld	s0,0(sp)
	.cfi_restore 8
.LVL58:
	addi	sp,sp,16
	.cfi_def_cfa_offset 0
	jr	ra
.LVL59:
.L68:
	.loc 1 787 5 is_stmt 1
	.loc 1 787 10 is_stmt 0
	sd	zero,pool,a5
	ret
.L63:
	ret
	.cfi_endproc
.LFE32:
	.size	caml_stat_destroy_pool, .-caml_stat_destroy_pool
	.align	1
	.globl	caml_stat_alloc_noexc
	.type	caml_stat_alloc_noexc, @function
caml_stat_alloc_noexc:
.LFB35:
	.loc 1 831 1 is_stmt 1
	.cfi_startproc
.LVL60:
	addi	sp,sp,-16
	.cfi_def_cfa_offset 16
	sd	ra,8(sp)
	sd	s0,0(sp)
	.cfi_offset 1, -8
	.cfi_offset 8, -16
	.loc 1 833 3
	.loc 1 833 12 is_stmt 0
	ld	s0,pool
	.loc 1 833 6
	beq	s0,zero,.L73
.LBB19:
	.loc 1 836 5 is_stmt 1
	.loc 1 836 29 is_stmt 0
	addi	a0,a0,16
.LVL61:
	call	malloc
.LVL62:
	.loc 1 837 5 is_stmt 1
	.loc 1 837 8 is_stmt 0
	beq	a0,zero,.L69
	.loc 1 844 5 is_stmt 1
	.loc 1 844 20 is_stmt 0
	ld	a5,0(s0)
	.loc 1 844 14
	sd	a5,0(a0)
	.loc 1 845 5 is_stmt 1
	.loc 1 845 14 is_stmt 0
	sd	s0,8(a0)
	.loc 1 846 5 is_stmt 1
	.loc 1 846 9 is_stmt 0
	ld	a5,0(s0)
	.loc 1 846 22
	sd	a0,8(a5)
	.loc 1 847 5 is_stmt 1
	.loc 1 847 16 is_stmt 0
	sd	a0,0(s0)
	.loc 1 849 5 is_stmt 1
	.loc 1 849 12 is_stmt 0
	addi	a0,a0,16
.LVL63:
.L69:
.LBE19:
	.loc 1 851 1
	ld	ra,8(sp)
	.cfi_remember_state
	.cfi_restore 1
	ld	s0,0(sp)
	.cfi_restore 8
	addi	sp,sp,16
	.cfi_def_cfa_offset 0
	jr	ra
.LVL64:
.L73:
	.cfi_restore_state
	.loc 1 834 5 is_stmt 1
	.loc 1 834 12 is_stmt 0
	call	malloc
.LVL65:
	j	.L69
	.cfi_endproc
.LFE35:
	.size	caml_stat_alloc_noexc, .-caml_stat_alloc_noexc
	.align	1
	.globl	caml_stat_alloc_aligned_noexc
	.type	caml_stat_alloc_aligned_noexc, @function
caml_stat_alloc_aligned_noexc:
.LFB33:
	.loc 1 794 1 is_stmt 1
	.cfi_startproc
.LVL66:
	addi	sp,sp,-32
	.cfi_def_cfa_offset 32
	sd	ra,24(sp)
	sd	s0,16(sp)
	sd	s1,8(sp)
	.cfi_offset 1, -8
	.cfi_offset 8, -16
	.cfi_offset 9, -24
	mv	s0,a1
	mv	s1,a2
	.loc 1 795 3
	.loc 1 796 3
	.loc 1 797 3
	.loc 1 798 3
	.loc 1 798 22 is_stmt 0
	li	a5,4096
	add	a0,a0,a5
.LVL67:
	call	caml_stat_alloc_noexc
.LVL68:
	.loc 1 799 3 is_stmt 1
	.loc 1 799 6 is_stmt 0
	beq	a0,zero,.L74
	.loc 1 800 3 is_stmt 1
	.loc 1 800 6 is_stmt 0
	sd	a0,0(s1)
	.loc 1 801 3 is_stmt 1
	.loc 1 801 11 is_stmt 0
	add	a0,a0,s0
.LVL69:
	.loc 1 802 3 is_stmt 1
	.loc 1 802 37 is_stmt 0
	srli	a0,a0,12
.LVL70:
	.loc 1 802 49
	addi	a0,a0,1
	.loc 1 802 15
	slli	a0,a0,12
.LVL71:
	.loc 1 815 3 is_stmt 1
	.loc 1 815 32 is_stmt 0
	sub	a0,a0,s0
.LVL72:
.L74:
	.loc 1 816 1
	ld	ra,24(sp)
	.cfi_restore 1
	ld	s0,16(sp)
	.cfi_restore 8
	ld	s1,8(sp)
	.cfi_restore 9
.LVL73:
	addi	sp,sp,32
	.cfi_def_cfa_offset 0
	jr	ra
	.cfi_endproc
.LFE33:
	.size	caml_stat_alloc_aligned_noexc, .-caml_stat_alloc_aligned_noexc
	.align	1
	.globl	caml_alloc_for_heap
	.type	caml_alloc_for_heap, @function
caml_alloc_for_heap:
.LFB15:
	.loc 1 262 1 is_stmt 1
	.cfi_startproc
.LVL74:
	.loc 1 263 3
	.loc 1 263 7 is_stmt 0
	ld	a5,caml_use_huge_pages
	.loc 1 263 6
	bne	a5,zero,.L80
	.loc 1 262 1
	addi	sp,sp,-32
	.cfi_def_cfa_offset 32
	sd	ra,24(sp)
	sd	s0,16(sp)
	.cfi_offset 1, -8
	.cfi_offset 8, -16
.LBB20:
	.loc 1 279 5 is_stmt 1
	.loc 1 280 5
	.loc 1 282 5
	.loc 1 282 37 is_stmt 0
	li	s0,4096
	addi	s0,s0,-1
	add	a0,a0,s0
.LVL75:
	.loc 1 282 13
	li	s0,-4096
	and	s0,a0,s0
.LVL76:
	.loc 1 283 5 is_stmt 1
	.loc 1 283 11 is_stmt 0
	addi	a2,sp,8
	li	a1,32
	addi	a0,s0,32
	call	caml_stat_alloc_aligned_noexc
.LVL77:
	mv	a5,a0
.LVL78:
	.loc 1 285 5 is_stmt 1
	.loc 1 285 8 is_stmt 0
	beq	a0,zero,.L77
	.loc 1 286 5 is_stmt 1
	.loc 1 286 9 is_stmt 0
	addi	a0,a0,32
.LVL79:
	.loc 1 287 5 is_stmt 1
	.loc 1 287 22 is_stmt 0
	sd	s0,16(a5)
	.loc 1 288 5 is_stmt 1
	.loc 1 288 23 is_stmt 0
	ld	a4,8(sp)
	sd	a4,0(a5)
	.loc 1 289 5 is_stmt 1
.L77:
.LBE20:
	.loc 1 291 1 is_stmt 0
	ld	ra,24(sp)
	.cfi_restore 1
	ld	s0,16(sp)
	.cfi_restore 8
.LVL80:
	addi	sp,sp,32
	.cfi_def_cfa_offset 0
	jr	ra
.LVL81:
.L80:
	.loc 1 276 12
	li	a0,0
.LVL82:
	.loc 1 291 1
	ret
	.cfi_endproc
.LFE15:
	.size	caml_alloc_for_heap, .-caml_alloc_for_heap
	.align	1
	.globl	caml_stat_alloc_aligned
	.type	caml_stat_alloc_aligned, @function
caml_stat_alloc_aligned:
.LFB34:
	.loc 1 821 1 is_stmt 1
	.cfi_startproc
.LVL83:
	addi	sp,sp,-16
	.cfi_def_cfa_offset 16
	sd	ra,8(sp)
	sd	s0,0(sp)
	.cfi_offset 1, -8
	.cfi_offset 8, -16
	mv	s0,a0
	.loc 1 822 3
	.loc 1 822 18 is_stmt 0
	call	caml_stat_alloc_aligned_noexc
.LVL84:
	.loc 1 824 3 is_stmt 1
	.loc 1 824 6 is_stmt 0
	beq	a0,zero,.L89
.L86:
	.loc 1 827 1
	ld	ra,8(sp)
	.cfi_remember_state
	.cfi_restore 1
	ld	s0,0(sp)
	.cfi_restore 8
.LVL85:
	addi	sp,sp,16
	.cfi_def_cfa_offset 0
	jr	ra
.LVL86:
.L89:
	.cfi_restore_state
	.loc 1 824 24 discriminator 1
	beq	s0,zero,.L86
	.loc 1 825 5 is_stmt 1
	call	caml_raise_out_of_memory
.LVL87:
	.cfi_endproc
.LFE34:
	.size	caml_stat_alloc_aligned, .-caml_stat_alloc_aligned
	.align	1
	.globl	caml_stat_alloc
	.type	caml_stat_alloc, @function
caml_stat_alloc:
.LFB36:
	.loc 1 855 1
	.cfi_startproc
.LVL88:
	addi	sp,sp,-16
	.cfi_def_cfa_offset 16
	sd	ra,8(sp)
	sd	s0,0(sp)
	.cfi_offset 1, -8
	.cfi_offset 8, -16
	mv	s0,a0
	.loc 1 856 3
	.loc 1 856 18 is_stmt 0
	call	caml_stat_alloc_noexc
.LVL89:
	.loc 1 858 3 is_stmt 1
	.loc 1 858 6 is_stmt 0
	beq	a0,zero,.L93
.L90:
	.loc 1 861 1
	ld	ra,8(sp)
	.cfi_remember_state
	.cfi_restore 1
	ld	s0,0(sp)
	.cfi_restore 8
.LVL90:
	addi	sp,sp,16
	.cfi_def_cfa_offset 0
	jr	ra
.LVL91:
.L93:
	.cfi_restore_state
	.loc 1 858 24 discriminator 1
	beq	s0,zero,.L90
	.loc 1 859 5 is_stmt 1
	call	caml_raise_out_of_memory
.LVL92:
	.cfi_endproc
.LFE36:
	.size	caml_stat_alloc, .-caml_stat_alloc
	.align	1
	.globl	caml_stat_free
	.type	caml_stat_free, @function
caml_stat_free:
.LFB37:
	.loc 1 864 1
	.cfi_startproc
.LVL93:
	addi	sp,sp,-16
	.cfi_def_cfa_offset 16
	sd	ra,8(sp)
	.cfi_offset 1, -8
	.loc 1 866 3
	.loc 1 866 12 is_stmt 0
	ld	a5,pool
	.loc 1 866 6
	beq	a5,zero,.L98
.LBB21:
	.loc 1 869 5 is_stmt 1
	.loc 1 869 29 is_stmt 0
	call	get_pool_block
.LVL94:
	.loc 1 870 5 is_stmt 1
	.loc 1 870 8 is_stmt 0
	beq	a0,zero,.L94
	.loc 1 873 5 is_stmt 1
	.loc 1 873 7 is_stmt 0
	ld	a4,8(a0)
	.loc 1 873 24
	ld	a5,0(a0)
	.loc 1 873 20
	sd	a5,0(a4)
	.loc 1 874 5 is_stmt 1
	.loc 1 874 24 is_stmt 0
	ld	a4,8(a0)
	.loc 1 874 20
	sd	a4,8(a5)
	.loc 1 876 5 is_stmt 1
	call	free
.LVL95:
.L94:
.LBE21:
	.loc 1 878 1 is_stmt 0
	ld	ra,8(sp)
	.cfi_remember_state
	.cfi_restore 1
	addi	sp,sp,16
	.cfi_def_cfa_offset 0
	jr	ra
.LVL96:
.L98:
	.cfi_restore_state
	.loc 1 867 5 is_stmt 1
	call	free
.LVL97:
	j	.L94
	.cfi_endproc
.LFE37:
	.size	caml_stat_free, .-caml_stat_free
	.align	1
	.globl	caml_free_for_heap
	.type	caml_free_for_heap, @function
caml_free_for_heap:
.LFB17:
	.loc 1 306 1
	.cfi_startproc
.LVL98:
	.loc 1 307 3
	.loc 1 307 7 is_stmt 0
	ld	a5,caml_use_huge_pages
	.loc 1 307 6
	beq	a5,zero,.L105
	ret
.L105:
	.loc 1 306 1
	addi	sp,sp,-16
	.cfi_def_cfa_offset 16
	sd	ra,8(sp)
	.cfi_offset 1, -8
	.loc 1 314 5 is_stmt 1
	ld	a0,-32(a0)
.LVL99:
	call	caml_stat_free
.LVL100:
	.loc 1 316 1 is_stmt 0
	ld	ra,8(sp)
	.cfi_restore 1
	addi	sp,sp,16
	.cfi_def_cfa_offset 0
	jr	ra
	.cfi_endproc
.LFE17:
	.size	caml_free_for_heap, .-caml_free_for_heap
	.align	1
	.globl	caml_stat_resize_noexc
	.type	caml_stat_resize_noexc, @function
caml_stat_resize_noexc:
.LFB38:
	.loc 1 882 1 is_stmt 1
	.cfi_startproc
.LVL101:
	addi	sp,sp,-16
	.cfi_def_cfa_offset 16
	sd	ra,8(sp)
	sd	s0,0(sp)
	.cfi_offset 1, -8
	.cfi_offset 8, -16
	mv	s0,a1
	.loc 1 884 3
	.loc 1 884 12 is_stmt 0
	ld	a5,pool
	.loc 1 884 6
	beq	a5,zero,.L110
.LBB22:
	.loc 1 887 5 is_stmt 1
	.loc 1 887 29 is_stmt 0
	call	get_pool_block
.LVL102:
	.loc 1 888 5 is_stmt 1
	.loc 1 888 33 is_stmt 0
	addi	a1,s0,16
	call	realloc
.LVL103:
	.loc 1 889 5 is_stmt 1
	.loc 1 889 8 is_stmt 0
	beq	a0,zero,.L106
	.loc 1 892 5 is_stmt 1
	.loc 1 892 11 is_stmt 0
	ld	a5,8(a0)
	.loc 1 892 24
	sd	a0,0(a5)
	.loc 1 893 5 is_stmt 1
	.loc 1 893 11 is_stmt 0
	ld	a5,0(a0)
	.loc 1 893 24
	sd	a0,8(a5)
	.loc 1 895 5 is_stmt 1
	.loc 1 895 12 is_stmt 0
	addi	a0,a0,16
.LVL104:
.L106:
.LBE22:
	.loc 1 897 1
	ld	ra,8(sp)
	.cfi_remember_state
	.cfi_restore 1
	ld	s0,0(sp)
	.cfi_restore 8
.LVL105:
	addi	sp,sp,16
	.cfi_def_cfa_offset 0
	jr	ra
.LVL106:
.L110:
	.cfi_restore_state
	.loc 1 885 5 is_stmt 1
	.loc 1 885 12 is_stmt 0
	call	realloc
.LVL107:
	j	.L106
	.cfi_endproc
.LFE38:
	.size	caml_stat_resize_noexc, .-caml_stat_resize_noexc
	.align	1
	.globl	caml_stat_resize
	.type	caml_stat_resize, @function
caml_stat_resize:
.LFB39:
	.loc 1 901 1 is_stmt 1
	.cfi_startproc
.LVL108:
	addi	sp,sp,-16
	.cfi_def_cfa_offset 16
	sd	ra,8(sp)
	.cfi_offset 1, -8
	.loc 1 902 3
	.loc 1 902 18 is_stmt 0
	call	caml_stat_resize_noexc
.LVL109:
	.loc 1 903 3 is_stmt 1
	.loc 1 903 6 is_stmt 0
	beq	a0,zero,.L114
	.loc 1 906 1
	ld	ra,8(sp)
	.cfi_remember_state
	.cfi_restore 1
	addi	sp,sp,16
	.cfi_def_cfa_offset 0
	jr	ra
.L114:
	.cfi_restore_state
	.loc 1 904 5 is_stmt 1
	call	caml_raise_out_of_memory
.LVL110:
	.cfi_endproc
.LFE39:
	.size	caml_stat_resize, .-caml_stat_resize
	.align	1
	.globl	caml_stat_calloc_noexc
	.type	caml_stat_calloc_noexc, @function
caml_stat_calloc_noexc:
.LFB40:
	.loc 1 910 1
	.cfi_startproc
.LVL111:
	addi	sp,sp,-32
	.cfi_def_cfa_offset 32
	sd	ra,24(sp)
	sd	s0,16(sp)
	sd	s1,8(sp)
	.cfi_offset 1, -8
	.cfi_offset 8, -16
	.cfi_offset 9, -24
	.loc 1 911 3
	.loc 1 912 3
.LVL112:
.LBB23:
.LBB24:
	.file 3 "caml/misc.h"
	.loc 3 162 3
	.loc 3 162 10 is_stmt 0
	li	a5,0
	mul	s1,a1,a0
	mulhu	a1,a1,a0
.LVL113:
	bne	a1,zero,.L122
.L116:
.LVL114:
.LBE24:
.LBE23:
	.loc 1 912 6
	bne	a5,zero,.L120
.LBB26:
	.loc 1 915 5 is_stmt 1
	.loc 1 915 30 is_stmt 0
	mv	a0,s1
.LVL115:
	call	caml_stat_alloc_noexc
.LVL116:
	mv	s0,a0
.LVL117:
	.loc 1 916 5 is_stmt 1
	.loc 1 916 8 is_stmt 0
	beq	a0,zero,.L115
	.loc 1 917 7 is_stmt 1
	mv	a2,s1
	li	a1,0
	call	memset
.LVL118:
	.loc 1 918 5
	.loc 1 918 12 is_stmt 0
	j	.L115
.LVL119:
.L122:
.LBE26:
.LBB27:
.LBB25:
	.loc 3 162 10
	li	a5,1
	j	.L116
.LVL120:
.L120:
.LBE25:
.LBE27:
	.loc 1 913 12
	li	s0,0
.LVL121:
.L115:
	.loc 1 920 1
	mv	a0,s0
	ld	ra,24(sp)
	.cfi_restore 1
	ld	s0,16(sp)
	.cfi_restore 8
	ld	s1,8(sp)
	.cfi_restore 9
	addi	sp,sp,32
	.cfi_def_cfa_offset 0
	jr	ra
	.cfi_endproc
.LFE40:
	.size	caml_stat_calloc_noexc, .-caml_stat_calloc_noexc
	.align	1
	.globl	caml_page_table_initialize
	.type	caml_page_table_initialize, @function
caml_page_table_initialize:
.LFB9:
	.loc 1 105 1 is_stmt 1
	.cfi_startproc
.LVL122:
	addi	sp,sp,-16
	.cfi_def_cfa_offset 16
	sd	ra,8(sp)
	sd	s0,0(sp)
	.cfi_offset 1, -8
	.cfi_offset 8, -16
	.loc 1 106 3
	.loc 1 106 11 is_stmt 0
	srli	a3,a0,12
.LVL123:
	.loc 1 108 3 is_stmt 1
	.loc 1 108 24 is_stmt 0
	lla	a5,.LANCHOR0
	li	a4,1
	sd	a4,0(a5)
	.loc 1 109 3 is_stmt 1
	.loc 1 109 25 is_stmt 0
	li	a4,64
	sw	a4,8(a5)
	.loc 1 111 3 is_stmt 1
.LVL124:
.L124:
	.loc 1 111 9
	.loc 1 111 25 is_stmt 0
	ld	a0,.LANCHOR0
	.loc 1 111 35
	slli	a5,a3,1
	.loc 1 111 9
	bgeu	a0,a5,.L129
	.loc 1 112 5 is_stmt 1
	.loc 1 112 26 is_stmt 0
	lla	a5,.LANCHOR0
	slli	a0,a0,1
	sd	a0,0(a5)
	.loc 1 113 5 is_stmt 1
	.loc 1 113 27 is_stmt 0
	lw	a4,8(a5)
	addiw	a4,a4,-1
	sw	a4,8(a5)
	j	.L124
.L129:
	.loc 1 115 3 is_stmt 1
	.loc 1 115 47 is_stmt 0
	addi	a5,a0,-1
	.loc 1 115 24
	lla	s0,.LANCHOR0
	sd	a5,16(s0)
	.loc 1 116 3 is_stmt 1
	.loc 1 116 29 is_stmt 0
	sd	zero,24(s0)
	.loc 1 117 3 is_stmt 1
	.loc 1 118 5 is_stmt 0
	li	a1,8
	call	caml_stat_calloc_noexc
.LVL125:
	.loc 1 117 27
	sd	a0,32(s0)
	.loc 1 119 3 is_stmt 1
	.loc 1 119 6 is_stmt 0
	beq	a0,zero,.L130
	.loc 1 122 12
	li	a0,0
.L126:
	.loc 1 123 1
	ld	ra,8(sp)
	.cfi_remember_state
	.cfi_restore 1
	ld	s0,0(sp)
	.cfi_restore 8
	addi	sp,sp,16
	.cfi_def_cfa_offset 0
	jr	ra
.L130:
	.cfi_restore_state
	.loc 1 120 12
	li	a0,-1
	j	.L126
	.cfi_endproc
.LFE9:
	.size	caml_page_table_initialize, .-caml_page_table_initialize
	.section	.rodata.str1.8
	.align	3
.LC4:
	.string	"Growing page table to %lu entries\n"
	.align	3
.LC5:
	.string	"No room for growing page table\n"
	.text
	.align	1
	.type	caml_page_table_resize, @function
caml_page_table_resize:
.LFB10:
	.loc 1 126 1 is_stmt 1
	.cfi_startproc
	addi	sp,sp,-80
	.cfi_def_cfa_offset 80
	sd	ra,72(sp)
	sd	s0,64(sp)
	sd	s1,56(sp)
	.cfi_offset 1, -8
	.cfi_offset 8, -16
	.cfi_offset 9, -24
	.loc 1 127 3
	.loc 1 127 21 is_stmt 0
	lla	a5,.LANCHOR0
	ld	s0,0(a5)
	ld	a2,8(a5)
	ld	a3,16(a5)
	ld	a4,24(a5)
	ld	a5,32(a5)
	sd	s0,8(sp)
	sd	a2,16(sp)
	sd	a3,24(sp)
	sd	a4,32(sp)
	sd	a5,40(sp)
	.loc 1 128 3 is_stmt 1
	.loc 1 129 3
	.loc 1 131 3
	mv	s1,s0
	mv	a2,s0
	lla	a1,.LC4
	li	a0,8
	call	caml_gc_message
.LVL126:
	.loc 1 135 3
	.loc 1 135 17 is_stmt 0
	slli	s0,s0,1
	li	a1,8
	mv	a0,s0
	call	caml_stat_calloc_noexc
.LVL127:
	.loc 1 136 3 is_stmt 1
	.loc 1 136 6 is_stmt 0
	beq	a0,zero,.L140
	.loc 1 141 3 is_stmt 1
	.loc 1 141 24 is_stmt 0
	lla	a5,.LANCHOR0
	sd	s0,0(a5)
	.loc 1 142 3 is_stmt 1
	.loc 1 142 30 is_stmt 0
	lw	a4,16(sp)
	.loc 1 142 37
	addiw	a4,a4,-1
	sext.w	a7,a4
	.loc 1 142 25
	sw	a4,8(a5)
	.loc 1 143 3 is_stmt 1
	.loc 1 143 47 is_stmt 0
	addi	a2,s0,-1
	.loc 1 143 24
	sd	a2,16(a5)
	.loc 1 144 3 is_stmt 1
	.loc 1 144 34 is_stmt 0
	ld	a4,32(sp)
	.loc 1 144 29
	sd	a4,24(a5)
	.loc 1 145 3 is_stmt 1
	.loc 1 145 27 is_stmt 0
	sd	a0,32(a5)
	.loc 1 147 3 is_stmt 1
.LVL128:
	.loc 1 147 10 is_stmt 0
	li	a1,0
	.loc 1 147 3
	j	.L134
.LVL129:
.L140:
	.loc 1 137 5 is_stmt 1
	lla	a1,.LC5
	li	a0,8
.LVL130:
	call	caml_gc_message
.LVL131:
	.loc 1 138 5
	.loc 1 138 12 is_stmt 0
	li	a0,-1
	j	.L133
.LVL132:
.L137:
.LBB28:
	.loc 1 152 7 is_stmt 1
	.loc 1 152 14 is_stmt 0
	addi	a5,a5,1
.LVL133:
	.loc 1 152 9
	and	a5,a2,a5
.LVL134:
.L136:
	.loc 1 151 11 is_stmt 1
	.loc 1 151 35 is_stmt 0
	slli	a4,a5,3
	add	a4,a0,a4
	ld	a3,0(a4)
	.loc 1 151 11
	bne	a3,zero,.L137
	.loc 1 153 5 is_stmt 1
	.loc 1 153 32 is_stmt 0
	sd	a6,0(a4)
.LVL135:
.L135:
.LBE28:
	.loc 1 147 29 is_stmt 1 discriminator 2
	.loc 1 147 30 is_stmt 0 discriminator 2
	addi	a1,a1,1
.LVL136:
.L134:
	.loc 1 147 15 is_stmt 1 discriminator 1
	.loc 1 147 3 is_stmt 0 discriminator 1
	bleu	s1,a1,.L141
.LBB29:
	.loc 1 148 5 is_stmt 1
	.loc 1 148 28 is_stmt 0
	slli	a5,a1,3
	ld	a4,40(sp)
	add	a5,a4,a5
	.loc 1 148 13
	ld	a6,0(a5)
.LVL137:
	.loc 1 149 5 is_stmt 1
	.loc 1 149 8 is_stmt 0
	beq	a6,zero,.L135
	.loc 1 150 5 is_stmt 1
	.loc 1 150 9 is_stmt 0
	srli	a5,a6,12
	ld	a4,.LC0
	mul	a5,a5,a4
	.loc 1 150 7
	srl	a5,a5,a7
.LVL138:
	.loc 1 151 5 is_stmt 1
	.loc 1 151 11 is_stmt 0
	j	.L136
.LVL139:
.L141:
.LBE29:
	.loc 1 156 3 is_stmt 1
	ld	a0,40(sp)
.LVL140:
	call	caml_stat_free
.LVL141:
	.loc 1 157 3
	.loc 1 157 10 is_stmt 0
	li	a0,0
.L133:
	.loc 1 158 1
	ld	ra,72(sp)
	.cfi_restore 1
	ld	s0,64(sp)
	.cfi_restore 8
	ld	s1,56(sp)
	.cfi_restore 9
	addi	sp,sp,80
	.cfi_def_cfa_offset 0
	jr	ra
	.cfi_endproc
.LFE10:
	.size	caml_page_table_resize, .-caml_page_table_resize
	.align	1
	.type	caml_page_table_modify, @function
caml_page_table_modify:
.LFB11:
	.loc 1 161 1 is_stmt 1
	.cfi_startproc
.LVL142:
	addi	sp,sp,-32
	.cfi_def_cfa_offset 32
	sd	ra,24(sp)
	sd	s0,16(sp)
	sd	s1,8(sp)
	sd	s2,0(sp)
	.cfi_offset 1, -8
	.cfi_offset 8, -16
	.cfi_offset 9, -24
	.cfi_offset 18, -32
	mv	s0,a0
	mv	s2,a1
	mv	s1,a2
	.loc 1 162 3
	.loc 1 164 3
	.loc 1 167 3
	.loc 1 167 22 is_stmt 0
	lla	a4,.LANCHOR0
	ld	a5,24(a4)
	.loc 1 167 33
	slli	a5,a5,1
	.loc 1 167 55
	ld	a4,0(a4)
	.loc 1 167 6
	bgeu	a5,a4,.L150
.LVL143:
.L143:
	.loc 1 170 3 is_stmt 1
	.loc 1 170 7 is_stmt 0
	srli	a5,s0,12
	ld	a4,.LC0
	mul	a5,a5,a4
	lw	a4,.LANCHOR0+8
	.loc 1 170 5
	srl	a5,a5,a4
.LVL144:
.L147:
	.loc 1 171 3 is_stmt 1
	.loc 1 172 5
	.loc 1 172 32 is_stmt 0
	slli	a4,a5,3
	ld	a3,.LANCHOR0+32
	add	a4,a3,a4
	ld	a2,0(a4)
	.loc 1 172 8
	beq	a2,zero,.L151
	.loc 1 177 5 is_stmt 1
	.loc 1 177 9 is_stmt 0
	xor	a3,a2,s0
	li	a1,-4096
	and	a3,a3,a1
	.loc 1 177 8
	beq	a3,zero,.L152
	.loc 1 182 5 is_stmt 1
	.loc 1 182 12 is_stmt 0
	addi	a5,a5,1
.LVL145:
	.loc 1 182 34
	ld	a4,.LANCHOR0+16
	.loc 1 182 7
	and	a5,a5,a4
.LVL146:
	.loc 1 171 9 is_stmt 1
	.loc 1 172 8 is_stmt 0
	j	.L147
.LVL147:
.L150:
	.loc 1 168 5 is_stmt 1
	.loc 1 168 9 is_stmt 0
	call	caml_page_table_resize
.LVL148:
	.loc 1 168 8
	beq	a0,zero,.L143
	.loc 1 168 47
	li	a0,-1
	j	.L144
.LVL149:
.L151:
	.loc 1 173 7 is_stmt 1
	.loc 1 173 41 is_stmt 0
	or	s0,s1,s0
.LVL150:
	.loc 1 173 34
	sd	s0,0(a4)
	.loc 1 174 7 is_stmt 1
	.loc 1 174 22 is_stmt 0
	lla	a4,.LANCHOR0
	ld	a5,24(a4)
.LVL151:
	.loc 1 174 32
	addi	a5,a5,1
	sd	a5,24(a4)
	.loc 1 175 7 is_stmt 1
	.loc 1 184 10 is_stmt 0
	li	a0,0
.L144:
	.loc 1 185 1
	ld	ra,24(sp)
	.cfi_remember_state
	.cfi_restore 1
	ld	s0,16(sp)
	.cfi_restore 8
	ld	s1,8(sp)
	.cfi_restore 9
	ld	s2,0(sp)
	.cfi_restore 18
	addi	sp,sp,32
	.cfi_def_cfa_offset 0
	jr	ra
.LVL152:
.L152:
	.cfi_restore_state
	.loc 1 178 7 is_stmt 1
	.loc 1 179 39 is_stmt 0
	not	s2,s2
	.loc 1 179 37
	and	a2,a2,s2
	.loc 1 179 49
	or	a2,s1,a2
	.loc 1 178 34
	sd	a2,0(a4)
	.loc 1 180 7 is_stmt 1
	.loc 1 184 10 is_stmt 0
	li	a0,0
	.loc 1 180 7
	j	.L144
	.cfi_endproc
.LFE11:
	.size	caml_page_table_modify, .-caml_page_table_modify
	.align	1
	.globl	caml_page_table_add
	.type	caml_page_table_add, @function
caml_page_table_add:
.LFB12:
	.loc 1 220 1 is_stmt 1
	.cfi_startproc
.LVL153:
	addi	sp,sp,-32
	.cfi_def_cfa_offset 32
	sd	ra,24(sp)
	sd	s0,16(sp)
	sd	s1,8(sp)
	sd	s2,0(sp)
	.cfi_offset 1, -8
	.cfi_offset 8, -16
	.cfi_offset 9, -24
	.cfi_offset 18, -32
	mv	s2,a0
	.loc 1 221 3
	.loc 1 221 11 is_stmt 0
	li	s1,-4096
	and	s0,a1,s1
.LVL154:
	.loc 1 222 3 is_stmt 1
	.loc 1 222 33 is_stmt 0
	addi	a2,a2,-1
.LVL155:
	.loc 1 222 11
	and	s1,a2,s1
.LVL156:
	.loc 1 223 3 is_stmt 1
	.loc 1 225 3
.L154:
	.loc 1 225 20 discriminator 1
	.loc 1 225 3 is_stmt 0 discriminator 1
	bgtu	s0,s1,.L159
	.loc 1 226 5 is_stmt 1
	.loc 1 226 9 is_stmt 0
	mv	a2,s2
	li	a1,0
	mv	a0,s0
	call	caml_page_table_modify
.LVL157:
	.loc 1 226 8
	bne	a0,zero,.L157
	.loc 1 225 31 is_stmt 1 discriminator 2
	.loc 1 225 33 is_stmt 0 discriminator 2
	li	a5,4096
	add	s0,s0,a5
.LVL158:
	j	.L154
.L159:
	.loc 1 227 10
	li	a0,0
.L155:
	.loc 1 228 1
	ld	ra,24(sp)
	.cfi_remember_state
	.cfi_restore 1
	ld	s0,16(sp)
	.cfi_restore 8
.LVL159:
	ld	s1,8(sp)
	.cfi_restore 9
.LVL160:
	ld	s2,0(sp)
	.cfi_restore 18
	addi	sp,sp,32
	.cfi_def_cfa_offset 0
	jr	ra
.LVL161:
.L157:
	.cfi_restore_state
	.loc 1 226 57
	li	a0,-1
	j	.L155
	.cfi_endproc
.LFE12:
	.size	caml_page_table_add, .-caml_page_table_add
	.section	.rodata.str1.8
	.align	3
.LC6:
	.string	"Growing heap to %luk bytes\n"
	.text
	.align	1
	.globl	caml_add_to_heap
	.type	caml_add_to_heap, @function
caml_add_to_heap:
.LFB18:
	.loc 1 330 1 is_stmt 1
	.cfi_startproc
.LVL162:
	addi	sp,sp,-16
	.cfi_def_cfa_offset 16
	sd	ra,8(sp)
	sd	s0,0(sp)
	.cfi_offset 1, -8
	.cfi_offset 8, -16
	mv	s0,a0
	.loc 1 335 3
	.loc 1 337 21 is_stmt 0
	ld	a2,caml_stat_heap_wsz
	slli	a2,a2,3
	.loc 1 337 56
	ld	a5,-16(a0)
	.loc 1 337 54
	add	a2,a2,a5
	.loc 1 335 3
	srli	a2,a2,10
	lla	a1,.LC6
	li	a0,4
.LVL163:
	call	caml_gc_message
.LVL164:
	.loc 1 340 3 is_stmt 1
	.loc 1 340 43 is_stmt 0
	ld	a2,-16(s0)
	.loc 1 340 7
	add	a2,s0,a2
	mv	a1,s0
	li	a0,1
	call	caml_page_table_add
.LVL165:
	.loc 1 340 6
	bne	a0,zero,.L165
.LBB30:
	.loc 1 345 5 is_stmt 1
.LVL166:
	.loc 1 346 5
	.loc 1 346 11 is_stmt 0
	lla	a4,caml_heap_start
	ld	a5,0(a4)
.LVL167:
	.loc 1 348 5 is_stmt 1
	.loc 1 348 11 is_stmt 0
	j	.L162
.LVL168:
.L164:
	.loc 1 349 7 is_stmt 1
	.loc 1 349 12 is_stmt 0
	addi	a4,a5,-8
.LVL169:
	.loc 1 350 7 is_stmt 1
	.loc 1 350 11 is_stmt 0
	ld	a5,-8(a5)
.LVL170:
.L162:
	.loc 1 348 11 is_stmt 1
	beq	a5,zero,.L163
	.loc 1 348 24 is_stmt 0 discriminator 1
	bltu	a5,s0,.L164
.L163:
	.loc 1 352 5 is_stmt 1
	.loc 1 352 20 is_stmt 0
	sd	a5,-8(s0)
	.loc 1 353 5 is_stmt 1
	.loc 1 353 11 is_stmt 0
	sd	s0,0(a4)
	.loc 1 355 5 is_stmt 1
	lla	a4,caml_stat_heap_chunks
.LVL171:
	ld	a5,0(a4)
.LVL172:
	addi	a5,a5,1
	sd	a5,0(a4)
.LBE30:
	.loc 1 358 3
	.loc 1 358 25 is_stmt 0
	ld	a5,-16(s0)
	srli	a5,a5,3
	.loc 1 358 22
	lla	a4,caml_stat_heap_wsz
	ld	a3,0(a4)
	add	a5,a5,a3
	sd	a5,0(a4)
	.loc 1 359 3 is_stmt 1
	.loc 1 359 26 is_stmt 0
	ld	a4,caml_stat_top_heap_wsz
	.loc 1 359 6
	ble	a5,a4,.L161
	.loc 1 360 5 is_stmt 1
	.loc 1 360 28 is_stmt 0
	sd	a5,caml_stat_top_heap_wsz,a4
.L161:
	.loc 1 363 1
	ld	ra,8(sp)
	.cfi_remember_state
	.cfi_restore 1
	ld	s0,0(sp)
	.cfi_restore 8
.LVL173:
	addi	sp,sp,16
	.cfi_def_cfa_offset 0
	jr	ra
.LVL174:
.L165:
	.cfi_restore_state
	.loc 1 341 12
	li	a0,-1
	j	.L161
	.cfi_endproc
.LFE18:
	.size	caml_add_to_heap, .-caml_add_to_heap
	.section	.rodata.str1.8
	.align	3
.LC7:
	.string	"No room for growing heap\n"
	.text
	.align	1
	.type	expand_heap, @function
expand_heap:
.LFB19:
	.loc 1 376 1 is_stmt 1
	.cfi_startproc
.LVL175:
	addi	sp,sp,-16
	.cfi_def_cfa_offset 16
	sd	ra,8(sp)
	sd	s0,0(sp)
	.cfi_offset 1, -8
	.cfi_offset 8, -16
	.loc 1 378 3
	.loc 1 379 3
	.loc 1 381 3
	.loc 1 382 3
	.loc 1 382 36 is_stmt 0
	li	a5,100
	divu	a5,a0,a5
	.loc 1 382 42
	ld	a4,caml_percent_free
	mul	a5,a5,a4
.LVL176:
	.loc 1 383 3 is_stmt 1
	.loc 1 383 20 is_stmt 0
	add	a0,a5,a0
.LVL177:
	call	caml_clip_heap_chunk_wsz
.LVL178:
	.loc 1 384 3 is_stmt 1
	.loc 1 384 19 is_stmt 0
	slli	a0,a0,3
.LVL179:
	call	caml_alloc_for_heap
.LVL180:
	mv	s0,a0
.LVL181:
	.loc 1 385 3 is_stmt 1
	.loc 1 385 6 is_stmt 0
	beq	a0,zero,.L176
	.loc 1 389 3 is_stmt 1
	.loc 1 389 12 is_stmt 0
	ld	a2,-16(a0)
	.loc 1 389 10
	srli	a2,a2,3
.LVL182:
	.loc 1 390 3 is_stmt 1
	.loc 1 392 3
	.loc 1 390 13 is_stmt 0
	mv	a5,a0
	.loc 1 392 9
	j	.L170
.LVL183:
.L176:
	.loc 1 386 5 is_stmt 1
	lla	a1,.LC7
	li	a0,4
	call	caml_gc_message
.LVL184:
	.loc 1 387 5
	.loc 1 387 12 is_stmt 0
	j	.L167
.LVL185:
.L171:
	.loc 1 393 5 is_stmt 1
	.loc 1 393 16 is_stmt 0
	li	a4,-512
	sd	a4,0(a5)
	.loc 1 397 5 is_stmt 1
	.loc 1 397 8 is_stmt 0
	li	a4,1
	slli	a4,a4,57
.LVL186:
	.loc 1 398 5 is_stmt 1
	.loc 1 398 12 is_stmt 0
	li	a3,-1
	slli	a3,a3,54
	add	a2,a2,a3
.LVL187:
	.loc 1 399 5 is_stmt 1
	.loc 1 399 58 is_stmt 0
	addi	a3,a4,8
	add	a3,a5,a3
	.loc 1 399 56
	sd	a3,8(a5)
	.loc 1 399 29
	sd	a3,16(s0)
	.loc 1 400 5 is_stmt 1
.LVL188:
	.loc 1 397 8 is_stmt 0
	add	a5,a5,a4
.LVL189:
.L170:
	.loc 1 392 9 is_stmt 1
	.loc 1 392 10 is_stmt 0
	addi	a3,a2,-1
	.loc 1 392 9
	li	a4,-1
	srli	a4,a4,10
	bgtu	a3,a4,.L171
	.loc 1 402 3 is_stmt 1
	.loc 1 402 6 is_stmt 0
	li	a4,1
	bleu	a2,a4,.L172
	.loc 1 403 5 is_stmt 1
	.loc 1 403 18 is_stmt 0
	slli	a3,a3,10
	addi	a3,a3,512
	.loc 1 403 16
	sd	a3,0(a5)
	.loc 1 407 5 is_stmt 1
	.loc 1 407 58 is_stmt 0
	addi	a4,a5,8
	.loc 1 407 29
	sd	a4,16(s0)
	.loc 1 408 5 is_stmt 1
	.loc 1 408 28 is_stmt 0
	sd	zero,8(a5)
.L173:
	.loc 1 415 3 is_stmt 1
	.loc 1 416 3
	.loc 1 416 7 is_stmt 0
	mv	a0,s0
	call	caml_add_to_heap
.LVL190:
	.loc 1 416 6
	bne	a0,zero,.L177
	.loc 1 420 3 is_stmt 1
	.loc 1 420 10 is_stmt 0
	addi	s0,s0,8
.LVL191:
.L167:
	.loc 1 421 1
	mv	a0,s0
	ld	ra,8(sp)
	.cfi_remember_state
	.cfi_restore 1
	ld	s0,0(sp)
	.cfi_restore 8
	addi	sp,sp,16
	.cfi_def_cfa_offset 0
	jr	ra
.LVL192:
.L172:
	.cfi_restore_state
	.loc 1 410 5 is_stmt 1
	.loc 1 410 30 is_stmt 0
	sd	zero,8(a5)
	.loc 1 411 5 is_stmt 1
	.loc 1 411 8 is_stmt 0
	li	a4,1
	bne	a2,a4,.L173
	.loc 1 412 7 is_stmt 1
	.loc 1 412 18 is_stmt 0
	sd	zero,0(a5)
	j	.L173
.LVL193:
.L177:
	.loc 1 417 5 is_stmt 1
	mv	a0,s0
	call	caml_free_for_heap
.LVL194:
	.loc 1 418 5
	.loc 1 418 12 is_stmt 0
	li	s0,0
.LVL195:
	j	.L167
	.cfi_endproc
.LFE19:
	.size	expand_heap, .-expand_heap
	.align	1
	.globl	caml_alloc_shr
	.type	caml_alloc_shr, @function
caml_alloc_shr:
.LFB24:
	.loc 1 574 1 is_stmt 1
	.cfi_startproc
.LVL196:
	addi	sp,sp,-32
	.cfi_def_cfa_offset 32
	sd	ra,24(sp)
	sd	s0,16(sp)
	sd	s1,8(sp)
	sd	s2,0(sp)
	.cfi_offset 1, -8
	.cfi_offset 8, -16
	.cfi_offset 9, -24
	.cfi_offset 18, -32
	.loc 1 575 3
.LVL197:
.LBB33:
.LBB34:
	.loc 1 483 3
	.loc 1 484 3
	.loc 1 486 3
	.loc 1 486 6 is_stmt 0
	li	a5,-1
	srli	a5,a5,10
	bleu	a0,a5,.L179
	.loc 1 487 5 is_stmt 1
	.loc 1 488 7
	call	caml_raise_out_of_memory
.LVL198:
.L179:
	mv	s0,a0
	mv	s1,a1
	.loc 1 492 3
	.loc 1 492 8 is_stmt 0
	call	caml_fl_allocate
.LVL199:
	mv	s2,a0
.LVL200:
	.loc 1 493 3 is_stmt 1
	.loc 1 493 6 is_stmt 0
	beq	a0,zero,.L188
.L180:
	.loc 1 507 3 is_stmt 1
	.loc 1 510 3
	.loc 1 510 35 is_stmt 0
	lw	a5,caml_gc_phase
	sext.w	a3,a5
	.loc 1 510 6
	li	a4,1
	bleu	a3,a4,.L183
	.loc 1 511 7
	li	a4,2
	beq	a5,a4,.L189
.L184:
	.loc 1 514 5 is_stmt 1
	.loc 1 517 5
	.loc 1 517 18 is_stmt 0
	slli	a5,s0,10
	slli	a1,s1,32
	srli	a1,a1,32
	add	a1,a5,a1
	.loc 1 517 16
	sd	a1,0(s2)
	j	.L185
.L188:
	.loc 1 494 5 is_stmt 1
	.loc 1 494 17 is_stmt 0
	mv	a0,s0
.LVL201:
	call	expand_heap
.LVL202:
	.loc 1 495 5 is_stmt 1
	.loc 1 495 8 is_stmt 0
	beq	a0,zero,.L190
	.loc 1 503 5 is_stmt 1
	call	caml_fl_add_blocks
.LVL203:
	.loc 1 504 5
	.loc 1 504 10 is_stmt 0
	mv	a0,s0
	call	caml_fl_allocate
.LVL204:
	mv	s2,a0
.LVL205:
	j	.L180
.LVL206:
.L190:
	.loc 1 496 7 is_stmt 1
	.loc 1 498 12
	.loc 1 498 16 is_stmt 0
	lw	a5,caml_in_minor_collection
	.loc 1 498 15
	beq	a5,zero,.L182
	.loc 1 499 9 is_stmt 1
	lla	a0,.LC3
.LVL207:
	call	caml_fatal_error
.LVL208:
.L182:
	.loc 1 501 9
	call	caml_raise_out_of_memory
.LVL209:
.L189:
	.loc 1 511 52 is_stmt 0
	ld	a5,caml_gc_sweep_hp
	.loc 1 511 40
	bgtu	a5,s2,.L184
.L183:
	.loc 1 512 5 is_stmt 1
	.loc 1 512 18 is_stmt 0
	slli	a1,s0,10
	slli	s1,s1,32
	srli	s1,s1,32
	add	a1,a1,s1
	addi	a1,a1,768
	.loc 1 512 16
	sd	a1,0(s2)
.L185:
	.loc 1 519 3 is_stmt 1
	.loc 1 522 3
	.loc 1 522 24 is_stmt 0
	lla	a5,caml_allocated_words
	ld	a0,0(a5)
.LVL210:
	add	s0,s0,a0
.LVL211:
	addi	s0,s0,1
	sd	s0,0(a5)
	.loc 1 523 3 is_stmt 1
	.loc 1 523 28 is_stmt 0
	ld	a5,caml_minor_heap_wsz
	.loc 1 523 6
	bgtu	s0,a5,.L191
.L186:
	.loc 1 535 3 is_stmt 1
.LVL212:
.LBE34:
.LBE33:
	.loc 1 576 1 is_stmt 0
	addi	a0,s2,8
	ld	ra,24(sp)
	.cfi_remember_state
	.cfi_restore 1
	ld	s0,16(sp)
	.cfi_restore 8
	ld	s1,8(sp)
	.cfi_restore 9
	ld	s2,0(sp)
	.cfi_restore 18
	addi	sp,sp,32
	.cfi_def_cfa_offset 0
	jr	ra
.LVL213:
.L191:
	.cfi_restore_state
.LBB36:
.LBB35:
	.loc 1 524 51 is_stmt 1
	.loc 1 525 5
	call	caml_request_major_slice
.LVL214:
	j	.L186
.LBE35:
.LBE36:
	.cfi_endproc
.LFE24:
	.size	caml_alloc_shr, .-caml_alloc_shr
	.align	1
	.globl	caml_alloc_shr_no_raise
	.type	caml_alloc_shr_no_raise, @function
caml_alloc_shr_no_raise:
.LFB23:
	.loc 1 539 1
	.cfi_startproc
.LVL215:
	.loc 1 540 3
.LBB39:
.LBB40:
	.loc 1 483 3
	.loc 1 484 3
	.loc 1 486 3
	.loc 1 486 6 is_stmt 0
	li	a5,-1
	srli	a5,a5,10
	bleu	a0,a5,.L205
	.loc 1 490 14
	li	a0,0
.LVL216:
.LBE40:
.LBE39:
	.loc 1 541 1
	ret
.LVL217:
.L205:
	.loc 1 539 1
	addi	sp,sp,-32
	.cfi_def_cfa_offset 32
	sd	ra,24(sp)
	sd	s0,16(sp)
	sd	s1,8(sp)
	sd	s2,0(sp)
	.cfi_offset 1, -8
	.cfi_offset 8, -16
	.cfi_offset 9, -24
	.cfi_offset 18, -32
	mv	s0,a0
	mv	s2,a1
.LBB43:
.LBB41:
	.loc 1 492 3 is_stmt 1
	.loc 1 492 8 is_stmt 0
	call	caml_fl_allocate
.LVL218:
	mv	s1,a0
.LVL219:
	.loc 1 493 3 is_stmt 1
	.loc 1 493 6 is_stmt 0
	beq	a0,zero,.L206
.L194:
	.loc 1 507 3 is_stmt 1
	.loc 1 510 3
	.loc 1 510 35 is_stmt 0
	lw	a5,caml_gc_phase
	sext.w	a3,a5
	.loc 1 510 6
	li	a4,1
	bleu	a3,a4,.L195
	.loc 1 511 7
	li	a4,2
	beq	a5,a4,.L207
.L196:
	.loc 1 514 5 is_stmt 1
	.loc 1 517 5
	.loc 1 517 18 is_stmt 0
	slli	a5,s0,10
	slli	a1,s2,32
	srli	a1,a1,32
	add	a1,a5,a1
	.loc 1 517 16
	sd	a1,0(s1)
	j	.L197
.L206:
	.loc 1 494 5 is_stmt 1
	.loc 1 494 17 is_stmt 0
	mv	a0,s0
	call	expand_heap
.LVL220:
	.loc 1 495 5 is_stmt 1
	.loc 1 495 8 is_stmt 0
	beq	a0,zero,.L200
	.loc 1 503 5 is_stmt 1
	call	caml_fl_add_blocks
.LVL221:
	.loc 1 504 5
	.loc 1 504 10 is_stmt 0
	mv	a0,s0
	call	caml_fl_allocate
.LVL222:
	mv	s1,a0
.LVL223:
	j	.L194
.L207:
	.loc 1 511 52
	ld	a5,caml_gc_sweep_hp
	.loc 1 511 40
	bgtu	a5,s1,.L196
.L195:
	.loc 1 512 5 is_stmt 1
	.loc 1 512 18 is_stmt 0
	slli	a1,s0,10
	slli	s2,s2,32
	srli	s2,s2,32
	add	a1,a1,s2
	addi	a1,a1,768
	.loc 1 512 16
	sd	a1,0(s1)
.L197:
	.loc 1 519 3 is_stmt 1
	.loc 1 522 3
	.loc 1 522 24 is_stmt 0
	lla	a5,caml_allocated_words
	ld	a0,0(a5)
	add	s0,s0,a0
.LVL224:
	addi	s0,s0,1
	sd	s0,0(a5)
	.loc 1 523 3 is_stmt 1
	.loc 1 523 28 is_stmt 0
	ld	a5,caml_minor_heap_wsz
	.loc 1 523 6
	bgtu	s0,a5,.L208
.L198:
	.loc 1 535 3 is_stmt 1
	.loc 1 535 10 is_stmt 0
	addi	a0,s1,8
.LVL225:
.L192:
.LBE41:
.LBE43:
	.loc 1 541 1
	ld	ra,24(sp)
	.cfi_remember_state
	.cfi_restore 1
	ld	s0,16(sp)
	.cfi_restore 8
	ld	s1,8(sp)
	.cfi_restore 9
	ld	s2,0(sp)
	.cfi_restore 18
	addi	sp,sp,32
	.cfi_def_cfa_offset 0
	jr	ra
.LVL226:
.L208:
	.cfi_restore_state
.LBB44:
.LBB42:
	.loc 1 524 51 is_stmt 1
	.loc 1 525 5
	call	caml_request_major_slice
.LVL227:
	j	.L198
.LVL228:
.L200:
	.loc 1 497 16 is_stmt 0
	li	a0,0
.LVL229:
.LBE42:
.LBE44:
	.loc 1 540 10
	j	.L192
	.cfi_endproc
.LFE23:
	.size	caml_alloc_shr_no_raise, .-caml_alloc_shr_no_raise
	.align	1
	.globl	caml_page_table_remove
	.type	caml_page_table_remove, @function
caml_page_table_remove:
.LFB13:
	.loc 1 231 1 is_stmt 1
	.cfi_startproc
.LVL230:
	addi	sp,sp,-32
	.cfi_def_cfa_offset 32
	sd	ra,24(sp)
	sd	s0,16(sp)
	sd	s1,8(sp)
	sd	s2,0(sp)
	.cfi_offset 1, -8
	.cfi_offset 8, -16
	.cfi_offset 9, -24
	.cfi_offset 18, -32
	mv	s2,a0
	.loc 1 232 3
	.loc 1 232 11 is_stmt 0
	li	s1,-4096
	and	s0,a1,s1
.LVL231:
	.loc 1 233 3 is_stmt 1
	.loc 1 233 33 is_stmt 0
	addi	a2,a2,-1
.LVL232:
	.loc 1 233 11
	and	s1,a2,s1
.LVL233:
	.loc 1 234 3 is_stmt 1
	.loc 1 236 3
.L210:
	.loc 1 236 20 discriminator 1
	.loc 1 236 3 is_stmt 0 discriminator 1
	bgtu	s0,s1,.L215
	.loc 1 237 5 is_stmt 1
	.loc 1 237 9 is_stmt 0
	li	a2,0
	mv	a1,s2
	mv	a0,s0
	call	caml_page_table_modify
.LVL234:
	.loc 1 237 8
	bne	a0,zero,.L213
	.loc 1 236 31 is_stmt 1 discriminator 2
	.loc 1 236 33 is_stmt 0 discriminator 2
	li	a5,4096
	add	s0,s0,a5
.LVL235:
	j	.L210
.L215:
	.loc 1 238 10
	li	a0,0
.L211:
	.loc 1 239 1
	ld	ra,24(sp)
	.cfi_remember_state
	.cfi_restore 1
	ld	s0,16(sp)
	.cfi_restore 8
.LVL236:
	ld	s1,8(sp)
	.cfi_restore 9
.LVL237:
	ld	s2,0(sp)
	.cfi_restore 18
	addi	sp,sp,32
	.cfi_def_cfa_offset 0
	jr	ra
.LVL238:
.L213:
	.cfi_restore_state
	.loc 1 237 57
	li	a0,-1
	j	.L211
	.cfi_endproc
.LFE13:
	.size	caml_page_table_remove, .-caml_page_table_remove
	.section	.rodata.str1.8
	.align	3
.LC8:
	.string	"Shrinking heap to %luk words\n"
	.text
	.align	1
	.globl	caml_shrink_heap
	.type	caml_shrink_heap, @function
caml_shrink_heap:
.LFB20:
	.loc 1 427 1 is_stmt 1
	.cfi_startproc
.LVL239:
	.loc 1 428 3
	.loc 1 437 3
	.loc 1 437 13 is_stmt 0
	ld	a5,caml_heap_start
	.loc 1 437 6
	beq	a5,a0,.L221
	.loc 1 427 1
	addi	sp,sp,-16
	.cfi_def_cfa_offset 16
	sd	ra,8(sp)
	sd	s0,0(sp)
	.cfi_offset 1, -8
	.cfi_offset 8, -16
	mv	s0,a0
	.loc 1 439 3 is_stmt 1
	.loc 1 439 25 is_stmt 0
	ld	a5,-16(a0)
	srli	a5,a5,3
	.loc 1 439 22
	lla	a4,caml_stat_heap_wsz
	ld	a2,0(a4)
	sub	a5,a2,a5
	sd	a5,0(a4)
	.loc 1 440 3 is_stmt 1
	srai	a2,a5,63
	andi	a2,a2,1023
	add	a2,a2,a5
	srai	a2,a2,10
	lla	a1,.LC8
	li	a0,4
.LVL240:
	call	caml_gc_message
.LVL241:
	.loc 1 453 3
	lla	a4,caml_stat_heap_chunks
	ld	a5,0(a4)
	addi	a5,a5,-1
	sd	a5,0(a4)
	.loc 1 456 3
.LVL242:
	.loc 1 457 3
	.loc 1 456 6 is_stmt 0
	lla	a4,caml_heap_start
.LVL243:
.L218:
	.loc 1 457 9 is_stmt 1 discriminator 1
	.loc 1 457 10 is_stmt 0 discriminator 1
	ld	a5,0(a4)
	.loc 1 457 9 discriminator 1
	beq	a5,s0,.L224
	.loc 1 457 24 is_stmt 1 discriminator 2
	.loc 1 457 27 is_stmt 0 discriminator 2
	addi	a4,a5,-8
.LVL244:
	j	.L218
.L224:
	.loc 1 458 3 is_stmt 1
	.loc 1 458 9 is_stmt 0
	ld	a5,-8(s0)
	.loc 1 458 7
	sd	a5,0(a4)
	.loc 1 461 3 is_stmt 1
	.loc 1 461 50 is_stmt 0
	ld	a2,-16(s0)
	.loc 1 461 3
	add	a2,s0,a2
	mv	a1,s0
	li	a0,1
	call	caml_page_table_remove
.LVL245:
	.loc 1 464 3 is_stmt 1
	mv	a0,s0
	call	caml_free_for_heap
.LVL246:
	.loc 1 465 1 is_stmt 0
	ld	ra,8(sp)
	.cfi_restore 1
	ld	s0,0(sp)
	.cfi_restore 8
.LVL247:
	addi	sp,sp,16
	.cfi_def_cfa_offset 0
	jr	ra
.LVL248:
.L221:
	ret
	.cfi_endproc
.LFE20:
	.size	caml_shrink_heap, .-caml_shrink_heap
	.align	1
	.globl	caml_stat_strdup_noexc
	.type	caml_stat_strdup_noexc, @function
caml_stat_strdup_noexc:
.LFB41:
	.loc 1 923 1 is_stmt 1
	.cfi_startproc
.LVL249:
	addi	sp,sp,-32
	.cfi_def_cfa_offset 32
	sd	ra,24(sp)
	sd	s0,16(sp)
	sd	s1,8(sp)
	sd	s2,0(sp)
	.cfi_offset 1, -8
	.cfi_offset 8, -16
	.cfi_offset 9, -24
	.cfi_offset 18, -32
	mv	s2,a0
	.loc 1 924 3
	.loc 1 924 17 is_stmt 0
	call	strlen
.LVL250:
	.loc 1 925 3 is_stmt 1
	.loc 1 925 28 is_stmt 0
	addi	s1,a0,1
	mv	a0,s1
.LVL251:
	call	caml_stat_alloc_noexc
.LVL252:
	mv	s0,a0
.LVL253:
	.loc 1 926 3 is_stmt 1
	.loc 1 926 6 is_stmt 0
	beq	a0,zero,.L225
	.loc 1 928 3 is_stmt 1
	mv	a2,s1
	mv	a1,s2
	call	memcpy
.LVL254:
	.loc 1 929 3
.L225:
	.loc 1 930 1 is_stmt 0
	mv	a0,s0
	ld	ra,24(sp)
	.cfi_restore 1
	ld	s0,16(sp)
	.cfi_restore 8
.LVL255:
	ld	s1,8(sp)
	.cfi_restore 9
.LVL256:
	ld	s2,0(sp)
	.cfi_restore 18
.LVL257:
	addi	sp,sp,32
	.cfi_def_cfa_offset 0
	jr	ra
	.cfi_endproc
.LFE41:
	.size	caml_stat_strdup_noexc, .-caml_stat_strdup_noexc
	.align	1
	.globl	caml_stat_strdup
	.type	caml_stat_strdup, @function
caml_stat_strdup:
.LFB42:
	.loc 1 933 1 is_stmt 1
	.cfi_startproc
.LVL258:
	addi	sp,sp,-16
	.cfi_def_cfa_offset 16
	sd	ra,8(sp)
	.cfi_offset 1, -8
	.loc 1 934 3
	.loc 1 934 29 is_stmt 0
	call	caml_stat_strdup_noexc
.LVL259:
	.loc 1 935 3 is_stmt 1
	.loc 1 935 6 is_stmt 0
	beq	a0,zero,.L231
	.loc 1 938 1
	ld	ra,8(sp)
	.cfi_remember_state
	.cfi_restore 1
	addi	sp,sp,16
	.cfi_def_cfa_offset 0
	jr	ra
.L231:
	.cfi_restore_state
	.loc 1 936 5 is_stmt 1
	call	caml_raise_out_of_memory
.LVL260:
	.cfi_endproc
.LFE42:
	.size	caml_stat_strdup, .-caml_stat_strdup
	.align	1
	.globl	caml_stat_strconcat
	.type	caml_stat_strconcat, @function
caml_stat_strconcat:
.LFB43:
	.loc 1 955 1
	.cfi_startproc
.LVL261:
	addi	sp,sp,-144
	.cfi_def_cfa_offset 144
	sd	ra,72(sp)
	sd	s0,64(sp)
	sd	s1,56(sp)
	sd	s2,48(sp)
	sd	s3,40(sp)
	sd	s4,32(sp)
	sd	s5,24(sp)
	.cfi_offset 1, -72
	.cfi_offset 8, -80
	.cfi_offset 9, -88
	.cfi_offset 18, -96
	.cfi_offset 19, -104
	.cfi_offset 20, -112
	.cfi_offset 21, -120
	mv	s4,a0
	sd	a1,88(sp)
	sd	a2,96(sp)
	sd	a3,104(sp)
	sd	a4,112(sp)
	sd	a5,120(sp)
	sd	a6,128(sp)
	sd	a7,136(sp)
	.loc 1 956 3
	.loc 1 957 3
	.loc 1 958 3
.LVL262:
	.loc 1 959 3
	.loc 1 961 3
	addi	a5,sp,88
	sd	a5,8(sp)
	.loc 1 962 3
.LVL263:
	.loc 1 962 10 is_stmt 0
	li	s0,0
	.loc 1 958 10
	li	s1,0
.LVL264:
.L233:
	.loc 1 962 15 is_stmt 1 discriminator 1
	.loc 1 962 3 is_stmt 0 discriminator 1
	bge	s0,s4,.L238
.LBB45:
	.loc 1 963 5 is_stmt 1
	.loc 1 963 17 is_stmt 0
	ld	a5,8(sp)
	addi	a4,a5,8
	sd	a4,8(sp)
	.loc 1 964 5 is_stmt 1
	.loc 1 964 12 is_stmt 0
	ld	a0,0(a5)
	call	strlen
.LVL265:
	.loc 1 964 9
	add	s1,s1,a0
.LVL266:
.LBE45:
	.loc 1 962 22 is_stmt 1
	.loc 1 962 23 is_stmt 0
	addiw	s0,s0,1
.LVL267:
	j	.L233
.LVL268:
.L238:
	.loc 1 966 3 is_stmt 1
	.loc 1 968 3
	.loc 1 968 12 is_stmt 0
	addi	a0,s1,1
	call	caml_stat_alloc
.LVL269:
	mv	s5,a0
.LVL270:
	.loc 1 970 3 is_stmt 1
	addi	a5,sp,88
	sd	a5,8(sp)
	.loc 1 971 3
.LVL271:
	.loc 1 972 3
	.loc 1 971 5 is_stmt 0
	mv	s1,a0
.LVL272:
	.loc 1 972 10
	li	s2,0
	.loc 1 972 3
	j	.L235
.LVL273:
.L236:
.LBB46:
	.loc 1 973 5 is_stmt 1
	.loc 1 973 17 is_stmt 0
	ld	a5,8(sp)
	addi	a4,a5,8
	sd	a4,8(sp)
	ld	s3,0(a5)
	.loc 1 974 5 is_stmt 1
	.loc 1 974 16 is_stmt 0
	mv	a0,s3
	call	strlen
.LVL274:
	mv	s0,a0
.LVL275:
	.loc 1 975 5 is_stmt 1
	mv	a2,a0
	mv	a1,s3
	mv	a0,s1
	call	memcpy
.LVL276:
	.loc 1 976 5
	.loc 1 976 7 is_stmt 0
	add	s1,s1,s0
.LVL277:
.LBE46:
	.loc 1 972 22 is_stmt 1
	.loc 1 972 23 is_stmt 0
	addiw	s2,s2,1
.LVL278:
.L235:
	.loc 1 972 15 is_stmt 1 discriminator 1
	.loc 1 972 3 is_stmt 0 discriminator 1
	blt	s2,s4,.L236
	.loc 1 978 3 is_stmt 1
	.loc 1 980 3
	.loc 1 980 6 is_stmt 0
	sb	zero,0(s1)
	.loc 1 981 3 is_stmt 1
	.loc 1 982 1 is_stmt 0
	mv	a0,s5
	ld	ra,72(sp)
	.cfi_restore 1
	ld	s0,64(sp)
	.cfi_restore 8
	ld	s1,56(sp)
	.cfi_restore 9
.LVL279:
	ld	s2,48(sp)
	.cfi_restore 18
.LVL280:
	ld	s3,40(sp)
	.cfi_restore 19
	ld	s4,32(sp)
	.cfi_restore 20
	ld	s5,24(sp)
	.cfi_restore 21
.LVL281:
	addi	sp,sp,144
	.cfi_def_cfa_offset 0
	jr	ra
	.cfi_endproc
.LFE43:
	.size	caml_stat_strconcat, .-caml_stat_strconcat
	.globl	caml_use_huge_pages
	.globl	caml_huge_fallback_count
	.comm	caml_major_work_credit,8,8
	.comm	caml_major_ring_index,4,4
	.comm	caml_major_ring,400,8
	.section	.srodata.cst8,"aM",@progbits,8
	.align	3
.LC0:
	.dword	-7046029254386353130
	.align	3
.LC1:
	.word	0
	.word	1072693248
	.align	3
.LC2:
	.word	0
	.word	1071644672
	.bss
	.align	3
	.set	.LANCHOR0,. + 0
	.type	caml_page_table, @object
	.size	caml_page_table, 40
caml_page_table:
	.zero	40
	.section	.sbss,"aw",@nobits
	.align	3
	.type	pool, @object
	.size	pool, 8
pool:
	.zero	8
	.type	caml_use_huge_pages, @object
	.size	caml_use_huge_pages, 8
caml_use_huge_pages:
	.zero	8
	.type	caml_huge_fallback_count, @object
	.size	caml_huge_fallback_count, 4
caml_huge_fallback_count:
	.zero	4
	.text
.Letext0:
	.file 4 "/home/sai/Shakti-TEE-Build/riscv/lib/gcc/riscv64-unknown-elf/9.2.0/include/stddef.h"
	.file 5 "/home/sai/Shakti-TEE-Build/riscv/lib/gcc/riscv64-unknown-elf/9.2.0/include/stdarg.h"
	.file 6 "caml/config.h"
	.file 7 "caml/mlvalues.h"
	.file 8 "caml/address_class.h"
	.file 9 "/home/sai/ocaml-freestanding-riscv/nolibc/include/signal.h"
	.file 10 "caml/fail.h"
	.file 11 "caml/freelist.h"
	.file 12 "caml/gc_ctrl.h"
	.file 13 "caml/major_gc.h"
	.file 14 "caml/memory.h"
	.file 15 "caml/signals.h"
	.file 16 "/home/sai/ocaml-freestanding-riscv/nolibc/include/string.h"
	.file 17 "<built-in>"
	.file 18 "/home/sai/ocaml-freestanding-riscv/nolibc/include/stdlib.h"