	.file	"meta.c"
	.option nopic
	.attribute arch, "rv64i2p0_m2p0_a2p0_f2p0_d2p0_c2p0"
	.attribute unaligned_access, 0
	.attribute stack_align, 16
	.text
.Ltext0:
	.cfi_sections	.debug_frame
	.section	.rodata.str1.8,"aMS",@progbits,1
	.align	3
.LC0:
	.string	"Meta.get_global_data"
	.text
	.align	1
	.globl	caml_get_global_data
	.type	caml_get_global_data, @function
caml_get_global_data:
.LFB12:
	.file 1 "meta.c"
	.loc 1 189 1
	.cfi_startproc
.LVL0:
	addi	sp,sp,-16
	.cfi_def_cfa_offset 16
	sd	ra,8(sp)
	.cfi_offset 1, -8
	.loc 1 190 3
	lla	a0,.LC0
.LVL1:
	call	caml_invalid_argument
.LVL2:
	.cfi_endproc
.LFE12:
	.size	caml_get_global_data, .-caml_get_global_data
	.section	.rodata.str1.8
	.align	3
.LC1:
	.string	"Meta.get_section_table"
	.text
	.align	1
	.globl	caml_get_section_table
	.type	caml_get_section_table, @function
caml_get_section_table:
.LFB13:
	.loc 1 195 1
	.cfi_startproc
.LVL3:
	addi	sp,sp,-16
	.cfi_def_cfa_offset 16
	sd	ra,8(sp)
	.cfi_offset 1, -8
	.loc 1 196 3
	lla	a0,.LC1
.LVL4:
	call	caml_invalid_argument
.LVL5:
	.cfi_endproc
.LFE13:
	.size	caml_get_section_table, .-caml_get_section_table
	.section	.rodata.str1.8
	.align	3
.LC2:
	.string	"Meta.realloc_global"
	.text
	.align	1
	.globl	caml_realloc_global
	.type	caml_realloc_global, @function
caml_realloc_global:
.LFB14:
	.loc 1 201 1
	.cfi_startproc
.LVL6:
	addi	sp,sp,-16
	.cfi_def_cfa_offset 16
	sd	ra,8(sp)
	.cfi_offset 1, -8
	.loc 1 202 3
	lla	a0,.LC2
.LVL7:
	call	caml_invalid_argument
.LVL8:
	.cfi_endproc
.LFE14:
	.size	caml_realloc_global, .-caml_realloc_global
	.section	.rodata.str1.8
	.align	3
.LC3:
	.string	"Meta.invoke_traced_function"
	.text
	.align	1
	.globl	caml_invoke_traced_function
	.type	caml_invoke_traced_function, @function
caml_invoke_traced_function:
.LFB15:
	.loc 1 207 1
	.cfi_startproc
.LVL9:
	addi	sp,sp,-16
	.cfi_def_cfa_offset 16
	sd	ra,8(sp)
	.cfi_offset 1, -8
	.loc 1 208 3
	lla	a0,.LC3
.LVL10:
	call	caml_invalid_argument
.LVL11:
	.cfi_endproc
.LFE15:
	.size	caml_invoke_traced_function, .-caml_invoke_traced_function
	.section	.rodata.str1.8
	.align	3
.LC4:
	.string	"Meta.reify_bytecode"
	.text
	.align	1
	.globl	caml_reify_bytecode
	.type	caml_reify_bytecode, @function
caml_reify_bytecode:
.LFB16:
	.loc 1 213 1
	.cfi_startproc
.LVL12:
	addi	sp,sp,-16
	.cfi_def_cfa_offset 16
	sd	ra,8(sp)
	.cfi_offset 1, -8
	.loc 1 214 3
	lla	a0,.LC4
.LVL13:
	call	caml_invalid_argument
.LVL14:
	.cfi_endproc
.LFE16:
	.size	caml_reify_bytecode, .-caml_reify_bytecode
	.section	.rodata.str1.8
	.align	3
.LC5:
	.string	"Meta.static_release_bytecode"
	.text
	.align	1
	.globl	caml_static_release_bytecode
	.type	caml_static_release_bytecode, @function
caml_static_release_bytecode:
.LFB17:
	.loc 1 219 1
	.cfi_startproc
.LVL15:
	addi	sp,sp,-16
	.cfi_def_cfa_offset 16
	sd	ra,8(sp)
	.cfi_offset 1, -8
	.loc 1 220 3
	lla	a0,.LC5
.LVL16:
	call	caml_invalid_argument
.LVL17:
	.cfi_endproc
.LFE17:
	.size	caml_static_release_bytecode, .-caml_static_release_bytecode
	.comm	caml_external_raise,8,8
	.comm	caml_async_action_hook,8,8
	.comm	caml_something_to_do,4,4
	.comm	caml_callback_depth,4,4
	.comm	caml_trapsp,8,8
	.comm	caml_extern_sp,8,8
	.comm	caml_stack_threshold,8,8
	.comm	caml_stack_high,8,8
	.comm	caml_stack_low,8,8
	.comm	caml_major_work_credit,8,8
	.comm	caml_major_ring_index,4,4
	.comm	caml_major_ring,400,8
	.comm	caml_code_fragments_table,16,8
.Letext0:
	.file 2 "/home/sai/Shakti-TEE-Build/riscv/lib/gcc/riscv64-unknown-elf/9.2.0/include/stddef.h"
	.file 3 "caml/config.h"
	.file 4 "caml/misc.h"
	.file 5 "caml/mlvalues.h"
	.file 6 "/home/sai/ocaml-freestanding-riscv/nolibc/include/signal.h"
	.file 7 "caml/fail.h"
	.file 8 "caml/fix_code.h"
	.file 9 "caml/io.h"
	.file 10 "caml/intext.h"
	.file 11 "caml/freelist.h"
	.file 12 "caml/major_gc.h"
	.file 13 "caml/address_class.h"
	.file 14 "caml/minor_gc.h"
	.file 15 "caml/memory.h"
	.file 16 "caml/prims.h"
	.file 17 "caml/stacks.h"