	.file	"misc.c"
	.option nopic
	.attribute arch, "rv64i2p0_m2p0_a2p0_f2p0_d2p0_c2p0"
	.attribute unaligned_access, 0
	.attribute stack_align, 16
	.text
.Ltext0:
	.cfi_sections	.debug_frame
	.align	1
	.globl	caml_gc_message
	.type	caml_gc_message, @function
caml_gc_message:
.LFB8:
	.file 1 "misc.c"
	.loc 1 57 1
	.cfi_startproc
.LVL0:
	addi	sp,sp,-80
	.cfi_def_cfa_offset 80
	sd	ra,24(sp)
	sd	s0,16(sp)
	.cfi_offset 1, -56
	.cfi_offset 8, -64
	sd	a2,32(sp)
	sd	a3,40(sp)
	sd	a4,48(sp)
	sd	a5,56(sp)
	sd	a6,64(sp)
	sd	a7,72(sp)
	.loc 1 58 3
	.loc 1 58 21 is_stmt 0
	ld	a5,caml_verb_gc
	and	a0,a0,a5
.LVL1:
	.loc 1 58 6
	bne	a0,zero,.L4
.LVL2:
.L1:
	.loc 1 65 1
	ld	ra,24(sp)
	.cfi_remember_state
	.cfi_restore 1
	ld	s0,16(sp)
	.cfi_restore 8
	addi	sp,sp,80
	.cfi_def_cfa_offset 0
	jr	ra
.LVL3:
.L4:
	.cfi_restore_state
.LBB2:
	.loc 1 59 5 is_stmt 1
	.loc 1 60 5
	addi	a2,sp,32
	sd	a2,8(sp)
	.loc 1 61 5
	lla	s0,stderr
	ld	a0,0(s0)
	call	vfprintf
.LVL4:
	.loc 1 62 5
	.loc 1 63 5
	ld	a0,0(s0)
	call	fflush
.LVL5:
.LBE2:
	.loc 1 65 1 is_stmt 0
	j	.L1
	.cfi_endproc
.LFE8:
	.size	caml_gc_message, .-caml_gc_message
	.align	1
	.globl	caml_fatal_error
	.type	caml_fatal_error, @function
caml_fatal_error:
.LFB9:
	.loc 1 68 1 is_stmt 1
	.cfi_startproc
.LVL6:
	addi	sp,sp,-16
	.cfi_def_cfa_offset 16
	sd	ra,8(sp)
	.cfi_offset 1, -8
	.loc 1 69 3
	ld	a1,stderr
	call	fputs
.LVL7:
	.loc 1 70 3
	li	a0,2
	call	exit
.LVL8:
	.cfi_endproc
.LFE9:
	.size	caml_fatal_error, .-caml_fatal_error
	.align	1
	.globl	caml_fatal_error_arg
	.type	caml_fatal_error_arg, @function
caml_fatal_error_arg:
.LFB10:
	.loc 1 74 1
	.cfi_startproc
.LVL9:
	addi	sp,sp,-16
	.cfi_def_cfa_offset 16
	sd	ra,8(sp)
	.cfi_offset 1, -8
	mv	a2,a1
	.loc 1 75 3
	mv	a1,a0
.LVL10:
	ld	a0,stderr
.LVL11:
	call	fprintf
.LVL12:
	.loc 1 76 3
	li	a0,2
	call	exit
.LVL13:
	.cfi_endproc
.LFE10:
	.size	caml_fatal_error_arg, .-caml_fatal_error_arg
	.align	1
	.globl	caml_fatal_error_arg2
	.type	caml_fatal_error_arg2, @function
caml_fatal_error_arg2:
.LFB11:
	.loc 1 81 1
	.cfi_startproc
.LVL14:
	addi	sp,sp,-32
	.cfi_def_cfa_offset 32
	sd	ra,24(sp)
	sd	s0,16(sp)
	sd	s1,8(sp)
	sd	s2,0(sp)
	.cfi_offset 1, -8
	.cfi_offset 8, -16
	.cfi_offset 9, -24
	.cfi_offset 18, -32
	mv	s0,a2
	mv	s1,a3
	.loc 1 82 3
	lla	s2,stderr
	mv	a2,a1
.LVL15:
	mv	a1,a0
.LVL16:
	ld	a0,0(s2)
.LVL17:
	call	fprintf
.LVL18:
	.loc 1 83 3
	mv	a2,s1
	mv	a1,s0
	ld	a0,0(s2)
	call	fprintf
.LVL19:
	.loc 1 84 3
	li	a0,2
	call	exit
.LVL20:
	.cfi_endproc
.LFE11:
	.size	caml_fatal_error_arg2, .-caml_fatal_error_arg2
	.align	1
	.globl	caml_ext_table_init
	.type	caml_ext_table_init, @function
caml_ext_table_init:
.LFB12:
	.loc 1 91 1
	.cfi_startproc
.LVL21:
	addi	sp,sp,-16
	.cfi_def_cfa_offset 16
	sd	ra,8(sp)
	sd	s0,0(sp)
	.cfi_offset 1, -8
	.cfi_offset 8, -16
	mv	s0,a0
	.loc 1 92 3
	.loc 1 92 13 is_stmt 0
	sw	zero,0(a0)
	.loc 1 93 3 is_stmt 1
	.loc 1 93 17 is_stmt 0
	sw	a1,4(a0)
	.loc 1 94 3 is_stmt 1
	.loc 1 94 19 is_stmt 0
	slli	a0,a1,3
.LVL22:
	call	caml_stat_alloc
.LVL23:
	.loc 1 94 17
	sd	a0,8(s0)
	.loc 1 95 1
	ld	ra,8(sp)
	.cfi_restore 1
	ld	s0,0(sp)
	.cfi_restore 8
.LVL24:
	addi	sp,sp,16
	.cfi_def_cfa_offset 0
	jr	ra
	.cfi_endproc
.LFE12:
	.size	caml_ext_table_init, .-caml_ext_table_init
	.align	1
	.globl	caml_ext_table_add
	.type	caml_ext_table_add, @function
caml_ext_table_add:
.LFB13:
	.loc 1 98 1 is_stmt 1
	.cfi_startproc
.LVL25:
	addi	sp,sp,-32
	.cfi_def_cfa_offset 32
	sd	ra,24(sp)
	sd	s0,16(sp)
	sd	s1,8(sp)
	.cfi_offset 1, -8
	.cfi_offset 8, -16
	.cfi_offset 9, -24
	mv	s0,a0
	mv	s1,a1
	.loc 1 99 3
	.loc 1 100 3
	.loc 1 100 10 is_stmt 0
	lw	a4,0(a0)
	.loc 1 100 23
	lw	a5,4(a0)
	.loc 1 100 6
	bge	a4,a5,.L16
.LVL26:
.L14:
	.loc 1 105 3 is_stmt 1
	.loc 1 105 7 is_stmt 0
	lw	a0,0(s0)
.LVL27:
	.loc 1 106 3 is_stmt 1
	.loc 1 106 6 is_stmt 0
	ld	a5,8(s0)
	.loc 1 106 16
	slli	a4,a0,3
	add	a5,a5,a4
	.loc 1 106 22
	sd	s1,0(a5)
	.loc 1 107 3 is_stmt 1
	.loc 1 107 6 is_stmt 0
	lw	a5,0(s0)
	.loc 1 107 12
	addiw	a5,a5,1
	sw	a5,0(s0)
	.loc 1 108 3 is_stmt 1
	.loc 1 109 1 is_stmt 0
	ld	ra,24(sp)
	.cfi_remember_state
	.cfi_restore 1
	ld	s0,16(sp)
	.cfi_restore 8
.LVL28:
	ld	s1,8(sp)
	.cfi_restore 9
.LVL29:
	addi	sp,sp,32
	.cfi_def_cfa_offset 0
	jr	ra
.LVL30:
.L16:
	.cfi_restore_state
	.loc 1 101 5 is_stmt 1
	.loc 1 101 19 is_stmt 0
	slliw	a5,a5,1
	sext.w	a1,a5
	sw	a5,4(a0)
	.loc 1 102 5 is_stmt 1
	.loc 1 103 7 is_stmt 0
	slli	a1,a1,3
	ld	a0,8(a0)
	call	caml_stat_resize
.LVL31:
	.loc 1 102 19
	sd	a0,8(s0)
	j	.L14
	.cfi_endproc
.LFE13:
	.size	caml_ext_table_add, .-caml_ext_table_add
	.align	1
	.globl	caml_ext_table_remove
	.type	caml_ext_table_remove, @function
caml_ext_table_remove:
.LFB14:
	.loc 1 112 1 is_stmt 1
	.cfi_startproc
.LVL32:
	addi	sp,sp,-48
	.cfi_def_cfa_offset 48
	sd	ra,40(sp)
	sd	s0,32(sp)
	sd	s1,24(sp)
	sd	s2,16(sp)
	sd	s3,8(sp)
	.cfi_offset 1, -8
	.cfi_offset 8, -16
	.cfi_offset 9, -24
	.cfi_offset 18, -32
	.cfi_offset 19, -40
	mv	s1,a0
	mv	s3,a1
	.loc 1 113 3
	.loc 1 114 3
.LVL33:
	.loc 1 114 10 is_stmt 0
	li	s0,0
	.loc 1 114 3
	j	.L18
.LVL34:
.L19:
	.loc 1 114 30 is_stmt 1 discriminator 2
	.loc 1 114 31 is_stmt 0 discriminator 2
	addiw	s0,s0,1
.LVL35:
.L18:
	.loc 1 114 15 is_stmt 1 discriminator 1
	.loc 1 114 22 is_stmt 0 discriminator 1
	lw	a5,0(s1)
	.loc 1 114 3 discriminator 1
	ble	a5,s0,.L22
	.loc 1 115 5 is_stmt 1
	.loc 1 115 12 is_stmt 0
	ld	a5,8(s1)
	.loc 1 115 22
	slli	s2,s0,3
	add	a5,a5,s2
	ld	a0,0(a5)
	.loc 1 115 8
	bne	a0,s3,.L19
	.loc 1 116 7 is_stmt 1
	call	caml_stat_free
.LVL36:
	.loc 1 117 7
	.loc 1 117 19 is_stmt 0
	ld	a0,8(s1)
	.loc 1 117 48
	addi	a1,s0,1
	slli	a1,a1,3
	.loc 1 118 19
	lw	a2,0(s1)
	.loc 1 118 26
	subw	a2,a2,s0
	.loc 1 118 30
	addiw	a2,a2,-1
	.loc 1 117 7
	slli	a2,a2,3
	add	a1,a0,a1
	add	a0,a0,s2
	call	memmove
.LVL37:
	.loc 1 119 7 is_stmt 1
	.loc 1 119 10 is_stmt 0
	lw	a5,0(s1)
	.loc 1 119 16
	addiw	a5,a5,-1
	sw	a5,0(s1)
	j	.L19
.L22:
	.loc 1 122 1
	ld	ra,40(sp)
	.cfi_restore 1
	ld	s0,32(sp)
	.cfi_restore 8
.LVL38:
	ld	s1,24(sp)
	.cfi_restore 9
.LVL39:
	ld	s2,16(sp)
	.cfi_restore 18
	ld	s3,8(sp)
	.cfi_restore 19
.LVL40:
	addi	sp,sp,48
	.cfi_def_cfa_offset 0
	jr	ra
	.cfi_endproc
.LFE14:
	.size	caml_ext_table_remove, .-caml_ext_table_remove
	.align	1
	.globl	caml_ext_table_clear
	.type	caml_ext_table_clear, @function
caml_ext_table_clear:
.LFB15:
	.loc 1 125 1 is_stmt 1
	.cfi_startproc
.LVL41:
	addi	sp,sp,-32
	.cfi_def_cfa_offset 32
	sd	ra,24(sp)
	sd	s0,16(sp)
	sd	s1,8(sp)
	.cfi_offset 1, -8
	.cfi_offset 8, -16
	.cfi_offset 9, -24
	mv	s1,a0
	.loc 1 126 3
	.loc 1 127 3
	.loc 1 127 6 is_stmt 0
	bne	a1,zero,.L27
.LVL42:
.L25:
	.loc 1 130 3 is_stmt 1
	.loc 1 130 13 is_stmt 0
	sw	zero,0(s1)
	.loc 1 131 1
	ld	ra,24(sp)
	.cfi_remember_state
	.cfi_restore 1
	ld	s0,16(sp)
	.cfi_restore 8
	ld	s1,8(sp)
	.cfi_restore 9
.LVL43:
	addi	sp,sp,32
	.cfi_def_cfa_offset 0
	jr	ra
.LVL44:
.L27:
	.cfi_restore_state
	.loc 1 128 12
	li	s0,0
.LVL45:
.L24:
	.loc 1 128 17 is_stmt 1 discriminator 1
	.loc 1 128 24 is_stmt 0 discriminator 1
	lw	a5,0(s1)
	.loc 1 128 5 discriminator 1
	ble	a5,s0,.L25
	.loc 1 128 37 is_stmt 1 discriminator 3
	.loc 1 128 55 is_stmt 0 discriminator 3
	ld	a5,8(s1)
	.loc 1 128 65 discriminator 3
	slli	a4,s0,3
	add	a5,a5,a4
	.loc 1 128 37 discriminator 3
	ld	a0,0(a5)
	call	caml_stat_free
.LVL46:
	.loc 1 128 32 is_stmt 1 discriminator 3
	.loc 1 128 33 is_stmt 0 discriminator 3
	addiw	s0,s0,1
.LVL47:
	j	.L24
	.cfi_endproc
.LFE15:
	.size	caml_ext_table_clear, .-caml_ext_table_clear
	.align	1
	.globl	caml_ext_table_free
	.type	caml_ext_table_free, @function
caml_ext_table_free:
.LFB16:
	.loc 1 134 1 is_stmt 1
	.cfi_startproc
.LVL48:
	addi	sp,sp,-16
	.cfi_def_cfa_offset 16
	sd	ra,8(sp)
	sd	s0,0(sp)
	.cfi_offset 1, -8
	.cfi_offset 8, -16
	mv	s0,a0
	.loc 1 135 3
	call	caml_ext_table_clear
.LVL49:
	.loc 1 136 3
	ld	a0,8(s0)
	call	caml_stat_free
.LVL50:
	.loc 1 137 1 is_stmt 0
	ld	ra,8(sp)
	.cfi_restore 1
	ld	s0,0(sp)
	.cfi_restore 8
.LVL51:
	addi	sp,sp,16
	.cfi_def_cfa_offset 0
	jr	ra
	.cfi_endproc
.LFE16:
	.size	caml_ext_table_free, .-caml_ext_table_free
	.section	.rodata.str1.8,"aMS",@progbits,1
	.align	3
.LC0:
	.string	"[ocaml] (use Sys.enable_runtime_warnings to control these warnings)\n"
	.text
	.align	1
	.globl	caml_runtime_warnings_active
	.type	caml_runtime_warnings_active, @function
caml_runtime_warnings_active:
.LFB17:
	.loc 1 190 1 is_stmt 1
	.cfi_startproc
	.loc 1 191 3
	.loc 1 191 7 is_stmt 0
	ld	a5,caml_runtime_warnings
	.loc 1 191 6
	beq	a5,zero,.L33
	.loc 1 192 3 is_stmt 1
	.loc 1 192 7 is_stmt 0
	lw	a5,caml_runtime_warnings_first
	.loc 1 192 6
	bne	a5,zero,.L39
	.loc 1 197 10
	li	a0,1
	.loc 1 198 1
	ret
.L39:
	.loc 1 190 1
	addi	sp,sp,-16
	.cfi_def_cfa_offset 16
	sd	ra,8(sp)
	.cfi_offset 1, -8
	.loc 1 193 5 is_stmt 1
	ld	a3,stderr
	li	a2,68
	li	a1,1
	lla	a0,.LC0
	call	fwrite
.LVL52:
	.loc 1 195 5
	.loc 1 195 33 is_stmt 0
	sw	zero,caml_runtime_warnings_first,a5
	.loc 1 197 10
	li	a0,1
	.loc 1 198 1
	ld	ra,8(sp)
	.cfi_restore 1
	addi	sp,sp,16
	.cfi_def_cfa_offset 0
	jr	ra
.L33:
	.loc 1 191 38
	li	a0,0
	ret
	.cfi_endproc
.LFE17:
	.size	caml_runtime_warnings_active, .-caml_runtime_warnings_active
	.globl	caml_runtime_warnings
	.globl	caml_verb_gc
	.globl	caml_finalise_end_hook
	.globl	caml_finalise_begin_hook
	.globl	caml_minor_gc_end_hook
	.globl	caml_minor_gc_begin_hook
	.globl	caml_major_slice_end_hook
	.globl	caml_major_slice_begin_hook
	.comm	caml_major_work_credit,8,8
	.comm	caml_major_ring_index,4,4
	.comm	caml_major_ring,400,8
	.section	.sbss,"aw",@nobits
	.align	3
	.type	caml_runtime_warnings, @object
	.size	caml_runtime_warnings, 8
caml_runtime_warnings:
	.zero	8
	.type	caml_verb_gc, @object
	.size	caml_verb_gc, 8
caml_verb_gc:
	.zero	8
	.type	caml_finalise_end_hook, @object
	.size	caml_finalise_end_hook, 8
caml_finalise_end_hook:
	.zero	8
	.type	caml_finalise_begin_hook, @object
	.size	caml_finalise_begin_hook, 8
caml_finalise_begin_hook:
	.zero	8
	.type	caml_minor_gc_end_hook, @object
	.size	caml_minor_gc_end_hook, 8
caml_minor_gc_end_hook:
	.zero	8
	.type	caml_minor_gc_begin_hook, @object
	.size	caml_minor_gc_begin_hook, 8
caml_minor_gc_begin_hook:
	.zero	8
	.type	caml_major_slice_end_hook, @object
	.size	caml_major_slice_end_hook, 8
caml_major_slice_end_hook:
	.zero	8
	.type	caml_major_slice_begin_hook, @object
	.size	caml_major_slice_begin_hook, 8
caml_major_slice_begin_hook:
	.zero	8
	.section	.sdata,"aw"
	.align	2
	.type	caml_runtime_warnings_first, @object
	.size	caml_runtime_warnings_first, 4
caml_runtime_warnings_first:
	.word	1
	.text
.Letext0:
	.file 2 "/home/sai/Shakti-TEE-Build/riscv/lib/gcc/riscv64-unknown-elf/9.2.0/include/stdarg.h"
	.file 3 "/home/sai/Shakti-TEE-Build/riscv/lib/gcc/riscv64-unknown-elf/9.2.0/include/stddef.h"
	.file 4 "/home/sai/ocaml-freestanding-riscv/nolibc/include/stdio.h"
	.file 5 "caml/config.h"
	.file 6 "caml/misc.h"
	.file 7 "caml/mlvalues.h"
	.file 8 "caml/freelist.h"
	.file 9 "caml/major_gc.h"
	.file 10 "caml/address_class.h"
	.file 11 "caml/minor_gc.h"
	.file 12 "caml/memory.h"
	.file 13 "/home/sai/ocaml-freestanding-riscv/nolibc/include/string.h"
	.file 14 "/home/sai/ocaml-freestanding-riscv/nolibc/include/stdlib.h"
	.file 15 "<built-in>"