	.file	"parsing.c"
	.option nopic
	.attribute arch, "rv64i2p0_m2p0_a2p0_f2p0_d2p0_c2p0"
	.attribute unaligned_access, 0
	.attribute stack_align, 16
	.text
.Ltext0:
	.cfi_sections	.debug_frame
	.section	.rodata.str1.8,"aMS",@progbits,1
	.align	3
.LC0:
	.string	"<unknown token>"
	.text
	.align	1
	.type	token_name, @function
token_name:
.LFB12:
	.file 1 "parsing.c"
	.loc 1 110 1
	.cfi_startproc
.LVL0:
	addi	sp,sp,-32
	.cfi_def_cfa_offset 32
	sd	ra,24(sp)
	sd	s0,16(sp)
	sd	s1,8(sp)
	.cfi_offset 1, -8
	.cfi_offset 8, -16
	.cfi_offset 9, -24
	mv	s0,a0
	mv	s1,a1
	.loc 1 111 3
.LVL1:
.L2:
	.loc 1 111 21 discriminator 1
	.loc 1 111 3 is_stmt 0 discriminator 1
	ble	s1,zero,.L3
	.loc 1 112 5 is_stmt 1
	.loc 1 112 14 is_stmt 0
	lbu	a5,0(s0)
	.loc 1 112 8
	beq	a5,zero,.L5
	.loc 1 113 5 is_stmt 1
	.loc 1 113 14 is_stmt 0
	mv	a0,s0
	call	strlen
.LVL2:
	.loc 1 113 11
	addi	a0,a0,1
	add	s0,s0,a0
.LVL3:
	.loc 1 111 33 is_stmt 1
	.loc 1 111 39 is_stmt 0
	addiw	s1,s1,-1
.LVL4:
	j	.L2
.LVL5:
.L5:
	.loc 1 112 31
	lla	s0,.LC0
.LVL6:
.L3:
	.loc 1 116 1
	mv	a0,s0
	ld	ra,24(sp)
	.cfi_restore 1
	ld	s0,16(sp)
	.cfi_restore 8
	ld	s1,8(sp)
	.cfi_restore 9
.LVL7:
	addi	sp,sp,32
	.cfi_def_cfa_offset 0
	jr	ra
	.cfi_endproc
.LFE12:
	.size	token_name, .-token_name
	.section	.rodata.str1.8
	.align	3
.LC1:
	.string	"State %d: read token %s\n"
	.align	3
.LC2:
	.string	"State %d: read token %s("
	.align	3
.LC3:
	.string	"%ld"
	.align	3
.LC4:
	.string	"%g"
	.align	3
.LC5:
	.string	")\n"
	.text
	.align	1
	.type	print_token, @function
print_token:
.LFB13:
	.loc 1 119 1 is_stmt 1
	.cfi_startproc
.LVL8:
	addi	sp,sp,-32
	.cfi_def_cfa_offset 32
	sd	ra,24(sp)
	sd	s0,16(sp)
	sd	s1,8(sp)
	.cfi_offset 1, -8
	.cfi_offset 8, -16
	.cfi_offset 9, -24
	mv	s1,a1
	mv	s0,a2
	.loc 1 120 3
	.loc 1 122 3
	.loc 1 122 7 is_stmt 0
	andi	a5,a2,1
	.loc 1 122 6
	beq	a5,zero,.L8
	.loc 1 123 5 is_stmt 1
	.loc 1 124 52 is_stmt 0
	srai	s0,a2,1
	.loc 1 123 5
	sext.w	a1,s0
.LVL9:
	ld	a0,112(a0)
.LVL10:
	call	token_name
.LVL11:
	mv	a3,a0
	mv	a2,s1
	lla	a1,.LC1
	ld	a0,stderr
	call	fprintf
.LVL12:
.L7:
	.loc 1 139 1
	ld	ra,24(sp)
	.cfi_remember_state
	.cfi_restore 1
	ld	s0,16(sp)
	.cfi_restore 8
	ld	s1,8(sp)
	.cfi_restore 9
	addi	sp,sp,32
	.cfi_def_cfa_offset 0
	jr	ra
.LVL13:
.L8:
	.cfi_restore_state
	.loc 1 126 5 is_stmt 1
	lbu	a1,-8(a2)
.LVL14:
	ld	a0,120(a0)
.LVL15:
	call	token_name
.LVL16:
	mv	a3,a0
	mv	a2,s1
	lla	a1,.LC2
	ld	a0,stderr
	call	fprintf
.LVL17:
	.loc 1 128 5
	.loc 1 128 7 is_stmt 0
	ld	a0,0(s0)
.LVL18:
	.loc 1 129 5 is_stmt 1
	.loc 1 129 9 is_stmt 0
	andi	a5,a0,1
	.loc 1 129 8
	bne	a5,zero,.L15
	.loc 1 131 10 is_stmt 1
	.loc 1 131 14 is_stmt 0
	lbu	a5,-8(a0)
	.loc 1 131 13
	li	a4,252
	beq	a5,a4,.L16
	.loc 1 133 10 is_stmt 1
	.loc 1 133 13 is_stmt 0
	li	a4,253
	beq	a5,a4,.L17
	.loc 1 136 7 is_stmt 1
	ld	a1,stderr
	li	a0,95
.LVL19:
	call	fputc
.LVL20:
.L11:
	.loc 1 137 5
	ld	a3,stderr
	li	a2,2
	li	a1,1
	lla	a0,.LC5
	call	fwrite
.LVL21:
	.loc 1 139 1 is_stmt 0
	j	.L7
.LVL22:
.L15:
	.loc 1 130 7 is_stmt 1
	srai	a2,a0,1
	lla	a1,.LC3
	ld	a0,stderr
.LVL23:
	call	fprintf
.LVL24:
	j	.L11
.LVL25:
.L16:
	.loc 1 132 7
	ld	a1,stderr
	call	fputs
.LVL26:
	j	.L11
.LVL27:
.L17:
	.loc 1 134 7
	ld	a2,0(a0)
	lla	a1,.LC4
	ld	a0,stderr
.LVL28:
	call	fprintf
.LVL29:
	j	.L11
	.cfi_endproc
.LFE13:
	.size	print_token, .-print_token
	.section	.rodata.str1.8
	.align	3
.LC6:
	.string	"Recovering in state %d\n"
	.align	3
.LC7:
	.string	"Discarding state %d\n"
	.align	3
.LC8:
	.string	"No more states to discard\n"
	.align	3
.LC9:
	.string	"Discarding last token read\n"
	.align	3
.LC10:
	.string	"State %d: shift to state %d\n"
	.align	3
.LC11:
	.string	"State %d: reduce by rule %d\n"
	.text
	.align	1
	.globl	caml_parse_engine
	.type	caml_parse_engine, @function
caml_parse_engine:
.LFB14:
	.loc 1 145 1
	.cfi_startproc
.LVL30:
	addi	sp,sp,-80
	.cfi_def_cfa_offset 80
	sd	ra,72(sp)
	sd	s0,64(sp)
	sd	s1,56(sp)
	sd	s2,48(sp)
	sd	s3,40(sp)
	sd	s4,32(sp)
	sd	s5,24(sp)
	sd	s6,16(sp)
	sd	s7,8(sp)
	.cfi_offset 1, -8
	.cfi_offset 8, -16
	.cfi_offset 9, -24
	.cfi_offset 18, -32
	.cfi_offset 19, -40
	.cfi_offset 20, -48
	.cfi_offset 21, -56
	.cfi_offset 22, -64
	.cfi_offset 23, -72
	.loc 1 146 3
	.loc 1 147 3
	.loc 1 148 3
	.loc 1 149 3
	.loc 1 151 3
	.loc 1 151 10 is_stmt 0
	srai	a2,a2,1
.LVL31:
	sext.w	s2,a2
	li	a5,5
	bgtu	s2,a5,.L52
	mv	s3,a0
	mv	s0,a1
	mv	s5,a3
	slli	a4,s2,2
	lla	a3,.L21
.LVL32:
	add	a4,a4,a3
	lw	a5,0(a4)
	add	a5,a5,a3
	jr	a5
	.section	.rodata
	.align	2
	.align	2
.L21:
	.word	.L26-.L21
	.word	.L25-.L21
	.word	.L24-.L21
	.word	.L23-.L21
	.word	.L22-.L21
	.word	.L20-.L21
	.text
.L26:
	.loc 1 154 5 is_stmt 1
.LVL33:
	.loc 1 155 5
	.loc 1 155 10 is_stmt 0
	ld	s1,104(a1)
	srai	s1,s1,1
	sext.w	s1,s1
.LVL34:
	.loc 1 156 5 is_stmt 1
	.loc 1 156 13 is_stmt 0
	mv	s4,s2
	j	.L27
.LVL35:
.L25:
	.loc 1 167 5 is_stmt 1
	ld	s1,104(a1)
	srai	s1,s1,1
	sext.w	s1,s1
.LVL36:
	ld	s2,112(a1)
	srai	s2,s2,1
	sext.w	s2,s2
.LVL37:
	ld	s4,120(a1)
	srai	s4,s4,1
	sext.w	s4,s4
.LVL38:
	.loc 1 168 5
	.loc 1 168 9 is_stmt 0
	andi	a5,s5,1
	.loc 1 168 8
	bne	a5,zero,.L30
	.loc 1 169 7 is_stmt 1
	.loc 1 169 24 is_stmt 0
	lbu	a5,-8(s5)
	ld	a4,16(a0)
	slli	a5,a5,3
	add	a5,a5,a4
	ld	a5,0(a5)
	.loc 1 169 22
	sd	a5,48(a1)
	.loc 1 170 7 is_stmt 1
	ld	a1,0(s5)
	addi	a0,s0,56
.LVL39:
	call	caml_modify
.LVL40:
.L31:
	.loc 1 175 5
	.loc 1 175 9 is_stmt 0
	lw	a5,caml_parser_trace
	.loc 1 175 8
	bne	a5,zero,.L55
.LVL41:
.L29:
	.loc 1 178 5 is_stmt 1
	.loc 1 178 10 is_stmt 0
	ld	a5,56(s3)
	mv	a2,s2
	slli	a3,s2,1
	add	a5,a5,a3
	.loc 1 178 8
	lh	a4,0(a5)
.LVL42:
	.loc 1 179 5 is_stmt 1
	.loc 1 179 15 is_stmt 0
	ld	s5,48(s0)
	srai	s5,s5,1
	sext.w	a1,s5
	.loc 1 179 8
	addw	s5,s5,a4
.LVL43:
	.loc 1 180 5 is_stmt 1
	.loc 1 180 8 is_stmt 0
	beq	a4,zero,.L32
	.loc 1 180 17 discriminator 1
	blt	s5,zero,.L32
	.loc 1 180 37 discriminator 2
	ld	a5,80(s3)
	srai	a5,a5,1
	sext.w	a5,a5
	.loc 1 180 28 discriminator 2
	blt	a5,s5,.L32
	.loc 1 181 9 discriminator 3
	ld	a5,96(s3)
	slli	a4,s5,1
.LVL44:
	add	a5,a5,a4
	lh	a5,0(a5)
	.loc 1 180 64 discriminator 3
	beq	a1,a5,.L56
.L32:
	.loc 1 182 5 is_stmt 1
	.loc 1 182 10 is_stmt 0
	ld	a5,64(s3)
	add	a5,a5,a3
	.loc 1 182 8
	lh	a5,0(a5)
.LVL45:
	.loc 1 183 5 is_stmt 1
	.loc 1 183 8 is_stmt 0
	addw	a4,a1,a5
.LVL46:
	.loc 1 184 5 is_stmt 1
	.loc 1 184 8 is_stmt 0
	beq	a5,zero,.L35
	.loc 1 184 17 discriminator 1
	blt	a4,zero,.L35
	.loc 1 184 37 discriminator 2
	ld	a5,80(s3)
.LVL47:
	srai	a5,a5,1
	sext.w	a5,a5
	.loc 1 184 28 discriminator 2
	blt	a5,a4,.L35
	.loc 1 185 9 discriminator 3
	ld	a5,96(s3)
	slli	a4,a4,1
	add	a5,a5,a4
	lh	a5,0(a5)
	.loc 1 184 64 discriminator 3
	beq	a1,a5,.L57
.L35:
	.loc 1 189 5 is_stmt 1
	.loc 1 189 8 is_stmt 0
	bgt	s4,zero,.L36
	.loc 1 190 5 is_stmt 1
	slli	s1,s1,1
.LVL48:
	addi	s1,s1,1
	sd	s1,104(s0)
.LVL49:
	slli	a2,a2,1
	addi	a2,a2,1
	sd	a2,112(s0)
	slli	s4,s4,1
.LVL50:
	addi	s4,s4,1
	sd	s4,120(s0)
	.loc 1 191 5
	.loc 1 191 12 is_stmt 0
	li	a0,11
	j	.L18
.LVL51:
.L30:
	.loc 1 172 7 is_stmt 1
	.loc 1 172 24 is_stmt 0
	srai	a5,s5,1
	sext.w	a5,a5
	ld	a4,8(a0)
	slli	a5,a5,3
	add	a5,a5,a4
	ld	a5,0(a5)
	.loc 1 172 22
	sd	a5,48(a1)
	.loc 1 173 7 is_stmt 1
	li	a1,1
	addi	a0,s0,56
.LVL52:
	call	caml_modify
.LVL53:
	j	.L31
.L55:
	.loc 1 175 28 discriminator 1
	mv	a2,s5
	mv	a1,s2
	mv	a0,s3
	call	print_token
.LVL54:
	j	.L29
.LVL55:
.L56:
	.loc 1 181 62
.LDL1:
	.loc 1 229 5
	.loc 1 229 20 is_stmt 0
	li	a5,-1
	sd	a5,48(s0)
.LVL56:
	.loc 1 230 5 is_stmt 1
	.loc 1 230 8 is_stmt 0
	ble	s4,zero,.L34
	.loc 1 230 22 is_stmt 1 discriminator 1
	.loc 1 230 29 is_stmt 0 discriminator 1
	addiw	s4,s4,-1
.LVL57:
	j	.L34
.LVL58:
.L57:
	.loc 1 186 7 is_stmt 1
	.loc 1 186 11 is_stmt 0
	ld	a5,88(s3)
	add	a4,a5,a4
	.loc 1 186 9
	lh	s5,0(a4)
.LVL59:
	.loc 1 187 7 is_stmt 1
.L28:
	.loc 1 251 5
	.loc 1 251 9 is_stmt 0
	lw	a5,caml_parser_trace
	.loc 1 251 8
	bne	a5,zero,.L58
.L47:
	.loc 1 253 5 is_stmt 1
	.loc 1 253 9 is_stmt 0
	ld	a5,32(s3)
	slli	s5,s5,1
.LVL60:
	add	a5,a5,s5
	lh	a5,0(a5)
.LVL61:
	.loc 1 254 5 is_stmt 1
	.loc 1 254 16 is_stmt 0
	slli	a4,s1,1
	addi	a4,a4,1
	.loc 1 254 14
	sd	a4,80(s0)
	.loc 1 255 5 is_stmt 1
	.loc 1 255 24 is_stmt 0
	addi	a4,s5,1
	.loc 1 255 22
	sd	a4,96(s0)
	.loc 1 256 5 is_stmt 1
	.loc 1 256 21 is_stmt 0
	slli	a4,a5,1
	addi	a4,a4,1
	.loc 1 256 19
	sd	a4,88(s0)
	.loc 1 257 5 is_stmt 1
	.loc 1 257 13 is_stmt 0
	sub	s1,s1,a5
.LVL62:
	.loc 1 257 8
	addi	s1,s1,1
.LVL63:
	.loc 1 258 5 is_stmt 1
	.loc 1 258 9 is_stmt 0
	ld	a5,24(s3)
.LVL64:
	add	s5,a5,s5
	lh	a4,0(s5)
.LVL65:
	.loc 1 259 5 is_stmt 1
	.loc 1 259 14 is_stmt 0
	ld	a3,0(s0)
	slli	a5,s1,3
	add	a5,a5,a3
	ld	a5,-8(a5)
	srai	a5,a5,1
	.loc 1 259 12
	sext.w	a2,a5
.LVL66:
	.loc 1 260 5 is_stmt 1
	.loc 1 260 10 is_stmt 0
	ld	a3,72(s3)
	slli	a4,a4,1
.LVL67:
	add	a3,a3,a4
	.loc 1 260 8
	lh	a3,0(a3)
.LVL68:
	.loc 1 261 5 is_stmt 1
	.loc 1 261 8 is_stmt 0
	addw	a5,a5,a3
.LVL69:
	.loc 1 262 5 is_stmt 1
	.loc 1 262 8 is_stmt 0
	beq	a3,zero,.L48
	.loc 1 262 17 discriminator 1
	blt	a5,zero,.L48
	.loc 1 262 37 discriminator 2
	ld	a3,80(s3)
.LVL70:
	srai	a3,a3,1
	sext.w	a3,a3
	.loc 1 262 28 discriminator 2
	blt	a3,a5,.L48
	.loc 1 263 9 discriminator 3
	ld	a3,96(s3)
	slli	a5,a5,1
	add	a3,a3,a5
	lh	a3,0(a3)
	.loc 1 262 64 discriminator 3
	beq	a3,a2,.L59
.L48:
	.loc 1 266 7 is_stmt 1
	.loc 1 266 15 is_stmt 0
	ld	a5,48(s3)
	add	a4,a5,a4
.LVL71:
	.loc 1 266 13
	lh	a5,0(a4)
.LVL72:
.L49:
	.loc 1 268 5 is_stmt 1
	.loc 1 268 14 is_stmt 0
	ld	a4,32(s0)
	srai	a4,a4,1
	.loc 1 268 8
	bgtu	a4,s1,.L50
	.loc 1 269 5 is_stmt 1
	slli	s1,s1,1
.LVL73:
	addi	s1,s1,1
	sd	s1,104(s0)
.LVL74:
	slli	a5,a5,1
.LVL75:
	addi	a5,a5,1
	sd	a5,112(s0)
	slli	s4,s4,1
.LVL76:
	addi	s4,s4,1
	sd	s4,120(s0)
	.loc 1 270 5
	.loc 1 270 12 is_stmt 0
	li	a0,7
	j	.L18
.LVL77:
.L20:
	.loc 1 194 5 is_stmt 1
	ld	s1,104(a1)
	srai	s1,s1,1
	sext.w	s1,s1
.LVL78:
	ld	s2,112(a1)
	srai	s2,s2,1
	sext.w	s2,s2
.LVL79:
	ld	s4,120(a1)
	srai	s4,s4,1
	sext.w	s4,s4
.LVL80:
.L36:
	.loc 1 196 5
	.loc 1 196 8 is_stmt 0
	li	a5,2
	ble	s4,a5,.L43
	.loc 1 221 7 is_stmt 1
	.loc 1 221 11 is_stmt 0
	ld	a5,48(s0)
	srai	a5,a5,1
	sext.w	a5,a5
	.loc 1 221 10
	beq	a5,zero,.L53
	.loc 1 223 7 is_stmt 1
	.loc 1 223 11 is_stmt 0
	lw	a5,caml_parser_trace
	.loc 1 223 10
	bne	a5,zero,.L60
.L44:
	.loc 1 224 7 is_stmt 1
	.loc 1 224 22 is_stmt 0
	li	a5,-1
	sd	a5,48(s0)
	.loc 1 225 7 is_stmt 1
	j	.L27
.LVL81:
.L63:
	.loc 1 205 13
	lla	a1,.LC6
	ld	a0,stderr
	call	fprintf
.LVL82:
	j	.L39
.LVL83:
.L38:
	.loc 1 208 11
	.loc 1 208 15 is_stmt 0
	lw	a5,caml_parser_trace
	.loc 1 208 14
	bne	a5,zero,.L61
.LVL84:
.L40:
	.loc 1 211 11 is_stmt 1
	.loc 1 211 21 is_stmt 0
	ld	a5,40(s0)
	srai	a5,a5,1
	sext.w	a5,a5
	.loc 1 211 14
	bgeu	a5,s1,.L62
	.loc 1 217 11 is_stmt 1
	.loc 1 217 13 is_stmt 0
	addi	s1,s1,-1
.LVL85:
	.loc 1 198 13 is_stmt 1
.L43:
	.loc 1 198 7
	.loc 1 199 9
	.loc 1 199 18 is_stmt 0
	ld	a4,0(s0)
	slli	a5,s1,3
	add	a5,a5,a4
	ld	a2,0(a5)
	srai	a2,a2,1
	.loc 1 199 16
	sext.w	a2,a2
.LVL86:
	.loc 1 200 9 is_stmt 1
	.loc 1 200 14 is_stmt 0
	ld	a5,56(s3)
	slli	a4,a2,1
	add	a5,a5,a4
	.loc 1 200 12
	lh	a5,0(a5)
.LVL87:
	.loc 1 201 9 is_stmt 1
	.loc 1 201 12 is_stmt 0
	addiw	s5,a5,256
.LVL88:
	.loc 1 202 9 is_stmt 1
	.loc 1 202 12 is_stmt 0
	beq	a5,zero,.L38
	.loc 1 202 21 discriminator 1
	blt	s5,zero,.L38
	.loc 1 202 41 discriminator 2
	ld	a5,80(s3)
.LVL89:
	srai	a5,a5,1
	sext.w	a5,a5
	.loc 1 202 32 discriminator 2
	blt	a5,s5,.L38
	.loc 1 203 13 discriminator 3
	ld	a5,96(s3)
	slli	a4,s5,1
.LVL90:
	add	a5,a5,a4
	.loc 1 202 68 discriminator 3
	lh	a4,0(a5)
	li	a5,256
	bne	a4,a5,.L38
	.loc 1 204 11 is_stmt 1
	.loc 1 204 15 is_stmt 0
	lw	a5,caml_parser_trace
	.loc 1 204 14
	bne	a5,zero,.L63
.LVL91:
.L39:
	.loc 1 206 11 is_stmt 1
	.loc 1 197 15 is_stmt 0
	li	s4,3
.L34:
.LVL92:
	.loc 1 232 5 is_stmt 1
	.loc 1 232 9 is_stmt 0
	lw	a5,caml_parser_trace
	.loc 1 232 8
	bne	a5,zero,.L64
.L45:
	.loc 1 235 5 is_stmt 1
	.loc 1 235 13 is_stmt 0
	ld	a5,88(s3)
	slli	s5,s5,1
.LVL93:
	add	s5,a5,s5
	lh	a5,0(s5)
	.loc 1 235 11
	sext.w	s2,a5
.LVL94:
	.loc 1 236 5 is_stmt 1
	.loc 1 236 7 is_stmt 0
	addi	s1,s1,1
.LVL95:
	.loc 1 237 5 is_stmt 1
	.loc 1 237 14 is_stmt 0
	ld	a4,32(s0)
	srai	a4,a4,1
	.loc 1 237 8
	bgtu	a4,s1,.L46
	.loc 1 238 5 is_stmt 1
	slli	a4,s1,1
	addi	a4,a4,1
	sd	a4,104(s0)
	slli	a5,a5,1
	addi	a5,a5,1
	sd	a5,112(s0)
	slli	a5,s4,1
	addi	a5,a5,1
	sd	a5,120(s0)
	.loc 1 239 5
	.loc 1 239 12 is_stmt 0
	li	a0,5
	j	.L18
.LVL96:
.L61:
	.loc 1 209 13 is_stmt 1
	lla	a1,.LC7
	ld	a0,stderr
	call	fprintf
.LVL97:
	j	.L40
.L62:
	.loc 1 212 13
	.loc 1 212 17 is_stmt 0
	lw	a5,caml_parser_trace
	.loc 1 212 16
	bne	a5,zero,.L65
.L42:
	.loc 1 215 13 is_stmt 1
	.loc 1 215 20 is_stmt 0
	li	a0,3
	j	.L18
.L65:
	.loc 1 213 15 is_stmt 1
	ld	a3,stderr
	li	a2,26
	li	a1,1
	lla	a0,.LC8
	call	fwrite
.LVL98:
	j	.L42
.LVL99:
.L60:
	.loc 1 223 30 discriminator 1
	ld	a3,stderr
	li	a2,27
	li	a1,1
	lla	a0,.LC9
	call	fwrite
.LVL100:
	j	.L44
.LVL101:
.L64:
	.loc 1 233 7
	.loc 1 234 22 is_stmt 0
	ld	a5,88(s3)
	slli	a4,s5,1
	add	a5,a5,a4
	.loc 1 233 7
	lh	a3,0(a5)
	mv	a2,s2
	lla	a1,.LC10
	ld	a0,stderr
	call	fprintf
.LVL102:
	j	.L45
.LVL103:
.L24:
	.loc 1 242 5 is_stmt 1
	ld	s1,104(a1)
	srai	s1,s1,1
	sext.w	s1,s1
.LVL104:
	ld	s2,112(a1)
	srai	s2,s2,1
	sext.w	s2,s2
.LVL105:
	ld	s4,120(a1)
	srai	s4,s4,1
	sext.w	s4,s4
.LVL106:
.L46:
	.loc 1 244 5
	.loc 1 244 31 is_stmt 0
	slli	a5,s2,1
	.loc 1 244 5
	slli	s5,s1,3
	ld	a4,0(s0)
	add	a4,a4,s5
	.loc 1 244 31
	addi	a5,a5,1
	.loc 1 244 29
	sd	a5,0(a4)
	.loc 1 245 5 is_stmt 1
	.loc 1 245 18 is_stmt 0
	ld	a0,8(s0)
	.loc 1 245 5
	ld	a1,56(s0)
	add	a0,a0,s5
	call	caml_modify
.LVL107:
	.loc 1 246 5 is_stmt 1
.LBB2:
	.loc 1 246 5
	.loc 1 246 5
	.loc 1 246 5
	ld	a0,16(s0)
	ld	a1,64(s0)
	add	a0,a0,s5
	call	caml_modify
.LVL108:
.LBE2:
	.loc 1 246 5
	.loc 1 247 5
.LBB3:
	.loc 1 247 5
	.loc 1 247 5
	.loc 1 247 5
	ld	a0,24(s0)
	ld	a1,72(s0)
	add	a0,a0,s5
	call	caml_modify
.LVL109:
.LBE3:
	.loc 1 247 5
	.loc 1 248 5
.L27:
	.loc 1 159 5
	.loc 1 159 9 is_stmt 0
	ld	a5,40(s3)
	slli	a3,s2,1
	add	a5,a5,a3
	.loc 1 159 7
	lh	s5,0(a5)
.LVL110:
	.loc 1 160 5 is_stmt 1
	.loc 1 160 8 is_stmt 0
	bne	s5,zero,.L28
	.loc 1 161 5 is_stmt 1
	.loc 1 161 9 is_stmt 0
	ld	a5,48(s0)
	.loc 1 161 8
	slli	a3,a5,31
	bge	a3,zero,.L29
	.loc 1 162 5 is_stmt 1
	slli	s1,s1,1
.LVL111:
	addi	s1,s1,1
	sd	s1,104(s0)
	slli	a4,s2,1
	addi	a4,a4,1
	sd	a4,112(s0)
	slli	s4,s4,1
.LVL112:
	addi	s4,s4,1
	sd	s4,120(s0)
	.loc 1 163 5
	.loc 1 163 12 is_stmt 0
	li	a0,1
	j	.L18
.LVL113:
.L58:
	.loc 1 252 7 is_stmt 1
	mv	a3,s5
	mv	a2,s2
	lla	a1,.LC11
	ld	a0,stderr
	call	fprintf
.LVL114:
	j	.L47
.LVL115:
.L59:
	.loc 1 264 7
	.loc 1 264 15 is_stmt 0
	ld	a4,88(s3)
.LVL116:
	add	a5,a4,a5
	.loc 1 264 13
	lh	a5,0(a5)
.LVL117:
	j	.L49
.LVL118:
.L23:
	.loc 1 273 5 is_stmt 1
	ld	s1,104(a1)
	srai	s1,s1,1
	sext.w	s1,s1
.LVL119:
	ld	a5,112(a1)
	srai	a5,a5,1
	sext.w	a5,a5
.LVL120:
	ld	s4,120(a1)
	srai	s4,s4,1
	sext.w	s4,s4
.LVL121:
.L50:
	.loc 1 275 5
	slli	s1,s1,1
.LVL122:
	addi	s1,s1,1
	sd	s1,104(s0)
	slli	a5,a5,1
.LVL123:
	addi	a5,a5,1
	sd	a5,112(s0)
	slli	s4,s4,1
.LVL124:
	addi	s4,s4,1
	sd	s4,120(s0)
	.loc 1 276 5
	.loc 1 276 12 is_stmt 0
	li	a0,9
.LVL125:
.L18:
	.loc 1 295 1
	ld	ra,72(sp)
	.cfi_remember_state
	.cfi_restore 1
	ld	s0,64(sp)
	.cfi_restore 8
	ld	s1,56(sp)
	.cfi_restore 9
	ld	s2,48(sp)
	.cfi_restore 18
	ld	s3,40(sp)
	.cfi_restore 19
	ld	s4,32(sp)
	.cfi_restore 20
	ld	s5,24(sp)
	.cfi_restore 21
	ld	s6,16(sp)
	.cfi_restore 22
	ld	s7,8(sp)
	.cfi_restore 23
	addi	sp,sp,80
	.cfi_def_cfa_offset 0
	jr	ra
.LVL126:
.L22:
	.cfi_restore_state
	.loc 1 279 5 is_stmt 1
	ld	s1,104(a1)
	srai	s1,s1,1
	sext.w	s1,s1
.LVL127:
	ld	s2,112(a1)
	srai	s2,s2,1
	sext.w	s2,s2
.LVL128:
	ld	s4,120(a1)
	srai	s4,s4,1
	sext.w	s4,s4
.LVL129:
	.loc 1 280 5
	.loc 1 280 31 is_stmt 0
	slli	a4,s2,1
	.loc 1 280 5
	slli	s6,s1,3
	ld	a5,0(a1)
	add	a5,a5,s6
	.loc 1 280 31
	addi	a4,a4,1
	.loc 1 280 29
	sd	a4,0(a5)
	.loc 1 281 5 is_stmt 1
	.loc 1 281 18 is_stmt 0
	ld	a0,8(a1)
.LVL130:
	.loc 1 281 5
	mv	a1,s5
	add	a0,a0,s6
	call	caml_modify
.LVL131:
	.loc 1 282 5 is_stmt 1
	.loc 1 282 11 is_stmt 0
	ld	s5,80(s0)
.LVL132:
	srai	s5,s5,1
	sext.w	s5,s5
.LVL133:
	.loc 1 283 5 is_stmt 1
.LBB4:
	.loc 1 283 5
	.loc 1 283 5
	slli	s7,s5,3
	ld	a0,24(s0)
	add	a5,s7,a0
.LVL134:
	.loc 1 283 5
	ld	a1,0(a5)
	add	a0,s6,a0
	call	caml_modify
.LVL135:
.LBE4:
	.loc 1 283 5
	.loc 1 284 5
	.loc 1 284 8 is_stmt 0
	bleu	s1,s5,.L27
	.loc 1 286 7 is_stmt 1
.LBB5:
	.loc 1 286 7
.LVL136:
	.loc 1 286 7
	ld	a5,24(s0)
	add	s7,a5,s7
.LVL137:
	.loc 1 286 7
	ld	a0,16(s0)
	ld	a1,0(s7)
	add	a0,a0,s6
	call	caml_modify
.LVL138:
.LBE5:
	.loc 1 286 7
	.loc 1 288 5
	j	.L27
.LVL139:
.L52:
	.loc 1 151 10 is_stmt 0
	li	a0,3
.LVL140:
	j	.L18
.LVL141:
.L53:
	.loc 1 222 16
	li	a0,3
	j	.L18
	.cfi_endproc
.LFE14:
	.size	caml_parse_engine, .-caml_parse_engine
	.align	1
	.globl	caml_set_parser_trace
	.type	caml_set_parser_trace, @function
caml_set_parser_trace:
.LFB15:
	.loc 1 300 1 is_stmt 1
	.cfi_startproc
.LVL142:
	mv	a5,a0
	.loc 1 301 3
	.loc 1 301 19 is_stmt 0
	lw	a4,caml_parser_trace
	bne	a4,zero,.L69
	li	a0,1
.LVL143:
.L67:
	.loc 1 302 3 is_stmt 1 discriminator 4
	.loc 1 302 23 is_stmt 0 discriminator 4
	srai	a5,a5,1
.LVL144:
	.loc 1 302 21 discriminator 4
	sw	a5,caml_parser_trace,a4
	.loc 1 303 3 is_stmt 1 discriminator 4
	.loc 1 304 1 is_stmt 0 discriminator 4
	ret
.LVL145:
.L69:
	.loc 1 301 19
	li	a0,3
.LVL146:
	j	.L67
	.cfi_endproc
.LFE15:
	.size	caml_set_parser_trace, .-caml_set_parser_trace
	.globl	caml_parser_trace
	.comm	caml_major_work_credit,8,8
	.comm	caml_major_ring_index,4,4
	.comm	caml_major_ring,400,8
	.section	.sbss,"aw",@nobits
	.align	2
	.type	caml_parser_trace, @object
	.size	caml_parser_trace, 4
caml_parser_trace:
	.zero	4
	.text
.Letext0:
	.file 2 "/home/sai/ocaml-freestanding-riscv/nolibc/include/stdio.h"
	.file 3 "/home/sai/Shakti-TEE-Build/riscv/lib/gcc/riscv64-unknown-elf/9.2.0/include/stddef.h"
	.file 4 "caml/config.h"
	.file 5 "caml/misc.h"
	.file 6 "caml/mlvalues.h"
	.file 7 "caml/freelist.h"
	.file 8 "caml/major_gc.h"
	.file 9 "caml/address_class.h"
	.file 10 "caml/minor_gc.h"
	.file 11 "caml/memory.h"
	.file 12 "<built-in>"
	.file 13 "/home/sai/ocaml-freestanding-riscv/nolibc/include/string.h"