	.file	"startup_aux.c"
	.option nopic
	.attribute arch, "rv64i2p0_m2p0_a2p0_f2p0_d2p0_c2p0"
	.attribute unaligned_access, 0
	.attribute stack_align, 16
	.text
.Ltext0:
	.cfi_sections	.debug_frame
	.section	.rodata.str1.8,"aMS",@progbits,1
	.align	3
.LC0:
	.string	"=%u%c"
	.align	3
.LC1:
	.string	"=0x%x%c"
	.text
	.align	1
	.type	scanmult, @function
scanmult:
.LFB9:
	.file 1 "startup_aux.c"
	.loc 1 68 1
	.cfi_startproc
.LVL0:
	addi	sp,sp,-48
	.cfi_def_cfa_offset 48
	sd	ra,40(sp)
	sd	s0,32(sp)
	sd	s1,24(sp)
	.cfi_offset 1, -8
	.cfi_offset 8, -16
	.cfi_offset 9, -24
	mv	s1,a0
	mv	s0,a1
	.loc 1 69 3
	.loc 1 69 11 is_stmt 0
	li	a5,32
	sb	a5,15(sp)
	.loc 1 70 3 is_stmt 1
	.loc 1 70 16 is_stmt 0
	li	a5,1
	sw	a5,8(sp)
	.loc 1 71 3 is_stmt 1
	addi	a3,sp,15
	addi	a2,sp,8
	lla	a1,.LC0
.LVL1:
	call	sscanf
.LVL2:
	.loc 1 72 3
	addi	a3,sp,15
	addi	a2,sp,8
	lla	a1,.LC1
	mv	a0,s1
	call	sscanf
.LVL3:
	.loc 1 73 3
	lbu	a5,15(sp)
	li	a4,77
	beq	a5,a4,.L2
	li	a4,107
	beq	a5,a4,.L3
	li	a4,71
	beq	a5,a4,.L9
	.loc 1 77 15
	.loc 1 77 22 is_stmt 0
	lwu	a5,8(sp)
	.loc 1 77 20
	sd	a5,0(s0)
	.loc 1 77 37 is_stmt 1
	.loc 1 79 1 is_stmt 0
	j	.L1
.L3:
	.loc 1 74 19 is_stmt 1
	.loc 1 74 26 is_stmt 0
	lwu	a5,8(sp)
	.loc 1 74 40
	slli	a5,a5,10
	.loc 1 74 24
	sd	a5,0(s0)
	.loc 1 74 48 is_stmt 1
.L1:
	.loc 1 79 1 is_stmt 0
	ld	ra,40(sp)
	.cfi_remember_state
	.cfi_restore 1
	ld	s0,32(sp)
	.cfi_restore 8
.LVL4:
	ld	s1,24(sp)
	.cfi_restore 9
.LVL5:
	addi	sp,sp,48
	.cfi_def_cfa_offset 0
	jr	ra
.LVL6:
.L2:
	.cfi_restore_state
	.loc 1 75 19 is_stmt 1
	.loc 1 75 26 is_stmt 0
	lwu	a5,8(sp)
	.loc 1 75 40
	slli	a5,a5,20
	.loc 1 75 24
	sd	a5,0(s0)
	.loc 1 75 57 is_stmt 1
	.loc 1 75 3 is_stmt 0
	j	.L1
.L9:
	.loc 1 76 19 is_stmt 1
	.loc 1 76 26 is_stmt 0
	lwu	a5,8(sp)
	.loc 1 76 40
	slli	a5,a5,30
	.loc 1 76 24
	sd	a5,0(s0)
	.loc 1 76 64 is_stmt 1
	.loc 1 76 3 is_stmt 0
	j	.L1
	.cfi_endproc
.LFE9:
	.size	scanmult, .-scanmult
	.align	1
	.type	call_registered_value, @function
call_registered_value:
.LFB12:
	.loc 1 142 1 is_stmt 1
	.cfi_startproc
.LVL7:
	addi	sp,sp,-16
	.cfi_def_cfa_offset 16
	sd	ra,8(sp)
	.cfi_offset 1, -8
	.loc 1 143 3
	.loc 1 143 14 is_stmt 0
	call	caml_named_value
.LVL8:
	.loc 1 144 3 is_stmt 1
	.loc 1 144 6 is_stmt 0
	beq	a0,zero,.L10
	.loc 1 145 5 is_stmt 1
	li	a1,1
	ld	a0,0(a0)
.LVL9:
	call	caml_callback_exn
.LVL10:
.L10:
	.loc 1 146 1 is_stmt 0
	ld	ra,8(sp)
	.cfi_restore 1
	addi	sp,sp,16
	.cfi_def_cfa_offset 0
	jr	ra
	.cfi_endproc
.LFE12:
	.size	call_registered_value, .-call_registered_value
	.section	.rodata.str1.8
	.align	3
.LC2:
	.string	"Fatal error: not enough memory for initial page table"
	.text
	.align	1
	.globl	caml_init_atom_table
	.type	caml_init_atom_table, @function
caml_init_atom_table:
.LFB8:
	.loc 1 37 1 is_stmt 1
	.cfi_startproc
	addi	sp,sp,-16
	.cfi_def_cfa_offset 16
	sd	ra,8(sp)
	.cfi_offset 1, -8
	.loc 1 38 3
	.loc 1 39 3
.LVL11:
	.loc 1 39 9 is_stmt 0
	li	a5,0
.LVL12:
.L14:
	.loc 1 39 14 is_stmt 1 discriminator 1
	.loc 1 39 3 is_stmt 0 discriminator 1
	li	a4,255
	bgt	a5,a4,.L18
	.loc 1 41 5 is_stmt 1 discriminator 3
	.loc 1 41 26 is_stmt 0 discriminator 3
	slli	a3,a5,32
	srli	a3,a3,32
	.loc 1 41 24 discriminator 3
	slli	a2,a5,3
	lla	a4,caml_atom_table
	add	a4,a4,a2
	sd	a3,0(a4)
	.loc 1 39 23 is_stmt 1 discriminator 3
	.loc 1 39 24 is_stmt 0 discriminator 3
	addiw	a5,a5,1
.LVL13:
	j	.L14
.LVL14:
.L18:
	.loc 1 46 3 is_stmt 1
	.loc 1 46 7 is_stmt 0
	lla	a2,caml_atom_table+2048
	lla	a1,caml_atom_table
	li	a0,4
	call	caml_page_table_add
.LVL15:
	.loc 1 46 6
	bne	a0,zero,.L19
	.loc 1 50 1
	ld	ra,8(sp)
	.cfi_remember_state
	.cfi_restore 1
	addi	sp,sp,16
	.cfi_def_cfa_offset 0
	jr	ra
.L19:
	.cfi_restore_state
	.loc 1 48 5 is_stmt 1
	lla	a0,.LC2
	call	caml_fatal_error
.LVL16:
	.cfi_endproc
.LFE8:
	.size	caml_init_atom_table, .-caml_init_atom_table
	.section	.rodata.str1.8
	.align	3
.LC3:
	.string	"OCAMLRUNPARAM"
	.align	3
.LC4:
	.string	"CAMLRUNPARAM"
	.text
	.align	1
	.globl	caml_parse_ocamlrunparam
	.type	caml_parse_ocamlrunparam, @function
caml_parse_ocamlrunparam:
.LFB10:
	.loc 1 82 1
	.cfi_startproc
	addi	sp,sp,-32
	.cfi_def_cfa_offset 32
	sd	ra,24(sp)
	sd	s0,16(sp)
	.cfi_offset 1, -8
	.cfi_offset 8, -16
	.loc 1 83 3
	.loc 1 83 18 is_stmt 0
	lla	a0,.LC3
	call	caml_secure_getenv
.LVL17:
	mv	s0,a0
.LVL18:
	.loc 1 84 3 is_stmt 1
	.loc 1 86 3
	.loc 1 86 6 is_stmt 0
	beq	a0,zero,.L48
.L21:
	.loc 1 88 3 is_stmt 1
	.loc 1 88 6 is_stmt 0
	bne	s0,zero,.L22
.L20:
	.loc 1 113 1
	ld	ra,24(sp)
	.cfi_remember_state
	.cfi_restore 1
	ld	s0,16(sp)
	.cfi_restore 8
.LVL19:
	addi	sp,sp,32
	.cfi_def_cfa_offset 0
	jr	ra
.LVL20:
.L48:
	.cfi_restore_state
	.loc 1 86 20 is_stmt 1 discriminator 1
	.loc 1 86 26 is_stmt 0 discriminator 1
	lla	a0,.LC4
	call	caml_secure_getenv
.LVL21:
	mv	s0,a0
.LVL22:
	j	.L21
.L37:
	.loc 1 91 21 is_stmt 1
	addi	a1,sp,8
	mv	a0,s0
	call	scanmult
.LVL23:
	.loc 1 91 41
	ld	a0,8(sp)
	call	caml_set_allocation_policy
.LVL24:
	.loc 1 91 73
.L43:
	.loc 1 108 13 discriminator 1
	.loc 1 108 14 is_stmt 0 discriminator 1
	lbu	a5,0(s0)
	.loc 1 108 13 discriminator 1
	beq	a5,zero,.L22
	.loc 1 109 9 is_stmt 1
	.loc 1 109 17 is_stmt 0
	addi	s0,s0,1
.LVL25:
	.loc 1 109 12
	li	a4,44
	bne	a5,a4,.L43
.L22:
	.loc 1 89 11 is_stmt 1
	.loc 1 89 12 is_stmt 0
	lbu	a5,0(s0)
	.loc 1 89 11
	beq	a5,zero,.L20
	.loc 1 90 7 is_stmt 1
	.loc 1 90 19 is_stmt 0
	addi	s0,s0,1
.LVL26:
	addiw	a5,a5,-72
	andi	a3,a5,0xff
	li	a4,47
	bgtu	a3,a4,.L43
	slli	a5,a3,2
	lla	a4,.L26
	add	a5,a5,a4
	lw	a5,0(a5)
	add	a5,a5,a4
	jr	a5
	.section	.rodata
	.align	2
	.align	2
.L26:
	.word	.L40-.L26
	.word	.L43-.L26
	.word	.L43-.L26
	.word	.L43-.L26
	.word	.L43-.L26
	.word	.L43-.L26
	.word	.L43-.L26
	.word	.L39-.L26
	.word	.L43-.L26
	.word	.L43-.L26
	.word	.L43-.L26
	.word	.L43-.L26
	.word	.L43-.L26
	.word	.L43-.L26
	.word	.L43-.L26
	.word	.L38-.L26
	.word	.L43-.L26
	.word	.L43-.L26
	.word	.L43-.L26
	.word	.L43-.L26
	.word	.L43-.L26
	.word	.L43-.L26
	.word	.L43-.L26
	.word	.L43-.L26
	.word	.L43-.L26
	.word	.L37-.L26
	.word	.L36-.L26
	.word	.L35-.L26
	.word	.L43-.L26
	.word	.L43-.L26
	.word	.L43-.L26
	.word	.L43-.L26
	.word	.L34-.L26
	.word	.L33-.L26
	.word	.L43-.L26
	.word	.L43-.L26
	.word	.L32-.L26
	.word	.L43-.L26
	.word	.L43-.L26
	.word	.L31-.L26
	.word	.L30-.L26
	.word	.L43-.L26
	.word	.L43-.L26
	.word	.L29-.L26
	.word	.L28-.L26
	.word	.L43-.L26
	.word	.L27-.L26
	.word	.L25-.L26
	.text
.L36:
	.loc 1 92 21 is_stmt 1
	addi	a1,sp,8
	mv	a0,s0
	call	scanmult
.LVL27:
	.loc 1 92 41
	.loc 1 92 63 is_stmt 0
	ld	a5,8(sp)
	.loc 1 92 41
	beq	a5,zero,.L46
	li	a0,3
.L41:
	.loc 1 92 41 discriminator 4
	call	caml_record_backtrace
.LVL28:
	.loc 1 92 78 is_stmt 1 discriminator 4
	.loc 1 92 7 is_stmt 0 discriminator 4
	j	.L43
.L46:
	.loc 1 92 41
	li	a0,1
	j	.L41
.L35:
	.loc 1 93 21 is_stmt 1
	addi	a1,sp,8
	mv	a0,s0
	call	scanmult
.LVL29:
	.loc 1 93 41
	.loc 1 93 62 is_stmt 0
	ld	a5,8(sp)
	sd	a5,caml_cleanup_on_exit,a4
	.loc 1 93 67 is_stmt 1
	.loc 1 93 7 is_stmt 0
	j	.L43
.L34:
	.loc 1 94 21 is_stmt 1
	lla	a1,caml_init_heap_wsz
	mv	a0,s0
	call	scanmult
.LVL30:
	.loc 1 94 58
	.loc 1 94 7 is_stmt 0
	j	.L43
.L40:
	.loc 1 95 21 is_stmt 1
	lla	a1,caml_use_huge_pages
	mv	a0,s0
	call	scanmult
.LVL31:
	.loc 1 95 59
	.loc 1 95 7 is_stmt 0
	j	.L43
.L33:
	.loc 1 96 21 is_stmt 1
	lla	a1,caml_init_heap_chunk_sz
	mv	a0,s0
	call	scanmult
.LVL32:
	.loc 1 96 63
	.loc 1 96 7 is_stmt 0
	j	.L43
.L32:
	.loc 1 97 21 is_stmt 1
	lla	a1,caml_init_max_stack_wsz
	mv	a0,s0
	call	scanmult
.LVL33:
	.loc 1 97 63
	.loc 1 97 7 is_stmt 0
	j	.L43
.L31:
	.loc 1 98 21 is_stmt 1
	lla	a1,caml_init_percent_free
	mv	a0,s0
	call	scanmult
.LVL34:
	.loc 1 98 62
	.loc 1 98 7 is_stmt 0
	j	.L43
.L39:
	.loc 1 99 21 is_stmt 1
	lla	a1,caml_init_max_percent_free
	mv	a0,s0
	call	scanmult
.LVL35:
	.loc 1 99 66
	.loc 1 99 7 is_stmt 0
	j	.L43
.L30:
	.loc 1 100 21 is_stmt 1
	addi	a1,sp,8
	mv	a0,s0
	call	scanmult
.LVL36:
	.loc 1 100 41
	.loc 1 100 59 is_stmt 0
	ld	a5,8(sp)
	sw	a5,caml_parser_trace,a4
	.loc 1 100 64 is_stmt 1
	.loc 1 100 7 is_stmt 0
	j	.L43
.L29:
	.loc 1 102 21 is_stmt 1
	lla	a1,caml_init_minor_heap_wsz
	mv	a0,s0
	call	scanmult
.LVL37:
	.loc 1 102 64
	.loc 1 102 7 is_stmt 0
	j	.L43
.L28:
	.loc 1 103 21 is_stmt 1
	lla	a1,caml_trace_level
	mv	a0,s0
	call	scanmult
.LVL38:
	.loc 1 103 56
	.loc 1 103 7 is_stmt 0
	j	.L43
.L27:
	.loc 1 104 21 is_stmt 1
	lla	a1,caml_verb_gc
	mv	a0,s0
	call	scanmult
.LVL39:
	.loc 1 104 52
	.loc 1 104 7 is_stmt 0
	j	.L43
.L25:
	.loc 1 105 21 is_stmt 1
	lla	a1,caml_init_major_window
	mv	a0,s0
	call	scanmult
.LVL40:
	.loc 1 105 62
	.loc 1 105 7 is_stmt 0
	j	.L43
.L38:
	.loc 1 106 21 is_stmt 1
	lla	a1,caml_runtime_warnings
	mv	a0,s0
	call	scanmult
.LVL41:
	.loc 1 106 61
	.loc 1 106 7 is_stmt 0
	j	.L43
	.cfi_endproc
.LFE10:
	.size	caml_parse_ocamlrunparam, .-caml_parse_ocamlrunparam
	.section	.rodata.str1.8
	.align	3
.LC5:
	.string	"Fatal error: caml_startup was called after the runtime was shut down with caml_shutdown"
	.text
	.align	1
	.globl	caml_startup_aux
	.type	caml_startup_aux, @function
caml_startup_aux:
.LFB11:
	.loc 1 124 1 is_stmt 1
	.cfi_startproc
.LVL42:
	addi	sp,sp,-16
	.cfi_def_cfa_offset 16
	sd	ra,8(sp)
	.cfi_offset 1, -8
	.loc 1 125 3
	.loc 1 125 25 is_stmt 0
	lw	a4,shutdown_happened
	.loc 1 125 6
	li	a5,1
	beq	a4,a5,.L55
	.loc 1 131 3 is_stmt 1
	.loc 1 131 16 is_stmt 0
	lla	a4,startup_count
	lw	a5,0(a4)
	addiw	a5,a5,1
	sext.w	a3,a5
	sw	a5,0(a4)
	.loc 1 132 3 is_stmt 1
	.loc 1 132 6 is_stmt 0
	li	a5,1
	bgt	a3,a5,.L52
	.loc 1 135 3 is_stmt 1
	.loc 1 135 6 is_stmt 0
	bne	a0,zero,.L56
	.loc 1 138 10
	li	a0,1
.LVL43:
	j	.L51
.LVL44:
.L55:
	.loc 1 126 5 is_stmt 1
	lla	a0,.LC5
.LVL45:
	call	caml_fatal_error
.LVL46:
.L56:
	.loc 1 136 5
	call	caml_stat_create_pool
.LVL47:
	.loc 1 138 10 is_stmt 0
	li	a0,1
	j	.L51
.LVL48:
.L52:
	.loc 1 133 12
	li	a0,0
.LVL49:
.L51:
	.loc 1 139 1
	ld	ra,8(sp)
	.cfi_restore 1
	addi	sp,sp,16
	.cfi_def_cfa_offset 0
	jr	ra
	.cfi_endproc
.LFE11:
	.size	caml_startup_aux, .-caml_startup_aux
	.section	.rodata.str1.8
	.align	3
.LC6:
	.string	"Fatal error: a call to caml_shutdown has no corresponding call to caml_startup"
	.align	3
.LC7:
	.string	"Pervasives.do_at_exit"
	.align	3
.LC8:
	.string	"Thread.at_shutdown"
	.text
	.align	1
	.globl	caml_shutdown
	.type	caml_shutdown, @function
caml_shutdown:
.LFB13:
	.loc 1 149 1 is_stmt 1
	.cfi_startproc
	addi	sp,sp,-16
	.cfi_def_cfa_offset 16
	sd	ra,8(sp)
	.cfi_offset 1, -8
	.loc 1 150 3
	.loc 1 150 21 is_stmt 0
	lw	a5,startup_count
	.loc 1 150 6
	ble	a5,zero,.L61
	.loc 1 155 3 is_stmt 1
	.loc 1 155 16 is_stmt 0
	addiw	a5,a5,-1
	sext.w	a4,a5
	sw	a5,startup_count,a3
	.loc 1 156 3 is_stmt 1
	.loc 1 156 6 is_stmt 0
	ble	a4,zero,.L62
.L57:
	.loc 1 168 1
	ld	ra,8(sp)
	.cfi_remember_state
	.cfi_restore 1
	addi	sp,sp,16
	.cfi_def_cfa_offset 0
	jr	ra
.L61:
	.cfi_restore_state
	.loc 1 151 5 is_stmt 1
	lla	a0,.LC6
	call	caml_fatal_error
.LVL50:
.L62:
	.loc 1 159 3
	lla	a0,.LC7
	call	call_registered_value
.LVL51:
	.loc 1 160 3
	lla	a0,.LC8
	call	call_registered_value
.LVL52:
	.loc 1 161 3
	call	caml_finalise_heap
.LVL53:
	.loc 1 165 3
	call	caml_stat_destroy_pool
.LVL54:
	.loc 1 167 3
	.loc 1 167 21 is_stmt 0
	li	a5,1
	sw	a5,shutdown_happened,a4
	j	.L57
	.cfi_endproc
.LFE13:
	.size	caml_shutdown, .-caml_shutdown
	.globl	caml_cleanup_on_exit
	.globl	caml_trace_level
	.globl	caml_init_major_window
	.globl	caml_init_max_stack_wsz
	.globl	caml_init_heap_wsz
	.globl	caml_init_heap_chunk_sz
	.globl	caml_init_minor_heap_wsz
	.globl	caml_init_max_percent_free
	.globl	caml_init_percent_free
	.comm	caml_atom_table,2048,8
	.comm	caml_major_work_credit,8,8
	.comm	caml_major_ring_index,4,4
	.comm	caml_major_ring,400,8
	.section	.sbss,"aw",@nobits
	.align	3
	.type	shutdown_happened, @object
	.size	shutdown_happened, 4
shutdown_happened:
	.zero	4
	.type	startup_count, @object
	.size	startup_count, 4
startup_count:
	.zero	4
	.type	caml_cleanup_on_exit, @object
	.size	caml_cleanup_on_exit, 8
caml_cleanup_on_exit:
	.zero	8
	.type	caml_trace_level, @object
	.size	caml_trace_level, 8
caml_trace_level:
	.zero	8
	.section	.sdata,"aw"
	.align	3
	.type	caml_init_major_window, @object
	.size	caml_init_major_window, 8
caml_init_major_window:
	.dword	1
	.type	caml_init_max_stack_wsz, @object
	.size	caml_init_max_stack_wsz, 8
caml_init_max_stack_wsz:
	.dword	1048576
	.type	caml_init_heap_wsz, @object
	.size	caml_init_heap_wsz, 8
caml_init_heap_wsz:
	.dword	126976
	.type	caml_init_heap_chunk_sz, @object
	.size	caml_init_heap_chunk_sz, 8
caml_init_heap_chunk_sz:
	.dword	15
	.type	caml_init_minor_heap_wsz, @object
	.size	caml_init_minor_heap_wsz, 8
caml_init_minor_heap_wsz:
	.dword	262144
	.type	caml_init_max_percent_free, @object
	.size	caml_init_max_percent_free, 8
caml_init_max_percent_free:
	.dword	500
	.type	caml_init_percent_free, @object
	.size	caml_init_percent_free, 8
caml_init_percent_free:
	.dword	80
	.text
.Letext0:
	.file 2 "/home/sai/ocaml-freestanding-riscv/nolibc/include/stdio.h"
	.file 3 "/home/sai/Shakti-TEE-Build/riscv/lib/gcc/riscv64-unknown-elf/9.2.0/include/stddef.h"
	.file 4 "caml/config.h"
	.file 5 "caml/misc.h"
	.file 6 "caml/mlvalues.h"
	.file 7 "caml/backtrace.h"
	.file 8 "caml/freelist.h"
	.file 9 "caml/major_gc.h"
	.file 10 "caml/address_class.h"
	.file 11 "caml/minor_gc.h"
	.file 12 "caml/memory.h"
	.file 13 "caml/callback.h"
	.file 14 "caml/startup_aux.h"
	.file 15 "caml/osdeps.h"