	.file	"unix.c"
	.option nopic
	.attribute arch, "rv64i2p0_m2p0_a2p0_f2p0_d2p0_c2p0"
	.attribute unaligned_access, 0
	.attribute stack_align, 16
	.text
.Ltext0:
	.cfi_sections	.debug_frame
	.align	1
	.globl	caml_read_fd
	.type	caml_read_fd, @function
caml_read_fd:
.LFB12:
	.file 1 "unix.c"
	.loc 1 75 1
	.cfi_startproc
.LVL0:
	addi	sp,sp,-48
	.cfi_def_cfa_offset 48
	sd	ra,40(sp)
	sd	s0,32(sp)
	sd	s1,24(sp)
	sd	s2,16(sp)
	sd	s3,8(sp)
	.cfi_offset 1, -8
	.cfi_offset 8, -16
	.cfi_offset 9, -24
	.cfi_offset 18, -32
	.cfi_offset 19, -40
	mv	s3,a0
	mv	s2,a2
	mv	s1,a3
.LVL1:
.L3:
	.loc 1 76 3 discriminator 2
	.loc 1 77 3 discriminator 2
	.loc 1 78 5 discriminator 2
	call	caml_enter_blocking_section
.LVL2:
	.loc 1 79 5 discriminator 2
	.loc 1 79 15 is_stmt 0 discriminator 2
	mv	a2,s1
	mv	a1,s2
	mv	a0,s3
	call	read
.LVL3:
	mv	s0,a0
.LVL4:
	.loc 1 80 5 is_stmt 1 discriminator 2
	call	caml_leave_blocking_section
.LVL5:
	.loc 1 81 11 discriminator 2
	.loc 1 81 3 is_stmt 0 discriminator 2
	li	a5,-1
	bne	s0,a5,.L2
	.loc 1 81 35 discriminator 1
	lw	a4,errno
	.loc 1 81 26 discriminator 1
	beq	a4,a5,.L3
.L2:
	.loc 1 82 3 is_stmt 1
	.loc 1 82 6 is_stmt 0
	li	a5,-1
	beq	s0,a5,.L6
.L4:
	.loc 1 83 3 is_stmt 1
	.loc 1 84 1 is_stmt 0
	mv	a0,s0
	ld	ra,40(sp)
	.cfi_remember_state
	.cfi_restore 1
	ld	s0,32(sp)
	.cfi_restore 8
.LVL6:
	ld	s1,24(sp)
	.cfi_restore 9
	ld	s2,16(sp)
	.cfi_restore 18
.LVL7:
	ld	s3,8(sp)
	.cfi_restore 19
	addi	sp,sp,48
	.cfi_def_cfa_offset 0
	jr	ra
.LVL8:
.L6:
	.cfi_restore_state
	.loc 1 82 22 is_stmt 1 discriminator 1
	li	a0,1
	call	caml_sys_io_error
.LVL9:
	j	.L4
	.cfi_endproc
.LFE12:
	.size	caml_read_fd, .-caml_read_fd
	.align	1
	.globl	caml_write_fd
	.type	caml_write_fd, @function
caml_write_fd:
.LFB13:
	.loc 1 87 1
	.cfi_startproc
.LVL10:
	addi	sp,sp,-48
	.cfi_def_cfa_offset 48
	sd	ra,40(sp)
	sd	s0,32(sp)
	sd	s1,24(sp)
	sd	s2,16(sp)
	sd	s3,8(sp)
	.cfi_offset 1, -8
	.cfi_offset 8, -16
	.cfi_offset 9, -24
	.cfi_offset 18, -32
	.cfi_offset 19, -40
	mv	s3,a0
	mv	s2,a2
	mv	s1,a3
.LVL11:
.L8:
	.loc 1 88 3
	.loc 1 95 3
	call	caml_enter_blocking_section
.LVL12:
	.loc 1 96 3
	.loc 1 96 13 is_stmt 0
	mv	a2,s1
	mv	a1,s2
	mv	a0,s3
	call	write
.LVL13:
	mv	s0,a0
.LVL14:
	.loc 1 97 3 is_stmt 1
	call	caml_leave_blocking_section
.LVL15:
	.loc 1 101 3
	.loc 1 101 6 is_stmt 0
	li	a5,-1
	bne	s0,a5,.L9
	.loc 1 102 5 is_stmt 1
	.loc 1 102 15 is_stmt 0
	lw	a4,errno
	.loc 1 102 8
	beq	a4,a5,.L8
.L9:
	.loc 1 112 3 is_stmt 1
	.loc 1 112 6 is_stmt 0
	li	a5,-1
	beq	s0,a5,.L12
.L10:
	.loc 1 113 3 is_stmt 1
	.loc 1 114 3
	.loc 1 115 1 is_stmt 0
	mv	a0,s0
	ld	ra,40(sp)
	.cfi_remember_state
	.cfi_restore 1
	ld	s0,32(sp)
	.cfi_restore 8
.LVL16:
	ld	s1,24(sp)
	.cfi_restore 9
.LVL17:
	ld	s2,16(sp)
	.cfi_restore 18
.LVL18:
	ld	s3,8(sp)
	.cfi_restore 19
	addi	sp,sp,48
	.cfi_def_cfa_offset 0
	jr	ra
.LVL19:
.L12:
	.cfi_restore_state
	.loc 1 112 22 is_stmt 1 discriminator 1
	li	a0,1
	call	caml_sys_io_error
.LVL20:
	j	.L10
	.cfi_endproc
.LFE13:
	.size	caml_write_fd, .-caml_write_fd
	.align	1
	.globl	caml_decompose_path
	.type	caml_decompose_path, @function
caml_decompose_path:
.LFB14:
	.loc 1 118 1
	.cfi_startproc
.LVL21:
	addi	sp,sp,-32
	.cfi_def_cfa_offset 32
	sd	ra,24(sp)
	sd	s0,16(sp)
	sd	s1,8(sp)
	sd	s2,0(sp)
	.cfi_offset 1, -8
	.cfi_offset 8, -16
	.cfi_offset 9, -24
	.cfi_offset 18, -32
	mv	s1,a0
	mv	a0,a1
.LVL22:
	.loc 1 119 3
	.loc 1 120 3
	.loc 1 122 3
	.loc 1 122 6 is_stmt 0
	beq	a1,zero,.L19
	.loc 1 123 3 is_stmt 1
	.loc 1 123 7 is_stmt 0
	call	caml_stat_strdup
.LVL23:
	mv	s2,a0
.LVL24:
	.loc 1 124 3 is_stmt 1
	.loc 1 124 5 is_stmt 0
	mv	a1,a0
	j	.L18
.LVL25:
.L17:
	.loc 1 126 59 is_stmt 1 discriminator 4
	.loc 1 126 43 discriminator 4
	.loc 1 126 44 is_stmt 0 discriminator 4
	addi	a4,a4,1
.LVL26:
.L15:
	.loc 1 126 17 is_stmt 1 discriminator 1
	.loc 1 126 18 is_stmt 0 discriminator 1
	add	s0,a1,a4
	lbu	a5,0(s0)
	.loc 1 126 5 discriminator 1
	beq	a5,zero,.L16
	.loc 1 126 27 discriminator 3
	li	a3,58
	bne	a5,a3,.L17
.L16:
	.loc 1 127 5 is_stmt 1
	mv	a0,s1
	call	caml_ext_table_add
.LVL27:
	.loc 1 128 5
	.loc 1 129 5
	.loc 1 129 9 is_stmt 0
	lbu	a5,0(s0)
	.loc 1 129 8
	beq	a5,zero,.L13
	.loc 1 130 5 is_stmt 1
	.loc 1 130 8 is_stmt 0
	sb	zero,0(s0)
	.loc 1 131 5 is_stmt 1
	.loc 1 131 7 is_stmt 0
	addi	a1,s0,1
.LVL28:
	.loc 1 125 9 is_stmt 1
.L18:
	.loc 1 125 3
	.loc 1 126 5
	.loc 1 126 12 is_stmt 0
	li	a4,0
	.loc 1 126 5
	j	.L15
.LVL29:
.L19:
	.loc 1 122 28
	mv	s2,a1
.LVL30:
.L13:
	.loc 1 134 1
	mv	a0,s2
	ld	ra,24(sp)
	.cfi_restore 1
	ld	s0,16(sp)
	.cfi_restore 8
	ld	s1,8(sp)
	.cfi_restore 9
.LVL31:
	ld	s2,0(sp)
	.cfi_restore 18
	addi	sp,sp,32
	.cfi_def_cfa_offset 0
	jr	ra
	.cfi_endproc
.LFE14:
	.size	caml_decompose_path, .-caml_decompose_path
	.section	.rodata.str1.8,"aMS",@progbits,1
	.align	3
.LC0:
	.string	"."
	.align	3
.LC1:
	.string	"/"
	.text
	.align	1
	.globl	caml_search_in_path
	.type	caml_search_in_path, @function
caml_search_in_path:
.LFB15:
	.loc 1 137 1 is_stmt 1
	.cfi_startproc
.LVL32:
	addi	sp,sp,-64
	.cfi_def_cfa_offset 64
	sd	ra,56(sp)
	sd	s0,48(sp)
	sd	s1,40(sp)
	sd	s2,32(sp)
	sd	s3,24(sp)
	.cfi_offset 1, -8
	.cfi_offset 8, -16
	.cfi_offset 9, -24
	.cfi_offset 18, -32
	.cfi_offset 19, -40
	mv	s2,a0
	mv	s3,a1
	.loc 1 138 3
	.loc 1 139 3
	.loc 1 140 3
	.loc 1 141 3
	.loc 1 143 3
.LVL33:
	.loc 1 143 10 is_stmt 0
	mv	a4,a1
.LVL34:
.L22:
	.loc 1 143 18 is_stmt 1 discriminator 1
	lbu	a5,0(a4)
	.loc 1 143 3 is_stmt 0 discriminator 1
	beq	a5,zero,.L30
	.loc 1 144 5 is_stmt 1
	.loc 1 144 8 is_stmt 0
	li	a3,47
	beq	a5,a3,.L23
	.loc 1 143 27 is_stmt 1 discriminator 2
	.loc 1 143 28 is_stmt 0 discriminator 2
	addi	a4,a4,1
.LVL35:
	j	.L22
.L30:
	.loc 1 146 10
	li	s0,0
	j	.L25
.LVL36:
.L26:
	.loc 1 149 5 is_stmt 1
	.loc 1 149 16 is_stmt 0
	mv	a3,s3
	lla	a2,.LC1
	li	a0,3
	call	caml_stat_strconcat
.LVL37:
	mv	s1,a0
.LVL38:
	.loc 1 150 5 is_stmt 1
	.loc 1 150 9 is_stmt 0
	addi	a1,sp,8
	call	stat
.LVL39:
	.loc 1 152 5 is_stmt 1
	mv	a0,s1
	call	caml_stat_free
.LVL40:
	.loc 1 146 31
	.loc 1 146 32 is_stmt 0
	addiw	s0,s0,1
.LVL41:
.L25:
	.loc 1 146 15 is_stmt 1 discriminator 1
	.loc 1 146 23 is_stmt 0 discriminator 1
	lw	a5,0(s2)
	.loc 1 146 3 discriminator 1
	ble	a5,s0,.L23
	.loc 1 147 5 is_stmt 1
	.loc 1 147 15 is_stmt 0
	ld	a5,8(s2)
	.loc 1 147 25
	slli	a4,s0,3
	add	a5,a5,a4
	.loc 1 147 9
	ld	a1,0(a5)
.LVL42:
	.loc 1 148 5 is_stmt 1
	.loc 1 148 12 is_stmt 0
	lbu	a5,0(a1)
	.loc 1 148 8
	bne	a5,zero,.L26
	.loc 1 148 26
	lla	a1,.LC0
.LVL43:
	j	.L26
.LVL44:
.L23:
	.loc 1 155 3 is_stmt 1
	.loc 1 155 10 is_stmt 0
	mv	a0,s3
	call	caml_stat_strdup
.LVL45:
	.loc 1 156 1
	ld	ra,56(sp)
	.cfi_restore 1
	ld	s0,48(sp)
	.cfi_restore 8
	ld	s1,40(sp)
	.cfi_restore 9
	ld	s2,32(sp)
	.cfi_restore 18
.LVL46:
	ld	s3,24(sp)
	.cfi_restore 19
.LVL47:
	addi	sp,sp,64
	.cfi_def_cfa_offset 0
	jr	ra
	.cfi_endproc
.LFE15:
	.size	caml_search_in_path, .-caml_search_in_path
	.section	.rodata.str1.8
	.align	3
.LC2:
	.string	"PATH"
	.text
	.align	1
	.globl	caml_search_exe_in_path
	.type	caml_search_exe_in_path, @function
caml_search_exe_in_path:
.LFB16:
	.loc 1 205 1 is_stmt 1
	.cfi_startproc
.LVL48:
	addi	sp,sp,-48
	.cfi_def_cfa_offset 48
	sd	ra,40(sp)
	sd	s0,32(sp)
	sd	s1,24(sp)
	.cfi_offset 1, -8
	.cfi_offset 8, -16
	.cfi_offset 9, -24
	mv	s0,a0
	.loc 1 206 3
	.loc 1 207 3
	.loc 1 208 3
	.loc 1 210 3
	li	a1,8
	mv	a0,sp
.LVL49:
	call	caml_ext_table_init
.LVL50:
	.loc 1 211 3
	.loc 1 211 39 is_stmt 0
	lla	a0,.LC2
	call	getenv
.LVL51:
	mv	a1,a0
	.loc 1 211 12
	mv	a0,sp
	call	caml_decompose_path
.LVL52:
	mv	s1,a0
.LVL53:
	.loc 1 213 3 is_stmt 1
	.loc 1 213 9 is_stmt 0
	mv	a1,s0
	mv	a0,sp
	call	caml_search_in_path
.LVL54:
	mv	s0,a0
.LVL55:
	.loc 1 217 3 is_stmt 1
	mv	a0,s1
	call	caml_stat_free
.LVL56:
	.loc 1 218 3
	li	a1,0
	mv	a0,sp
	call	caml_ext_table_free
.LVL57:
	.loc 1 219 3
	.loc 1 220 1 is_stmt 0
	mv	a0,s0
	ld	ra,40(sp)
	.cfi_restore 1
	ld	s0,32(sp)
	.cfi_restore 8
.LVL58:
	ld	s1,24(sp)
	.cfi_restore 9
.LVL59:
	addi	sp,sp,48
	.cfi_def_cfa_offset 0
	jr	ra
	.cfi_endproc
.LFE16:
	.size	caml_search_exe_in_path, .-caml_search_exe_in_path
	.section	.rodata.str1.8
	.align	3
.LC3:
	.string	".so"
	.text
	.align	1
	.globl	caml_search_dll_in_path
	.type	caml_search_dll_in_path, @function
caml_search_dll_in_path:
.LFB17:
	.loc 1 223 1 is_stmt 1
	.cfi_startproc
.LVL60:
	addi	sp,sp,-32
	.cfi_def_cfa_offset 32
	sd	ra,24(sp)
	sd	s0,16(sp)
	sd	s1,8(sp)
	.cfi_offset 1, -8
	.cfi_offset 8, -16
	.cfi_offset 9, -24
	mv	s1,a0
	.loc 1 224 3
	.loc 1 225 3
	.loc 1 227 3
	.loc 1 227 13 is_stmt 0
	lla	a2,.LC3
	li	a0,2
.LVL61:
	call	caml_stat_strconcat
.LVL62:
	mv	s0,a0
.LVL63:
	.loc 1 228 3 is_stmt 1
	.loc 1 228 9 is_stmt 0
	mv	a1,a0
	mv	a0,s1
	call	caml_search_in_path
.LVL64:
	mv	s1,a0
.LVL65:
	.loc 1 229 3 is_stmt 1
	mv	a0,s0
	call	caml_stat_free
.LVL66:
	.loc 1 230 3
	.loc 1 231 1 is_stmt 0
	mv	a0,s1
	ld	ra,24(sp)
	.cfi_restore 1
	ld	s0,16(sp)
	.cfi_restore 8
.LVL67:
	ld	s1,8(sp)
	.cfi_restore 9
.LVL68:
	addi	sp,sp,32
	.cfi_def_cfa_offset 0
	jr	ra
	.cfi_endproc
.LFE17:
	.size	caml_search_dll_in_path, .-caml_search_dll_in_path
	.align	1
	.globl	caml_dlopen
	.type	caml_dlopen, @function
caml_dlopen:
.LFB18:
	.loc 1 313 1 is_stmt 1
	.cfi_startproc
.LVL69:
	.loc 1 314 3
	.loc 1 315 1 is_stmt 0
	li	a0,0
.LVL70:
	ret
	.cfi_endproc
.LFE18:
	.size	caml_dlopen, .-caml_dlopen
	.align	1
	.globl	caml_dlclose
	.type	caml_dlclose, @function
caml_dlclose:
.LFB19:
	.loc 1 318 1 is_stmt 1
	.cfi_startproc
.LVL71:
	.loc 1 319 1
	ret
	.cfi_endproc
.LFE19:
	.size	caml_dlclose, .-caml_dlclose
	.align	1
	.globl	caml_dlsym
	.type	caml_dlsym, @function
caml_dlsym:
.LFB20:
	.loc 1 322 1
	.cfi_startproc
.LVL72:
	.loc 1 323 3
	.loc 1 324 1 is_stmt 0
	li	a0,0
.LVL73:
	ret
	.cfi_endproc
.LFE20:
	.size	caml_dlsym, .-caml_dlsym
	.align	1
	.globl	caml_globalsym
	.type	caml_globalsym, @function
caml_globalsym:
.LFB21:
	.loc 1 327 1 is_stmt 1
	.cfi_startproc
.LVL74:
	.loc 1 328 3
	.loc 1 329 1 is_stmt 0
	li	a0,0
.LVL75:
	ret
	.cfi_endproc
.LFE21:
	.size	caml_globalsym, .-caml_globalsym
	.section	.rodata.str1.8
	.align	3
.LC4:
	.string	"dynamic loading not supported on this platform"
	.text
	.align	1
	.globl	caml_dlerror
	.type	caml_dlerror, @function
caml_dlerror:
.LFB22:
	.loc 1 332 1 is_stmt 1
	.cfi_startproc
	.loc 1 333 3
	.loc 1 334 1 is_stmt 0
	lla	a0,.LC4
	ret
	.cfi_endproc
.LFE22:
	.size	caml_dlerror, .-caml_dlerror
	.section	.rodata.str1.8
	.align	3
.LC5:
	.string	".."
	.text
	.align	1
	.globl	caml_read_directory
	.type	caml_read_directory, @function
caml_read_directory:
.LFB23:
	.loc 1 343 1 is_stmt 1
	.cfi_startproc
.LVL76:
	addi	sp,sp,-32
	.cfi_def_cfa_offset 32
	sd	ra,24(sp)
	sd	s0,16(sp)
	sd	s1,8(sp)
	sd	s2,0(sp)
	.cfi_offset 1, -8
	.cfi_offset 8, -16
	.cfi_offset 9, -24
	.cfi_offset 18, -32
	mv	s2,a1
	.loc 1 344 3
	.loc 1 346 3
	.loc 1 351 3
	.loc 1 351 7 is_stmt 0
	call	opendir
.LVL77:
	mv	s1,a0
.LVL78:
	.loc 1 352 3 is_stmt 1
	.loc 1 352 6 is_stmt 0
	beq	a0,zero,.L45
.L42:
	.loc 1 353 3 is_stmt 1
	.loc 1 354 5
	.loc 1 354 9 is_stmt 0
	mv	a0,s1
	call	readdir
.LVL79:
	.loc 1 355 5 is_stmt 1
	.loc 1 355 8 is_stmt 0
	beq	a0,zero,.L43
	.loc 1 356 5 is_stmt 1
	.loc 1 356 17 is_stmt 0
	ld	s0,0(a0)
	.loc 1 356 9
	lla	a1,.LC0
	mv	a0,s0
.LVL80:
	call	strcmp
.LVL81:
	.loc 1 356 8
	beq	a0,zero,.L42
	.loc 1 356 40 discriminator 2
	lla	a1,.LC5
	mv	a0,s0
	call	strcmp
.LVL82:
	.loc 1 356 37 discriminator 2
	beq	a0,zero,.L42
	.loc 1 357 5 is_stmt 1
	.loc 1 357 34 is_stmt 0
	mv	a0,s0
	call	caml_stat_strdup
.LVL83:
	mv	a1,a0
	.loc 1 357 5
	mv	a0,s2
	call	caml_ext_table_add
.LVL84:
	j	.L42
.LVL85:
.L43:
	.loc 1 359 3 is_stmt 1
	mv	a0,s1
.LVL86:
	call	closedir
.LVL87:
	.loc 1 360 3
	.loc 1 360 10 is_stmt 0
	li	a0,0
.L41:
	.loc 1 361 1
	ld	ra,24(sp)
	.cfi_remember_state
	.cfi_restore 1
	ld	s0,16(sp)
	.cfi_restore 8
	ld	s1,8(sp)
	.cfi_restore 9
.LVL88:
	ld	s2,0(sp)
	.cfi_restore 18
.LVL89:
	addi	sp,sp,32
	.cfi_def_cfa_offset 0
	jr	ra
.LVL90:
.L45:
	.cfi_restore_state
	.loc 1 352 25
	li	a0,-1
	j	.L41
	.cfi_endproc
.LFE23:
	.size	caml_read_directory, .-caml_read_directory
	.align	1
	.globl	caml_executable_name
	.type	caml_executable_name, @function
caml_executable_name:
.LFB24:
	.loc 1 366 1 is_stmt 1
	.cfi_startproc
	.loc 1 409 3
	.loc 1 412 1 is_stmt 0
	li	a0,0
	ret
	.cfi_endproc
.LFE24:
	.size	caml_executable_name, .-caml_executable_name
	.align	1
	.globl	caml_secure_getenv
	.type	caml_secure_getenv, @function
caml_secure_getenv:
.LFB25:
	.loc 1 415 1 is_stmt 1
	.cfi_startproc
.LVL91:
	addi	sp,sp,-16
	.cfi_def_cfa_offset 16
	sd	ra,8(sp)
	.cfi_offset 1, -8
	.loc 1 417 3
	.loc 1 417 10 is_stmt 0
	call	secure_getenv
.LVL92:
	.loc 1 431 1
	ld	ra,8(sp)
	.cfi_restore 1
	addi	sp,sp,16
	.cfi_def_cfa_offset 0
	jr	ra
	.cfi_endproc
.LFE25:
	.size	caml_secure_getenv, .-caml_secure_getenv
	.align	1
	.globl	caml_num_rows_fd
	.type	caml_num_rows_fd, @function
caml_num_rows_fd:
.LFB26:
	.loc 1 434 1 is_stmt 1
	.cfi_startproc
.LVL93:
	.loc 1 443 3
	.loc 1 445 1 is_stmt 0
	li	a0,-1
.LVL94:
	ret
	.cfi_endproc
.LFE26:
	.size	caml_num_rows_fd, .-caml_num_rows_fd
	.comm	caml_major_work_credit,8,8
	.comm	caml_major_ring_index,4,4
	.comm	caml_major_ring,400,8
.Letext0:
	.file 2 "/home/sai/Shakti-TEE-Build/riscv/lib/gcc/riscv64-unknown-elf/9.2.0/include/stddef.h"
	.file 3 "caml/config.h"
	.file 4 "/home/sai/ocaml-freestanding-riscv/nolibc/include/sys/stat.h"
	.file 5 "/home/sai/ocaml-freestanding-riscv/nolibc/include/dirent.h"
	.file 6 "/home/sai/ocaml-freestanding-riscv/nolibc/include/signal.h"
	.file 7 "caml/misc.h"
	.file 8 "/home/sai/ocaml-freestanding-riscv/nolibc/include/errno.h"
	.file 9 "caml/mlvalues.h"
	.file 10 "caml/fail.h"
	.file 11 "caml/freelist.h"
	.file 12 "caml/major_gc.h"
	.file 13 "caml/address_class.h"
	.file 14 "caml/minor_gc.h"
	.file 15 "caml/memory.h"
	.file 16 "caml/signals.h"
	.file 17 "caml/sys.h"
	.file 18 "caml/io.h"
	.file 19 "/home/sai/ocaml-freestanding-riscv/nolibc/include/stdlib.h"
	.file 20 "/home/sai/ocaml-freestanding-riscv/nolibc/include/string.h"
	.file 21 "/home/sai/ocaml-freestanding-riscv/nolibc/include/unistd.h"