	.file	"strchrnul.c"
	.option nopic
	.attribute arch, "rv64i2p0_m2p0_a2p0_f2p0_d2p0_c2p0"
	.attribute unaligned_access, 0
	.attribute stack_align, 16
	.text
.Ltext0:
	.cfi_sections	.debug_frame
	.align	1
	.globl	__strchrnul
	.type	__strchrnul, @function
__strchrnul:
.LFB0:
	.file 1 "strchrnul.c"
	.loc 1 11 1
	.cfi_startproc
.LVL0:
	addi	sp,sp,-16
	.cfi_def_cfa_offset 16
	sd	ra,8(sp)
	sd	s0,0(sp)
	.cfi_offset 1, -8
	.cfi_offset 8, -16
	mv	s0,a0
	.loc 1 12 2
	.loc 1 14 2
	andi	a1,a1,0xff
.LVL1:
	.loc 1 15 2
	.loc 1 15 5 is_stmt 0
	bne	a1,zero,.L2
	.loc 1 15 10 is_stmt 1 discriminator 1
	.loc 1 15 29 is_stmt 0 discriminator 1
	call	strlen
.LVL2:
	.loc 1 15 27 discriminator 1
	add	a0,s0,a0
.LVL3:
.L1:
	.loc 1 23 1
	ld	ra,8(sp)
	.cfi_remember_state
	.cfi_restore 1
	ld	s0,0(sp)
	.cfi_restore 8
	addi	sp,sp,16
	.cfi_def_cfa_offset 0
	jr	ra
.LVL4:
.L14:
	.cfi_restore_state
	.loc 1 17 31 is_stmt 1
	.loc 1 17 32 is_stmt 0
	addi	s0,s0,1
.LVL5:
.L2:
	.loc 1 17 9 is_stmt 1 discriminator 1
	.loc 1 17 22 is_stmt 0 discriminator 1
	andi	a5,s0,7
	.loc 1 17 2 discriminator 1
	beq	a5,zero,.L13
	.loc 1 18 3 is_stmt 1
	.loc 1 18 8 is_stmt 0
	lbu	a5,0(s0)
	.loc 1 18 6
	beq	a5,zero,.L10
	.loc 1 18 14 discriminator 2
	sext.w	a5,a5
	.loc 1 18 11 discriminator 2
	bne	a5,a1,.L14
	.loc 1 18 47
	mv	a0,s0
	j	.L1
.L13:
	.loc 1 19 2 is_stmt 1
	.loc 1 19 4 is_stmt 0
	ld	a2,.LC0
	mul	a2,a1,a2
.LVL6:
	.loc 1 20 2 is_stmt 1
.L5:
	.loc 1 20 22 discriminator 1
	.loc 1 20 23 is_stmt 0 discriminator 1
	ld	a5,0(s0)
	ld	a4,.LC1
	add	a4,a5,a4
	not	a3,a5
	and	a4,a4,a3
	ld	a3,.LC2
	and	a4,a4,a3
	.loc 1 20 2 discriminator 1
	bne	a4,zero,.L6
	.loc 1 20 39 discriminator 3
	xor	a5,a5,a2
	ld	a4,.LC1
	add	a4,a5,a4
	not	a5,a5
	and	a5,a4,a5
	and	a5,a5,a3
	.loc 1 20 35 discriminator 3
	bne	a5,zero,.L6
	.loc 1 20 58 is_stmt 1 discriminator 4
	.loc 1 20 54 discriminator 4
	.loc 1 20 55 is_stmt 0 discriminator 4
	addi	s0,s0,8
.LVL7:
	j	.L5
.L6:
	.loc 1 11 1 discriminator 1
	mv	a0,s0
	j	.L8
.LVL8:
.L9:
	.loc 1 21 58 is_stmt 1 discriminator 4
	.loc 1 21 54 discriminator 4
	.loc 1 21 55 is_stmt 0 discriminator 4
	addi	a0,a0,1
.LVL9:
.L8:
	.loc 1 21 22 is_stmt 1 discriminator 1
	lbu	a5,0(a0)
	.loc 1 21 2 is_stmt 0 discriminator 1
	beq	a5,zero,.L1
	.loc 1 21 28 discriminator 3
	sext.w	a5,a5
	.loc 1 21 25 discriminator 3
	bne	a5,a1,.L9
	j	.L1
.LVL10:
.L10:
	.loc 1 18 47
	mv	a0,s0
	j	.L1
	.cfi_endproc
.LFE0:
	.size	__strchrnul, .-__strchrnul
	.section	.srodata.cst8,"aM",@progbits,8
	.align	3
.LC0:
	.dword	72340172838076673
	.align	3
.LC1:
	.dword	-72340172838076673
	.align	3
.LC2:
	.dword	-9187201950435737472
	.text
.Letext0:
	.file 2 "/home/sai/Shakti-TEE-Build/riscv/lib/gcc/riscv64-unknown-elf/9.2.0/include/stddef.h"
	.file 3 "/home/sai/Shakti-TEE-Build/riscv/riscv64-unknown-elf/include/machine/_default_types.h"
	.file 4 "/home/sai/Shakti-TEE-Build/riscv/riscv64-unknown-elf/include/sys/_stdint.h"
	.file 5 "/home/sai/ocaml-freestanding-riscv/nolibc/include/string.h"