	.file	"stubs.c"
	.option nopic
	.attribute arch, "rv64i2p0_m2p0_a2p0_f2p0_d2p0_c2p0"
	.attribute unaligned_access, 0
	.attribute stack_align, 16
	.text
.Ltext0:
	.cfi_sections	.debug_frame
	.section	.rodata.str1.8,"aMS",@progbits,1
	.align	3
.LC0:
	.string	"fflush"
	.align	3
.LC1:
	.string	"STUB: %s() called\n"
	.text
	.align	1
	.globl	fflush
	.type	fflush, @function
fflush:
.LFB0:
	.file 1 "stubs.c"
	.loc 1 46 1
	.cfi_startproc
	.loc 1 46 1
	.loc 1 46 1
	lw	a5,called.1529
	beq	a5,zero,.L7
	.loc 1 46 1
	li	a5,3
	sw	a5,errno,a4
	.loc 1 46 1
	li	a0,0
	ret
.L7:
	.loc 1 46 1 is_stmt 0 discriminator 1
	addi	sp,sp,-16
	.cfi_def_cfa_offset 16
	sd	ra,8(sp)
	.cfi_offset 1, -8
	.loc 1 46 1 is_stmt 1 discriminator 1
	lla	a1,.LC0
	lla	a0,.LC1
	call	printf
.LVL0:
	.loc 1 46 1 discriminator 1
	li	a5,1
	sw	a5,called.1529,a4
	.loc 1 46 1 discriminator 1
	li	a5,3
	sw	a5,errno,a4
	.loc 1 46 1 discriminator 1
	li	a0,0
	ld	ra,8(sp)
	.cfi_restore 1
	addi	sp,sp,16
	.cfi_def_cfa_offset 0
	jr	ra
	.cfi_endproc
.LFE0:
	.size	fflush, .-fflush
	.section	.rodata.str1.8
	.align	3
.LC2:
	.string	"rename"
	.align	3
.LC3:
	.string	"STUB: abort: %s() called\n"
	.text
	.align	1
	.globl	rename
	.type	rename, @function
rename:
.LFB1:
	.loc 1 47 1
	.cfi_startproc
	addi	sp,sp,-16
	.cfi_def_cfa_offset 16
	sd	ra,8(sp)
	.cfi_offset 1, -8
	.loc 1 47 1
	lla	a1,.LC2
	lla	a0,.LC3
	call	printf
.LVL1:
	.loc 1 47 1
	call	abort
.LVL2:
	.cfi_endproc
.LFE1:
	.size	rename, .-rename
	.section	.rodata.str1.8
	.align	3
.LC4:
	.string	"sscanf"
	.text
	.align	1
	.globl	sscanf
	.type	sscanf, @function
sscanf:
.LFB2:
	.loc 1 48 1
	.cfi_startproc
	addi	sp,sp,-16
	.cfi_def_cfa_offset 16
	sd	ra,8(sp)
	.cfi_offset 1, -8
	.loc 1 48 1
	lla	a1,.LC4
	lla	a0,.LC3
	call	printf
.LVL3:
	.loc 1 48 1
	call	abort
.LVL4:
	.cfi_endproc
.LFE2:
	.size	sscanf, .-sscanf
	.section	.rodata.str1.8
	.align	3
.LC5:
	.string	"fread"
	.text
	.align	1
	.globl	fread
	.type	fread, @function
fread:
.LFB3:
	.loc 1 53 1
	.cfi_startproc
	.loc 1 53 1
	.loc 1 53 1
	lw	a5,called.1545
	beq	a5,zero,.L18
	.loc 1 53 1
	li	a5,3
	sw	a5,errno,a4
	.loc 1 53 1
	li	a0,0
	ret
.L18:
	.loc 1 53 1 is_stmt 0 discriminator 1
	addi	sp,sp,-16
	.cfi_def_cfa_offset 16
	sd	ra,8(sp)
	.cfi_offset 1, -8
	.loc 1 53 1 is_stmt 1 discriminator 1
	lla	a1,.LC5
	lla	a0,.LC1
	call	printf
.LVL5:
	.loc 1 53 1 discriminator 1
	li	a5,1
	sw	a5,called.1545,a4
	.loc 1 53 1 discriminator 1
	li	a5,3
	sw	a5,errno,a4
	.loc 1 53 1 discriminator 1
	li	a0,0
	ld	ra,8(sp)
	.cfi_restore 1
	addi	sp,sp,16
	.cfi_def_cfa_offset 0
	jr	ra
	.cfi_endproc
.LFE3:
	.size	fread, .-fread
	.section	.rodata.str1.8
	.align	3
.LC6:
	.string	"getc"
	.text
	.align	1
	.globl	getc
	.type	getc, @function
getc:
.LFB4:
	.loc 1 54 1
	.cfi_startproc
	.loc 1 54 1
	.loc 1 54 1
	lw	a5,called.1551
	beq	a5,zero,.L25
	.loc 1 54 1
	li	a5,3
	sw	a5,errno,a4
	.loc 1 54 1
	li	a0,-1
	ret
.L25:
	.loc 1 54 1 is_stmt 0 discriminator 1
	addi	sp,sp,-16
	.cfi_def_cfa_offset 16
	sd	ra,8(sp)
	.cfi_offset 1, -8
	.loc 1 54 1 is_stmt 1 discriminator 1
	lla	a1,.LC6
	lla	a0,.LC1
	call	printf
.LVL6:
	.loc 1 54 1 discriminator 1
	li	a5,1
	sw	a5,called.1551,a4
	.loc 1 54 1 discriminator 1
	li	a5,3
	sw	a5,errno,a4
	.loc 1 54 1 discriminator 1
	li	a0,-1
	ld	ra,8(sp)
	.cfi_restore 1
	addi	sp,sp,16
	.cfi_def_cfa_offset 0
	jr	ra
	.cfi_endproc
.LFE4:
	.size	getc, .-getc
	.section	.rodata.str1.8
	.align	3
.LC7:
	.string	"ungetc"
	.text
	.align	1
	.globl	ungetc
	.type	ungetc, @function
ungetc:
.LFB5:
	.loc 1 55 1
	.cfi_startproc
	.loc 1 55 1
	.loc 1 55 1
	lw	a5,called.1557
	beq	a5,zero,.L32
	.loc 1 55 1
	li	a5,3
	sw	a5,errno,a4
	.loc 1 55 1
	li	a0,-1
	ret
.L32:
	.loc 1 55 1 is_stmt 0 discriminator 1
	addi	sp,sp,-16
	.cfi_def_cfa_offset 16
	sd	ra,8(sp)
	.cfi_offset 1, -8
	.loc 1 55 1 is_stmt 1 discriminator 1
	lla	a1,.LC7
	lla	a0,.LC1
	call	printf
.LVL7:
	.loc 1 55 1 discriminator 1
	li	a5,1
	sw	a5,called.1557,a4
	.loc 1 55 1 discriminator 1
	li	a5,3
	sw	a5,errno,a4
	.loc 1 55 1 discriminator 1
	li	a0,-1
	ld	ra,8(sp)
	.cfi_restore 1
	addi	sp,sp,16
	.cfi_def_cfa_offset 0
	jr	ra
	.cfi_endproc
.LFE5:
	.size	ungetc, .-ungetc
	.section	.rodata.str1.8
	.align	3
.LC8:
	.string	"fwrite"
	.text
	.align	1
	.globl	fwrite
	.type	fwrite, @function
fwrite:
.LFB6:
	.loc 1 56 1
	.cfi_startproc
	.loc 1 56 1
	.loc 1 56 1
	lw	a5,called.1563
	beq	a5,zero,.L39
	.loc 1 56 1
	li	a5,3
	sw	a5,errno,a4
	.loc 1 56 1
	li	a0,0
	ret
.L39:
	.loc 1 56 1 is_stmt 0 discriminator 1
	addi	sp,sp,-16
	.cfi_def_cfa_offset 16
	sd	ra,8(sp)
	.cfi_offset 1, -8
	.loc 1 56 1 is_stmt 1 discriminator 1
	lla	a1,.LC8
	lla	a0,.LC1
	call	printf
.LVL8:
	.loc 1 56 1 discriminator 1
	li	a5,1
	sw	a5,called.1563,a4
	.loc 1 56 1 discriminator 1
	li	a5,3
	sw	a5,errno,a4
	.loc 1 56 1 discriminator 1
	li	a0,0
	ld	ra,8(sp)
	.cfi_restore 1
	addi	sp,sp,16
	.cfi_def_cfa_offset 0
	jr	ra
	.cfi_endproc
.LFE6:
	.size	fwrite, .-fwrite
	.section	.rodata.str1.8
	.align	3
.LC9:
	.string	"fputc"
	.text
	.align	1
	.globl	fputc
	.type	fputc, @function
fputc:
.LFB7:
	.loc 1 57 1
	.cfi_startproc
	.loc 1 57 1
	.loc 1 57 1
	lw	a5,called.1569
	beq	a5,zero,.L46
	.loc 1 57 1
	li	a5,3
	sw	a5,errno,a4
	.loc 1 57 1
	li	a0,-1
	ret
.L46:
	.loc 1 57 1 is_stmt 0 discriminator 1
	addi	sp,sp,-16
	.cfi_def_cfa_offset 16
	sd	ra,8(sp)
	.cfi_offset 1, -8
	.loc 1 57 1 is_stmt 1 discriminator 1
	lla	a1,.LC9
	lla	a0,.LC1
	call	printf
.LVL9:
	.loc 1 57 1 discriminator 1
	li	a5,1
	sw	a5,called.1569,a4
	.loc 1 57 1 discriminator 1
	li	a5,3
	sw	a5,errno,a4
	.loc 1 57 1 discriminator 1
	li	a0,-1
	ld	ra,8(sp)
	.cfi_restore 1
	addi	sp,sp,16
	.cfi_def_cfa_offset 0
	jr	ra
	.cfi_endproc
.LFE7:
	.size	fputc, .-fputc
	.section	.rodata.str1.8
	.align	3
.LC10:
	.string	"putc"
	.text
	.align	1
	.globl	putc
	.type	putc, @function
putc:
.LFB8:
	.loc 1 58 1
	.cfi_startproc
	.loc 1 58 1
	.loc 1 58 1
	lw	a5,called.1575
	beq	a5,zero,.L53
	.loc 1 58 1
	li	a5,3
	sw	a5,errno,a4
	.loc 1 58 1
	li	a0,-1
	ret
.L53:
	.loc 1 58 1 is_stmt 0 discriminator 1
	addi	sp,sp,-16
	.cfi_def_cfa_offset 16
	sd	ra,8(sp)
	.cfi_offset 1, -8
	.loc 1 58 1 is_stmt 1 discriminator 1
	lla	a1,.LC10
	lla	a0,.LC1
	call	printf
.LVL10:
	.loc 1 58 1 discriminator 1
	li	a5,1
	sw	a5,called.1575,a4
	.loc 1 58 1 discriminator 1
	li	a5,3
	sw	a5,errno,a4
	.loc 1 58 1 discriminator 1
	li	a0,-1
	ld	ra,8(sp)
	.cfi_restore 1
	addi	sp,sp,16
	.cfi_def_cfa_offset 0
	jr	ra
	.cfi_endproc
.LFE8:
	.size	putc, .-putc
	.section	.rodata.str1.8
	.align	3
.LC11:
	.string	"ferror"
	.text
	.align	1
	.globl	ferror
	.type	ferror, @function
ferror:
.LFB9:
	.loc 1 59 1
	.cfi_startproc
	.loc 1 59 1
	.loc 1 59 1
	lw	a5,called.1581
	beq	a5,zero,.L60
	.loc 1 59 1
	li	a5,3
	sw	a5,errno,a4
	.loc 1 59 1
	li	a0,1
	ret
.L60:
	.loc 1 59 1 is_stmt 0 discriminator 1
	addi	sp,sp,-16
	.cfi_def_cfa_offset 16
	sd	ra,8(sp)
	.cfi_offset 1, -8
	.loc 1 59 1 is_stmt 1 discriminator 1
	lla	a1,.LC11
	lla	a0,.LC1
	call	printf
.LVL11:
	.loc 1 59 1 discriminator 1
	li	a5,1
	sw	a5,called.1581,a4
	.loc 1 59 1 discriminator 1
	li	a5,3
	sw	a5,errno,a4
	.loc 1 59 1 discriminator 1
	li	a0,1
	ld	ra,8(sp)
	.cfi_restore 1
	addi	sp,sp,16
	.cfi_def_cfa_offset 0
	jr	ra
	.cfi_endproc
.LFE9:
	.size	ferror, .-ferror
	.section	.rodata.str1.8
	.align	3
.LC12:
	.string	"fputs"
	.text
	.align	1
	.globl	fputs
	.type	fputs, @function
fputs:
.LFB10:
	.loc 1 61 1
	.cfi_startproc
	.loc 1 61 1
	.loc 1 61 1
	lw	a5,called.1587
	beq	a5,zero,.L67
	.loc 1 61 1
	li	a5,3
	sw	a5,errno,a4
	.loc 1 61 1
	li	a0,-1
	ret
.L67:
	.loc 1 61 1 is_stmt 0 discriminator 1
	addi	sp,sp,-16
	.cfi_def_cfa_offset 16
	sd	ra,8(sp)
	.cfi_offset 1, -8
	.loc 1 61 1 is_stmt 1 discriminator 1
	lla	a1,.LC12
	lla	a0,.LC1
	call	printf
.LVL12:
	.loc 1 61 1 discriminator 1
	li	a5,1
	sw	a5,called.1587,a4
	.loc 1 61 1 discriminator 1
	li	a5,3
	sw	a5,errno,a4
	.loc 1 61 1 discriminator 1
	li	a0,-1
	ld	ra,8(sp)
	.cfi_restore 1
	addi	sp,sp,16
	.cfi_def_cfa_offset 0
	jr	ra
	.cfi_endproc
.LFE10:
	.size	fputs, .-fputs
	.section	.rodata.str1.8
	.align	3
.LC13:
	.string	"fgets"
	.text
	.align	1
	.globl	fgets
	.type	fgets, @function
fgets:
.LFB11:
	.loc 1 62 1
	.cfi_startproc
	.loc 1 62 1
	.loc 1 62 1
	lw	a5,called.1593
	beq	a5,zero,.L74
	.loc 1 62 1
	li	a5,3
	sw	a5,errno,a4
	.loc 1 62 1
	li	a0,-1
	ret
.L74:
	.loc 1 62 1 is_stmt 0 discriminator 1
	addi	sp,sp,-16
	.cfi_def_cfa_offset 16
	sd	ra,8(sp)
	.cfi_offset 1, -8
	.loc 1 62 1 is_stmt 1 discriminator 1
	lla	a1,.LC13
	lla	a0,.LC1
	call	printf
.LVL13:
	.loc 1 62 1 discriminator 1
	li	a5,1
	sw	a5,called.1593,a4
	.loc 1 62 1 discriminator 1
	li	a5,3
	sw	a5,errno,a4
	.loc 1 62 1 discriminator 1
	li	a0,-1
	ld	ra,8(sp)
	.cfi_restore 1
	addi	sp,sp,16
	.cfi_def_cfa_offset 0
	jr	ra
	.cfi_endproc
.LFE11:
	.size	fgets, .-fgets
	.section	.rodata.str1.8
	.align	3
.LC14:
	.string	"getenv"
	.text
	.align	1
	.globl	getenv
	.type	getenv, @function
getenv:
.LFB12:
	.loc 1 65 1
	.cfi_startproc
	.loc 1 65 1
	.loc 1 65 1
	lw	a5,called.1599
	beq	a5,zero,.L81
	.loc 1 65 1
	li	a5,3
	sw	a5,errno,a4
	.loc 1 65 1
	li	a0,0
	ret
.L81:
	.loc 1 65 1 is_stmt 0 discriminator 1
	addi	sp,sp,-16
	.cfi_def_cfa_offset 16
	sd	ra,8(sp)
	.cfi_offset 1, -8
	.loc 1 65 1 is_stmt 1 discriminator 1
	lla	a1,.LC14
	lla	a0,.LC1
	call	printf
.LVL14:
	.loc 1 65 1 discriminator 1
	li	a5,1
	sw	a5,called.1599,a4
	.loc 1 65 1 discriminator 1
	li	a5,3
	sw	a5,errno,a4
	.loc 1 65 1 discriminator 1
	li	a0,0
	ld	ra,8(sp)
	.cfi_restore 1
	addi	sp,sp,16
	.cfi_def_cfa_offset 0
	jr	ra
	.cfi_endproc
.LFE12:
	.size	getenv, .-getenv
	.section	.rodata.str1.8
	.align	3
.LC15:
	.string	"secure_getenv"
	.text
	.align	1
	.globl	secure_getenv
	.type	secure_getenv, @function
secure_getenv:
.LFB13:
	.loc 1 66 1
	.cfi_startproc
	.loc 1 66 1
	.loc 1 66 1
	lw	a5,called.1605
	beq	a5,zero,.L88
	.loc 1 66 1
	li	a5,3
	sw	a5,errno,a4
	.loc 1 66 1
	li	a0,0
	ret
.L88:
	.loc 1 66 1 is_stmt 0 discriminator 1
	addi	sp,sp,-16
	.cfi_def_cfa_offset 16
	sd	ra,8(sp)
	.cfi_offset 1, -8
	.loc 1 66 1 is_stmt 1 discriminator 1
	lla	a1,.LC15
	lla	a0,.LC1
	call	printf
.LVL15:
	.loc 1 66 1 discriminator 1
	li	a5,1
	sw	a5,called.1605,a4
	.loc 1 66 1 discriminator 1
	li	a5,3
	sw	a5,errno,a4
	.loc 1 66 1 discriminator 1
	li	a0,0
	ld	ra,8(sp)
	.cfi_restore 1
	addi	sp,sp,16
	.cfi_def_cfa_offset 0
	jr	ra
	.cfi_endproc
.LFE13:
	.size	secure_getenv, .-secure_getenv
	.section	.rodata.str1.8
	.align	3
.LC16:
	.string	"system"
	.text
	.align	1
	.globl	system
	.type	system, @function
system:
.LFB14:
	.loc 1 67 1
	.cfi_startproc
	addi	sp,sp,-16
	.cfi_def_cfa_offset 16
	sd	ra,8(sp)
	.cfi_offset 1, -8
	.loc 1 67 1
	lla	a1,.LC16
	lla	a0,.LC3
	call	printf
.LVL16:
	.loc 1 67 1
	call	abort
.LVL17:
	.cfi_endproc
.LFE14:
	.size	system, .-system
	.section	.rodata.str1.8
	.align	3
.LC17:
	.string	"chdir"
	.text
	.align	1
	.globl	chdir
	.type	chdir, @function
chdir:
.LFB15:
	.loc 1 70 1
	.cfi_startproc
	.loc 1 70 1
	.loc 1 70 1
	lw	a5,called.1616
	beq	a5,zero,.L97
	.loc 1 70 1
	li	a5,3
	sw	a5,errno,a4
	.loc 1 70 1
	li	a0,-1
	ret
.L97:
	.loc 1 70 1 is_stmt 0 discriminator 1
	addi	sp,sp,-16
	.cfi_def_cfa_offset 16
	sd	ra,8(sp)
	.cfi_offset 1, -8
	.loc 1 70 1 is_stmt 1 discriminator 1
	lla	a1,.LC17
	lla	a0,.LC1
	call	printf
.LVL18:
	.loc 1 70 1 discriminator 1
	li	a5,1
	sw	a5,called.1616,a4
	.loc 1 70 1 discriminator 1
	li	a5,3
	sw	a5,errno,a4
	.loc 1 70 1 discriminator 1
	li	a0,-1
	ld	ra,8(sp)
	.cfi_restore 1
	addi	sp,sp,16
	.cfi_def_cfa_offset 0
	jr	ra
	.cfi_endproc
.LFE15:
	.size	chdir, .-chdir
	.section	.rodata.str1.8
	.align	3
.LC18:
	.string	"close"
	.text
	.align	1
	.globl	close
	.type	close, @function
close:
.LFB16:
	.loc 1 71 1
	.cfi_startproc
	addi	sp,sp,-16
	.cfi_def_cfa_offset 16
	sd	ra,8(sp)
	.cfi_offset 1, -8
	.loc 1 71 1
	lla	a1,.LC18
	lla	a0,.LC3
	call	printf
.LVL19:
	.loc 1 71 1
	call	abort
.LVL20:
	.cfi_endproc
.LFE16:
	.size	close, .-close
	.section	.rodata.str1.8
	.align	3
.LC19:
	.string	"getcwd"
	.text
	.align	1
	.globl	getcwd
	.type	getcwd, @function
getcwd:
.LFB17:
	.loc 1 72 1
	.cfi_startproc
	addi	sp,sp,-16
	.cfi_def_cfa_offset 16
	sd	ra,8(sp)
	.cfi_offset 1, -8
	.loc 1 72 1
	lla	a1,.LC19
	lla	a0,.LC3
	call	printf
.LVL21:
	.loc 1 72 1
	call	abort
.LVL22:
	.cfi_endproc
.LFE17:
	.size	getcwd, .-getcwd
	.section	.rodata.str1.8
	.align	3
.LC20:
	.string	"getpid"
	.text
	.align	1
	.globl	getpid
	.type	getpid, @function
getpid:
.LFB18:
	.loc 1 73 1
	.cfi_startproc
	.loc 1 73 1
	.loc 1 73 1
	lw	a5,called.1632
	beq	a5,zero,.L108
	.loc 1 73 1
	li	a5,3
	sw	a5,errno,a4
	.loc 1 73 1
	li	a0,2
	ret
.L108:
	.loc 1 73 1 is_stmt 0 discriminator 1
	addi	sp,sp,-16
	.cfi_def_cfa_offset 16
	sd	ra,8(sp)
	.cfi_offset 1, -8
	.loc 1 73 1 is_stmt 1 discriminator 1
	lla	a1,.LC20
	lla	a0,.LC1
	call	printf
.LVL23:
	.loc 1 73 1 discriminator 1
	li	a5,1
	sw	a5,called.1632,a4
	.loc 1 73 1 discriminator 1
	li	a5,3
	sw	a5,errno,a4
	.loc 1 73 1 discriminator 1
	li	a0,2
	ld	ra,8(sp)
	.cfi_restore 1
	addi	sp,sp,16
	.cfi_def_cfa_offset 0
	jr	ra
	.cfi_endproc
.LFE18:
	.size	getpid, .-getpid
	.section	.rodata.str1.8
	.align	3
.LC21:
	.string	"getppid"
	.text
	.align	1
	.globl	getppid
	.type	getppid, @function
getppid:
.LFB19:
	.loc 1 74 1
	.cfi_startproc
	.loc 1 74 1
	.loc 1 74 1
	lw	a5,called.1638
	beq	a5,zero,.L115
	.loc 1 74 1
	li	a5,3
	sw	a5,errno,a4
	.loc 1 74 1
	li	a0,1
	ret
.L115:
	.loc 1 74 1 is_stmt 0 discriminator 1
	addi	sp,sp,-16
	.cfi_def_cfa_offset 16
	sd	ra,8(sp)
	.cfi_offset 1, -8
	.loc 1 74 1 is_stmt 1 discriminator 1
	lla	a1,.LC21
	lla	a0,.LC1
	call	printf
.LVL24:
	.loc 1 74 1 discriminator 1
	li	a5,1
	sw	a5,called.1638,a4
	.loc 1 74 1 discriminator 1
	li	a5,3
	sw	a5,errno,a4
	.loc 1 74 1 discriminator 1
	li	a0,1
	ld	ra,8(sp)
	.cfi_restore 1
	addi	sp,sp,16
	.cfi_def_cfa_offset 0
	jr	ra
	.cfi_endproc
.LFE19:
	.size	getppid, .-getppid
	.align	1
	.globl	isatty
	.type	isatty, @function
isatty:
.LFB20:
	.loc 1 75 1
	.cfi_startproc
	.loc 1 75 1
	li	a5,3
	sw	a5,errno,a4
	.loc 1 75 1
	li	a0,0
	ret
	.cfi_endproc
.LFE20:
	.size	isatty, .-isatty
	.align	1
	.globl	lseek
	.type	lseek, @function
lseek:
.LFB21:
	.loc 1 76 1
	.cfi_startproc
	.loc 1 76 1
	li	a5,3
	sw	a5,errno,a4
	.loc 1 76 1
	li	a0,-1
	ret
	.cfi_endproc
.LFE21:
	.size	lseek, .-lseek
	.section	.rodata.str1.8
	.align	3
.LC22:
	.string	"read"
	.text
	.align	1
	.globl	read
	.type	read, @function
read:
.LFB22:
	.loc 1 77 1
	.cfi_startproc
	addi	sp,sp,-16
	.cfi_def_cfa_offset 16
	sd	ra,8(sp)
	.cfi_offset 1, -8
	.loc 1 77 1
	lla	a1,.LC22
	lla	a0,.LC3
	call	printf
.LVL25:
	.loc 1 77 1
	call	abort
.LVL26:
	.cfi_endproc
.LFE22:
	.size	read, .-read
	.align	1
	.globl	readlink
	.type	readlink, @function
readlink:
.LFB23:
	.loc 1 78 1
	.cfi_startproc
	.loc 1 78 1
	li	a5,3
	sw	a5,errno,a4
	.loc 1 78 1
	li	a0,-1
	ret
	.cfi_endproc
.LFE23:
	.size	readlink, .-readlink
	.section	.rodata.str1.8
	.align	3
.LC23:
	.string	"unlink"
	.text
	.align	1
	.globl	unlink
	.type	unlink, @function
unlink:
.LFB24:
	.loc 1 79 1
	.cfi_startproc
	addi	sp,sp,-16
	.cfi_def_cfa_offset 16
	sd	ra,8(sp)
	.cfi_offset 1, -8
	.loc 1 79 1
	lla	a1,.LC23
	lla	a0,.LC3
	call	printf
.LVL27:
	.loc 1 79 1
	call	abort
.LVL28:
	.cfi_endproc
.LFE24:
	.size	unlink, .-unlink
	.section	.rodata.str1.8
	.align	3
.LC24:
	.string	"closedir"
	.text
	.align	1
	.globl	closedir
	.type	closedir, @function
closedir:
.LFB25:
	.loc 1 82 1
	.cfi_startproc
	.loc 1 82 1
	.loc 1 82 1
	lw	a5,called.1669
	beq	a5,zero,.L129
	.loc 1 82 1
	li	a5,3
	sw	a5,errno,a4
	.loc 1 82 1
	li	a0,-1
	ret
.L129:
	.loc 1 82 1 is_stmt 0 discriminator 1
	addi	sp,sp,-16
	.cfi_def_cfa_offset 16
	sd	ra,8(sp)
	.cfi_offset 1, -8
	.loc 1 82 1 is_stmt 1 discriminator 1
	lla	a1,.LC24
	lla	a0,.LC1
	call	printf
.LVL29:
	.loc 1 82 1 discriminator 1
	li	a5,1
	sw	a5,called.1669,a4
	.loc 1 82 1 discriminator 1
	li	a5,3
	sw	a5,errno,a4
	.loc 1 82 1 discriminator 1
	li	a0,-1
	ld	ra,8(sp)
	.cfi_restore 1
	addi	sp,sp,16
	.cfi_def_cfa_offset 0
	jr	ra
	.cfi_endproc
.LFE25:
	.size	closedir, .-closedir
	.section	.rodata.str1.8
	.align	3
.LC25:
	.string	"opendir"
	.text
	.align	1
	.globl	opendir
	.type	opendir, @function
opendir:
.LFB26:
	.loc 1 83 1
	.cfi_startproc
	.loc 1 83 1
	.loc 1 83 1
	lw	a5,called.1675
	beq	a5,zero,.L136
	.loc 1 83 1
	li	a5,3
	sw	a5,errno,a4
	.loc 1 83 1
	li	a0,0
	ret
.L136:
	.loc 1 83 1 is_stmt 0 discriminator 1
	addi	sp,sp,-16
	.cfi_def_cfa_offset 16
	sd	ra,8(sp)
	.cfi_offset 1, -8
	.loc 1 83 1 is_stmt 1 discriminator 1
	lla	a1,.LC25
	lla	a0,.LC1
	call	printf
.LVL30:
	.loc 1 83 1 discriminator 1
	li	a5,1
	sw	a5,called.1675,a4
	.loc 1 83 1 discriminator 1
	li	a5,3
	sw	a5,errno,a4
	.loc 1 83 1 discriminator 1
	li	a0,0
	ld	ra,8(sp)
	.cfi_restore 1
	addi	sp,sp,16
	.cfi_def_cfa_offset 0
	jr	ra
	.cfi_endproc
.LFE26:
	.size	opendir, .-opendir
	.section	.rodata.str1.8
	.align	3
.LC26:
	.string	"readdir"
	.text
	.align	1
	.globl	readdir
	.type	readdir, @function
readdir:
.LFB27:
	.loc 1 84 1
	.cfi_startproc
	.loc 1 84 1
	.loc 1 84 1
	lw	a5,called.1681
	beq	a5,zero,.L143
	.loc 1 84 1
	li	a5,3
	sw	a5,errno,a4
	.loc 1 84 1
	li	a0,0
	ret
.L143:
	.loc 1 84 1 is_stmt 0 discriminator 1
	addi	sp,sp,-16
	.cfi_def_cfa_offset 16
	sd	ra,8(sp)
	.cfi_offset 1, -8
	.loc 1 84 1 is_stmt 1 discriminator 1
	lla	a1,.LC26
	lla	a0,.LC1
	call	printf
.LVL31:
	.loc 1 84 1 discriminator 1
	li	a5,1
	sw	a5,called.1681,a4
	.loc 1 84 1 discriminator 1
	li	a5,3
	sw	a5,errno,a4
	.loc 1 84 1 discriminator 1
	li	a0,0
	ld	ra,8(sp)
	.cfi_restore 1
	addi	sp,sp,16
	.cfi_def_cfa_offset 0
	jr	ra
	.cfi_endproc
.LFE27:
	.size	readdir, .-readdir
	.section	.rodata.str1.8
	.align	3
.LC27:
	.string	"fcntl"
	.text
	.align	1
	.globl	fcntl
	.type	fcntl, @function
fcntl:
.LFB28:
	.loc 1 87 1
	.cfi_startproc
	addi	sp,sp,-16
	.cfi_def_cfa_offset 16
	sd	ra,8(sp)
	.cfi_offset 1, -8
	.loc 1 87 1
	lla	a1,.LC27
	lla	a0,.LC3
	call	printf
.LVL32:
	.loc 1 87 1
	call	abort
.LVL33:
	.cfi_endproc
.LFE28:
	.size	fcntl, .-fcntl
	.section	.rodata.str1.8
	.align	3
.LC28:
	.string	"open"
	.text
	.align	1
	.globl	open
	.type	open, @function
open:
.LFB29:
	.loc 1 88 1
	.cfi_startproc
	.loc 1 88 1
	.loc 1 88 1
	lw	a5,called.1692
	beq	a5,zero,.L152
	.loc 1 88 1
	li	a5,3
	sw	a5,errno,a4
	.loc 1 88 1
	li	a0,-1
	ret
.L152:
	.loc 1 88 1 is_stmt 0 discriminator 1
	addi	sp,sp,-16
	.cfi_def_cfa_offset 16
	sd	ra,8(sp)
	.cfi_offset 1, -8
	.loc 1 88 1 is_stmt 1 discriminator 1
	lla	a1,.LC28
	lla	a0,.LC1
	call	printf
.LVL34:
	.loc 1 88 1 discriminator 1
	li	a5,1
	sw	a5,called.1692,a4
	.loc 1 88 1 discriminator 1
	li	a5,3
	sw	a5,errno,a4
	.loc 1 88 1 discriminator 1
	li	a0,-1
	ld	ra,8(sp)
	.cfi_restore 1
	addi	sp,sp,16
	.cfi_def_cfa_offset 0
	jr	ra
	.cfi_endproc
.LFE29:
	.size	open, .-open
	.align	1
	.globl	sigaction
	.type	sigaction, @function
sigaction:
.LFB30:
	.loc 1 91 1
	.cfi_startproc
	.loc 1 91 1
	li	a5,3
	sw	a5,errno,a4
	.loc 1 91 1
	li	a0,-1
	ret
	.cfi_endproc
.LFE30:
	.size	sigaction, .-sigaction
	.align	1
	.globl	sigsetjmp
	.type	sigsetjmp, @function
sigsetjmp:
.LFB31:
	.loc 1 92 1
	.cfi_startproc
	.loc 1 92 1
	li	a5,3
	sw	a5,errno,a4
	.loc 1 92 1
	li	a0,0
	ret
	.cfi_endproc
.LFE31:
	.size	sigsetjmp, .-sigsetjmp
	.align	1
	.globl	sigaddset
	.type	sigaddset, @function
sigaddset:
.LFB32:
	.loc 1 93 1
	.cfi_startproc
	.loc 1 93 1
	li	a5,3
	sw	a5,errno,a4
	.loc 1 93 1
	li	a0,-1
	ret
	.cfi_endproc
.LFE32:
	.size	sigaddset, .-sigaddset
	.align	1
	.globl	sigdelset
	.type	sigdelset, @function
sigdelset:
.LFB33:
	.loc 1 94 1
	.cfi_startproc
	.loc 1 94 1
	li	a5,3
	sw	a5,errno,a4
	.loc 1 94 1
	li	a0,-1
	ret
	.cfi_endproc
.LFE33:
	.size	sigdelset, .-sigdelset
	.align	1
	.globl	sigemptyset
	.type	sigemptyset, @function
sigemptyset:
.LFB34:
	.loc 1 95 1
	.cfi_startproc
	.loc 1 95 1
	li	a5,3
	sw	a5,errno,a4
	.loc 1 95 1
	li	a0,-1
	ret
	.cfi_endproc
.LFE34:
	.size	sigemptyset, .-sigemptyset
	.align	1
	.globl	sigprocmask
	.type	sigprocmask, @function
sigprocmask:
.LFB35:
	.loc 1 96 1
	.cfi_startproc
	.loc 1 96 1
	li	a5,3
	sw	a5,errno,a4
	.loc 1 96 1
	li	a0,-1
	ret
	.cfi_endproc
.LFE35:
	.size	sigprocmask, .-sigprocmask
	.section	.rodata.str1.8
	.align	3
.LC29:
	.string	"raise"
	.text
	.align	1
	.globl	raise
	.type	raise, @function
raise:
.LFB36:
	.loc 1 101 1
	.cfi_startproc
	addi	sp,sp,-16
	.cfi_def_cfa_offset 16
	sd	ra,8(sp)
	.cfi_offset 1, -8
	.loc 1 101 1
	lla	a1,.LC29
	lla	a0,.LC3
	call	printf
.LVL35:
	.loc 1 101 1
	call	abort
.LVL36:
	.cfi_endproc
.LFE36:
	.size	raise, .-raise
	.section	.rodata.str1.8
	.align	3
.LC30:
	.string	"strerror"
	.text
	.align	1
	.globl	strerror
	.type	strerror, @function
strerror:
.LFB37:
	.loc 1 104 1
	.cfi_startproc
	addi	sp,sp,-16
	.cfi_def_cfa_offset 16
	sd	ra,8(sp)
	.cfi_offset 1, -8
	.loc 1 104 1
	lla	a1,.LC30
	lla	a0,.LC3
	call	printf
.LVL37:
	.loc 1 104 1
	call	abort
.LVL38:
	.cfi_endproc
.LFE37:
	.size	strerror, .-strerror
	.section	.rodata.str1.8
	.align	3
.LC31:
	.string	"stat"
	.text
	.align	1
	.globl	stat
	.type	stat, @function
stat:
.LFB38:
	.loc 1 107 1
	.cfi_startproc
	.loc 1 107 1
	.loc 1 107 1
	lw	a5,called.1738
	beq	a5,zero,.L169
	.loc 1 107 1
	li	a5,3
	sw	a5,errno,a4
	.loc 1 107 1
	li	a0,-1
	ret
.L169:
	.loc 1 107 1 is_stmt 0 discriminator 1
	addi	sp,sp,-16
	.cfi_def_cfa_offset 16
	sd	ra,8(sp)
	.cfi_offset 1, -8
	.loc 1 107 1 is_stmt 1 discriminator 1
	lla	a1,.LC31
	lla	a0,.LC1
	call	printf
.LVL39:
	.loc 1 107 1 discriminator 1
	li	a5,1
	sw	a5,called.1738,a4
	.loc 1 107 1 discriminator 1
	li	a5,3
	sw	a5,errno,a4
	.loc 1 107 1 discriminator 1
	li	a0,-1
	ld	ra,8(sp)
	.cfi_restore 1
	addi	sp,sp,16
	.cfi_def_cfa_offset 0
	jr	ra
	.cfi_endproc
.LFE38:
	.size	stat, .-stat
	.section	.rodata.str1.8
	.align	3
.LC32:
	.string	"caml_ba_map_file"
	.text
	.align	1
	.globl	caml_ba_map_file
	.type	caml_ba_map_file, @function
caml_ba_map_file:
.LFB39:
	.loc 1 109 1
	.cfi_startproc
	addi	sp,sp,-16
	.cfi_def_cfa_offset 16
	sd	ra,8(sp)
	.cfi_offset 1, -8
	.loc 1 109 1
	lla	a1,.LC32
	lla	a0,.LC3
	call	printf
.LVL40:
	.loc 1 109 1
	call	abort
.LVL41:
	.cfi_endproc
.LFE39:
	.size	caml_ba_map_file, .-caml_ba_map_file
	.section	.sdata,"aw"
	.align	2
	.type	called.1738, @object
	.size	called.1738, 4
called.1738:
	.word	1
	.type	called.1692, @object
	.size	called.1692, 4
called.1692:
	.word	1
	.type	called.1681, @object
	.size	called.1681, 4
called.1681:
	.word	1
	.type	called.1675, @object
	.size	called.1675, 4
called.1675:
	.word	1
	.type	called.1669, @object
	.size	called.1669, 4
called.1669:
	.word	1
	.type	called.1638, @object
	.size	called.1638, 4
called.1638:
	.word	1
	.type	called.1632, @object
	.size	called.1632, 4
called.1632:
	.word	1
	.type	called.1616, @object
	.size	called.1616, 4
called.1616:
	.word	1
	.type	called.1605, @object
	.size	called.1605, 4
called.1605:
	.word	1
	.type	called.1599, @object
	.size	called.1599, 4
called.1599:
	.word	1
	.type	called.1593, @object
	.size	called.1593, 4
called.1593:
	.word	1
	.type	called.1587, @object
	.size	called.1587, 4
called.1587:
	.word	1
	.type	called.1581, @object
	.size	called.1581, 4
called.1581:
	.word	1
	.type	called.1575, @object
	.size	called.1575, 4
called.1575:
	.word	1
	.type	called.1569, @object
	.size	called.1569, 4
called.1569:
	.word	1
	.type	called.1563, @object
	.size	called.1563, 4
called.1563:
	.word	1
	.type	called.1557, @object
	.size	called.1557, 4
called.1557:
	.word	1
	.type	called.1551, @object
	.size	called.1551, 4
called.1551:
	.word	1
	.type	called.1545, @object
	.size	called.1545, 4
called.1545:
	.word	1
	.type	called.1529, @object
	.size	called.1529, 4
called.1529:
	.word	1
	.text
.Letext0:
	.file 2 "/home/sai/ocaml-freestanding-riscv/nolibc/include/dirent.h"
	.file 3 "/home/sai/ocaml-freestanding-riscv/nolibc/include/stdio.h"
	.file 4 "/home/sai/Shakti-TEE-Build/riscv/lib/gcc/riscv64-unknown-elf/9.2.0/include/stddef.h"
	.file 5 "/home/sai/ocaml-freestanding-riscv/nolibc/include/errno.h"
	.file 6 "/home/sai/ocaml-freestanding-riscv/nolibc/include/unistd.h"
	.file 7 "/home/sai/ocaml-freestanding-riscv/nolibc/include/stdlib.h"